(lp1
(dp2
S'uid'
p3
VWOS:A1983RG07500001
p4
sS'title'
p5
VPRIVACY, MORALITY, AND THE LAW
p6
sS'journal'
p7
VPHILOSOPHY & PUBLIC AFFAIRS
p8
sS'author'
p9
VPARENT, WA
p10
sS'year'
p11
V1983
p12
sS'doctype'
p13
VArticle
p14
sa(dp15
g3
VWOS:A1990DQ43000002
p16
sg5
VJUSTICE AS RECIPROCITY VERSUS SUBJECT-CENTERED JUSTICE
p17
sg7
VPHILOSOPHY & PUBLIC AFFAIRS
p18
sg9
VBUCHANAN, A
p19
sg11
V1990
p20
sg13
VArticle
p21
sa(dp22
g3
VWOS:000454442800001
p23
sg5
VLimited Aggregation and Risk
p24
sg7
VPHILOSOPHY & PUBLIC AFFAIRS
p25
sg9
VLazar, Seth
p26
sg11
V2018
p27
sg13
VArticle
p28
sa(dp29
g3
VWOS:000365264600002
p30
sg5
VYes Means Yes: Consent as Communication
p31
sg7
VPHILOSOPHY & PUBLIC AFFAIRS
p32
sg9
VDougherty, Tom
p33
sg11
V2015
p34
sg13
VArticle
p35
sa(dp36
g3
VWOS:A1974T183900004
p37
sg5
VPREFERENTIAL HIRING - REPLY TO THOMSON,JJ
p38
sg7
VPHILOSOPHY & PUBLIC AFFAIRS
p39
sg9
VSIMON, R
p40
sg11
V1974
p41
sg13
VArticle
p42
sa(dp43
g3
VWOS:000183924900003
p44
sg5
VDefending transitivity against Zeno's paradox
p45
sg7
VPHILOSOPHY & PUBLIC AFFAIRS
p46
sg9
VBinmore, K
p47
sg11
V2003
p48
sg13
VArticle
p49
sa(dp50
g3
VWOS:000292743300001
p51
sg5
VDo I Make a Difference?
p52
sg7
VPHILOSOPHY & PUBLIC AFFAIRS
p53
sg9
VKagan, Shelly
p54
sg11
V2011
p55
sg13
VArticle
p56
sa(dp57
g3
VWOS:A1972Z066300001
p58
sg5
VWAR AND MASSACRE
p59
sg7
VPHILOSOPHY & PUBLIC AFFAIRS
p60
sg9
VNAGEL, T
p61
sg11
V1972
p62
sg13
VArticle
p63
sa(dp64
g3
VWOS:A1981KX25500001
p65
sg5
VANCIENT WRONGS AND MODERN RIGHTS
p66
sg7
VPHILOSOPHY & PUBLIC AFFAIRS
p67
sg9
VSHER, G
p68
sg11
V1981
p69
sg13
VArticle
p70
sa(dp71
g3
VWOS:A1986E678900001
p72
sg5
VSTRUCTURE, CHOICE, AND LEGITIMACY - LOCKE THEORY OF THE STATE
p73
sg7
VPHILOSOPHY & PUBLIC AFFAIRS
p74
sg9
VCOHEN, J
p75
sg11
V1986
p76
sg13
VArticle
p77
sa(dp78
g3
VWOS:000262106600003
p79
sg5
VCompensation for Historic Injustices: Completing the Boxill and Sher Argument
p80
sg7
VPHILOSOPHY & PUBLIC AFFAIRS
p81
sg9
VCohen, Andrew I.
p82
sg11
V2009
p83
sg13
VArticle
p84
sa(dp85
g3
VWOS:A1974V029500003
p86
sg5
VBARRY ON RAWLS PRIORITY OF LIBERTY
p87
sg7
VPHILOSOPHY & PUBLIC AFFAIRS
p88
sg9
VLESSNOFF, M
p89
sg11
V1974
p90
sg13
VArticle
p91
sa(dp92
g3
VWOS:A1988Q394000004
p93
sg5
VFREE SPEECH - A PHILOSOPHICAL INQUIRY - SCHAUER,F
p94
sg7
VPHILOSOPHY & PUBLIC AFFAIRS
p95
sg9
VRICHARDS, DAJ
p96
sg11
V1988
p97
sg13
VBook Review
p98
sa(dp99
g3
VWOS:A1988P182200005
p100
sg5
VTHREATS AND PUNISHMENT - REPLY
p101
sg7
VPHILOSOPHY & PUBLIC AFFAIRS
p102
sg9
VQUINN, W
p103
sg11
V1988
p104
sg13
VNote
p105
sa(dp106
g3
VWOS:A1989AF10500003
p107
sg5
VTHE SEPARATION OF CHURCH AND STATE AND THE OBLIGATIONS OF CITIZENSHIP
p108
sg7
VPHILOSOPHY & PUBLIC AFFAIRS
p109
sg9
VAUDI, R
p110
sg11
V1989
p111
sg13
VArticle
p112
sa(dp113
g3
VWOS:A1985AGY6000006
p114
sg5
VPHILOSOPHY AND POLICY
p115
sg7
VPHILOSOPHY & PUBLIC AFFAIRS
p116
sg9
VTHOMPSON, D
p117
sg11
V1985
p118
sg13
VArticle
p119
sa(dp120
g3
VWOS:A1982PN05700001
p121
sg5
VPROPERTY RELATIONS VS SURPLUS VALUE IN MARXIAN EXPLOITATION
p122
sg7
VPHILOSOPHY & PUBLIC AFFAIRS
p123
sg9
VROEMER, JE
p124
sg11
V1982
p125
sg13
VArticle
p126
sa(dp127
g3
VWOS:A1983RG07500005
p128
sg5
VEFFICIENCY AND LIBERTY IN THE PRODUCTIVE ENTERPRISE - RECENT WORK IN THE ECONOMICS OF WORK ORGANIZATION
p129
sg7
VPHILOSOPHY & PUBLIC AFFAIRS
p130
sg9
VMCPHERSON, M
p131
sg11
V1983
p132
sg13
VReview
p133
sa(dp134
g3
VWOS:A1987G067400001
p135
sg5
VEXPLOITATION, FORCE, AND THE MORAL ASSESSMENT OF CAPITALISM - THOUGHTS ON ROEMER AND COHEN
p136
sg7
VPHILOSOPHY & PUBLIC AFFAIRS
p137
sg9
VREIMAN, J
p138
sg11
V1987
p139
sg13
VArticle
p140
sa(dp141
g3
VWOS:A1987L168900002
p142
sg5
VFOUNDATIONS AND LIMITS OF FREEDOM OF THE PRESS
p143
sg7
VPHILOSOPHY & PUBLIC AFFAIRS
p144
sg9
VLICHTENBERG, J
p145
sg11
V1987
p146
sg13
VArticle
p147
sa(dp148
g3
VWOS:000383572500003
p149
sg5
VDoes the Egalitarian Rationale for Campaign Finance Reform Succeed?
p150
sg7
VPHILOSOPHY & PUBLIC AFFAIRS
p151
sg9
VPevnick, Ryan
p152
sg11
V2016
p153
sg13
VArticle
p154
sa(dp155
g3
VWOS:000366515400003
p156
sg5
VOn the Distinctive Procedural Wrong of Colonialism
p157
sg7
VPHILOSOPHY & PUBLIC AFFAIRS
p158
sg9
VValentini, Laura
p159
sg11
V2015
p160
sg13
VArticle
p161
sa(dp162
g3
VWOS:000312244200003
p163
sg5
VClimate Change Justice
p164
sg7
VPHILOSOPHY & PUBLIC AFFAIRS
p165
sg9
VFrisch, Mathias
p166
sg11
V2012
p167
sg13
VArticle
p168
sa(dp169
g3
VWOS:000188387200003
p170
sg5
VLeft-libertarianism: A review essay
p171
sg7
VPHILOSOPHY & PUBLIC AFFAIRS
p172
sg9
VFried, BH
p173
sg11
V2004
p174
sg13
VReview
p175
sa(dp176
g3
VWOS:A1991FP72300003
p177
sg5
VTHINKING LIKE AN ENGINEER - THE PLACE OF A CODE OF ETHICS IN THE PRACTICE OF A PROFESSION
p178
sg7
VPHILOSOPHY & PUBLIC AFFAIRS
p179
sg9
VDAVIS, M
p180
sg11
V1991
p181
sg13
VArticle
p182
sa(dp183
g3
VWOS:A1994QY41800002
p184
sg5
VUTILITARIANISM, DEONTOLOGY, AND THE PRIORITY OF RIGHT
p185
sg7
VPHILOSOPHY & PUBLIC AFFAIRS
p186
sg9
VFREEMAN, S
p187
sg11
V1994
p188
sg13
VArticle
p189
sa(dp190
g3
VWOS:000273550900002
p191
sg5
VWhich Relationships Justify Partiality? The Case of Parents and Children
p192
sg7
VPHILOSOPHY & PUBLIC AFFAIRS
p193
sg9
VKolodny, Niko
p194
sg11
V2010
p195
sg13
VArticle
p196
sa(dp197
g3
VWOS:A1987L168900004
p198
sg5
VLAWS EMPIRE - DWORKIN,R
p199
sg7
VPHILOSOPHY & PUBLIC AFFAIRS
p200
sg9
VLYONS, D
p201
sg11
V1987
p202
sg13
VBook Review
p203
sa(dp204
g3
VWOS:A1977EE56300003
p205
sg5
VARE THERE INCOMMENSURABLE VALUES
p206
sg7
VPHILOSOPHY & PUBLIC AFFAIRS
p207
sg9
VGRIFFIN, J
p208
sg11
V1977
p209
sg13
VArticle
p210
sa(dp211
g3
VWOS:A1986D214000004
p212
sg5
VREFLECTIONS ON ROUSSEAU - AUTONOMY AND DEMOCRACY
p213
sg7
VPHILOSOPHY & PUBLIC AFFAIRS
p214
sg9
VCOHEN, J
p215
sg11
V1986
p216
sg13
VArticle
p217
sa(dp218
g3
VWOS:A1981MH21100001
p219
sg5
VWHAT IS EQUALITY .2. EQUALITY OF RESOURCES
p220
sg7
VPHILOSOPHY & PUBLIC AFFAIRS
p221
sg9
VDWORKIN, R
p222
sg11
V1981
p223
sg13
VArticle
p224
sa(dp225
g3
VWOS:A1988M707600003
p226
sg5
VMORALS BY AGREEMENT - GAUTHIER,D
p227
sg7
VPHILOSOPHY & PUBLIC AFFAIRS
p228
sg9
VNELSON, A
p229
sg11
V1988
p230
sg13
VBook Review
p231
sa(dp232
g3
VWOS:A1978FC59500002
p233
sg5
VMERIT AND MERITOCRACY
p234
sg7
VPHILOSOPHY & PUBLIC AFFAIRS
p235
sg9
VDANIELS, N
p236
sg11
V1978
p237
sg13
VArticle
p238
sa(dp239
g3
VWOS:A1985AAF8800001
p240
sg5
VAUTHORITY AND JUSTIFICATION
p241
sg7
VPHILOSOPHY & PUBLIC AFFAIRS
p242
sg9
VRAZ, J
p243
sg11
V1985
p244
sg13
VArticle
p245
sa(dp246
g3
VWOS:000232423900003
p247
sg5
VOn the many as one: A reply to Kornhauser and Sager
p248
sg7
VPHILOSOPHY & PUBLIC AFFAIRS
p249
sg9
VList, C
p250
sg11
V2005
p251
sg13
VEditorial Material
p252
sa(dp253
g3
VWOS:000411821100001
p254
sg5
VFree Speech as a Special Right
p255
sg7
VPHILOSOPHY & PUBLIC AFFAIRS
p256
sg9
VKendrick, Leslie
p257
sg11
V2017
p258
sg13
VArticle
p259
sa(dp260
g3
VWOS:000391949700002
p261
sg5
VProperty and Homelessness
p262
sg7
VPHILOSOPHY & PUBLIC AFFAIRS
p263
sg9
VEssert, Christopher
p264
sg11
V2016
p265
sg13
VArticle
p266
sa(dp267
g3
VWOS:000366515400002
p268
sg5
VExperimental Animals
p269
sg7
VPHILOSOPHY & PUBLIC AFFAIRS
p270
sg9
VKitcher, Philip
p271
sg11
V2015
p272
sg13
VArticle
p273
sa(dp274
g3
VWOS:A1989T787200003
p275
sg5
VCREDIBLE THREATS AND USABLE WEAPONS - SOME DILEMMAS OF DETERRENCE
p276
sg7
VPHILOSOPHY & PUBLIC AFFAIRS
p277
sg9
VVANGELDER, TJ
p278
sg11
V1989
p279
sg13
VArticle
p280
sa(dp281
g3
VWOS:000317603400004
p282
sg5
VThe Case Against Privatization
p283
sg7
VPHILOSOPHY & PUBLIC AFFAIRS
p284
sg9
VDorfman, Avihay
p285
sg11
V2013
p286
sg13
VArticle
p287
sa(dp288
g3
VWOS:000188387200004
p289
sg5
VDefending transitivity against Zeno's paradox (vol 31, pg 272, 2003)
p290
sg7
VPHILOSOPHY & PUBLIC AFFAIRS
p291
sg9
VBinmore, K
p292
sg11
V2004
p293
sg13
VCorrection
p294
sa(dp295
g3
VWOS:A1975AP38800005
p296
sg5
VJUSTICE AND INTERNATIONAL-RELATIONS
p297
sg7
VPHILOSOPHY & PUBLIC AFFAIRS
p298
sg9
VBEITZ, CR
p299
sg11
V1975
p300
sg13
VArticle
p301
sa(dp302
g3
VWOS:A1991EY78200001
p303
sg5
VPREFERENCES AND POLITICS
p304
sg7
VPHILOSOPHY & PUBLIC AFFAIRS
p305
sg9
VSUNSTEIN, CR
p306
sg11
V1991
p307
sg13
VArticle
p308
sa(dp309
g3
VWOS:000085003400001
p310
sg5
VResponsibility and collaboration
p311
sg7
VPHILOSOPHY & PUBLIC AFFAIRS
p312
sg9
VKamm, FM
p313
sg11
V1999
p314
sg13
VArticle
p315
sa(dp316
g3
VWOS:A1975AZ83300004
p317
sg5
VWAR AND INNOCENCE
p318
sg7
VPHILOSOPHY & PUBLIC AFFAIRS
p319
sg9
VFULLINWIDER, RK
p320
sg11
V1975
p321
sg13
VArticle
p322
sa(dp323
g3
VWOS:A1981MH21100002
p324
sg5
VHOW TO DISTINGUISH SELF-RESPECT FROM SELF-ESTEEM
p325
sg7
VPHILOSOPHY & PUBLIC AFFAIRS
p326
sg9
VSACHS, D
p327
sg11
V1981
p328
sg13
VArticle
p329
sa(dp330
g3
VWOS:A1980JX23700001
p331
sg5
VTHE MORAL STANDING OF STATES - A RESPONSE TO 4 CRITICS
p332
sg7
VPHILOSOPHY & PUBLIC AFFAIRS
p333
sg9
VWALZER, M
p334
sg11
V1980
p335
sg13
VArticle
p336
sa(dp337
g3
VWOS:000166607600003
p338
sg5
VMill on liberty, speech, and the free society
p339
sg7
VPHILOSOPHY & PUBLIC AFFAIRS
p340
sg9
VJacobson, D
p341
sg11
V2000
p342
sg13
VArticle
p343
sa(dp344
g3
VWOS:A1982NK18500004
p345
sg5
VON LICENTIOUS LICENSING - REPLY
p346
sg7
VPHILOSOPHY & PUBLIC AFFAIRS
p347
sg9
VLAFOLLETTE, H
p348
sg11
V1982
p349
sg13
VLetter
p350
sa(dp351
g3
VWOS:A1997XC38000001
p352
sg5
VThe arc of the moral universe
p353
sg7
VPHILOSOPHY & PUBLIC AFFAIRS
p354
sg9
VCohen, J
p355
sg11
V1997
p356
sg13
VArticle
p357
sa(dp358
g3
VWOS:A1984ST42400001
p359
sg5
VABORTION AND SELF-DEFENSE
p360
sg7
VPHILOSOPHY & PUBLIC AFFAIRS
p361
sg9
VDAVIS, N
p362
sg11
V1984
p363
sg13
VArticle
p364
sa(dp365
g3
VWOS:A1977DH33200002
p366
sg5
VLIBERTY AND REDISTRIBUTION OF PROPERTY
p367
sg7
VPHILOSOPHY & PUBLIC AFFAIRS
p368
sg9
VLOEVINSOHN, E
p369
sg11
V1977
p370
sg13
VArticle
p371
sa(dp372
g3
VWOS:000228015700005
p373
sg5
VLeft-libertarianism, once more: A rejoinder to Vallentyne, Steiner, and Otsuka
p374
sg7
VPHILOSOPHY & PUBLIC AFFAIRS
p375
sg9
VFried, BH
p376
sg11
V2005
p377
sg13
VEditorial Material
p378
sa(dp379
g3
VWOS:000391948600001
p380
sg5
VNeither Perfectionism nor Political Liberalism
p381
sg7
VPHILOSOPHY & PUBLIC AFFAIRS
p382
sg9
VPallikkathayil, Japa
p383
sg11
V2016
p384
sg13
VArticle
p385
sa(dp386
g3
VWOS:000224311500004
p387
sg5
VSkepticism about saving the greater number
p388
sg7
VPHILOSOPHY & PUBLIC AFFAIRS
p389
sg9
VOtsuka, M
p390
sg11
V2004
p391
sg13
VArticle
p392
sa(dp393
g3
VWOS:000335008500001
p394
sg5
VReflection and Responsibility
p395
sg7
VPHILOSOPHY & PUBLIC AFFAIRS
p396
sg9
VHieronymi, Pamela
p397
sg11
V2014
p398
sg13
VArticle
p399
sa(dp400
g3
VWOS:000220570000001
p401
sg5
VPolitical liberalism and social epistemology
p402
sg7
VPHILOSOPHY & PUBLIC AFFAIRS
p403
sg9
VBuchanan, A
p404
sg11
V2004
p405
sg13
VArticle
p406
sa(dp407
g3
VWOS:000183924900002
p408
sg5
VRawls's defense of the Priority of Liberty: A Kantian reconstruction
p409
sg7
VPHILOSOPHY & PUBLIC AFFAIRS
p410
sg9
VTaylor, RS
p411
sg11
V2003
p412
sg13
VArticle
p413
sa(dp414
g3
VWOS:A1991FP72300002
p415
sg5
VTHE PARADOX OF GROUP BENEFICENCE
p416
sg7
VPHILOSOPHY & PUBLIC AFFAIRS
p417
sg9
VOTSUKA, M
p418
sg11
V1991
p419
sg13
VArticle
p420
sa(dp421
g3
VWOS:A1983QW89100001
p422
sg5
VINALIENABLE RIGHTS AND LOCKE TREATISES
p423
sg7
VPHILOSOPHY & PUBLIC AFFAIRS
p424
sg9
VSIMMONS, AJ
p425
sg11
V1983
p426
sg13
VArticle
p427
sa(dp428
g3
VWOS:000279939300003
p429
sg5
VThe Paradox of Voting and the Ethics of Political Representation
p430
sg7
VPHILOSOPHY & PUBLIC AFFAIRS
p431
sg9
VGuerrero, Alexander A.
p432
sg11
V2010
p433
sg13
VArticle
p434
sa(dp435
g3
VWOS:000073921600001
p436
sg5
VConcealment and exposure
p437
sg7
VPHILOSOPHY & PUBLIC AFFAIRS
p438
sg9
VNagel, T
p439
sg11
V1998
p440
sg13
VArticle
p441
sa(dp442
g3
VWOS:A1995RT06500003
p443
sg5
VFREEDOM OF SPEECH ACTS - A RESPONSE
p444
sg7
VPHILOSOPHY & PUBLIC AFFAIRS
p445
sg9
VJACOBSON, D
p446
sg11
V1995
p447
sg13
VArticle
p448
sa(dp449
g3
VWOS:A1983PY26400004
p450
sg5
VWOLFF,R.P. REINTERPRETATION OF MARX LABOR THEORY OF VALUE - COMMENT
p451
sg7
VPHILOSOPHY & PUBLIC AFFAIRS
p452
sg9
VROEMER, JE
p453
sg11
V1983
p454
sg13
VArticle
p455
sa(dp456
g3
VWOS:A1985AAF8800002
p457
sg5
VSHOULD MARXISTS BE INTERESTED IN EXPLOITATION
p458
sg7
VPHILOSOPHY & PUBLIC AFFAIRS
p459
sg9
VROEMER, JE
p460
sg11
V1985
p461
sg13
VArticle
p462
sa(dp463
g3
VWOS:A1983QW89100003
p464
sg5
VUNILATERAL VERSUS MUTUAL DISARMAMENT
p465
sg7
VPHILOSOPHY & PUBLIC AFFAIRS
p466
sg9
VHARDIN, R
p467
sg11
V1983
p468
sg13
VArticle
p469
sa(dp470
g3
VWOS:A1972Z066400002
p471
sg5
VMARXIAN CRITIQUE OF JUSTICE
p472
sg7
VPHILOSOPHY & PUBLIC AFFAIRS
p473
sg9
VWOOD, AW
p474
sg11
V1972
p475
sg13
VArticle
p476
sa(dp477
g3
VWOS:000089747700001
p478
sg5
VWhat's the use of utility?
p479
sg7
VPHILOSOPHY & PUBLIC AFFAIRS
p480
sg9
VMillgram, E
p481
sg11
V2000
p482
sg13
VArticle
p483
sa(dp484
g3
VWOS:A1976CN02500002
p485
sg5
VPRIVACY, INTIMACY, AND PERSONHOOD
p486
sg7
VPHILOSOPHY & PUBLIC AFFAIRS
p487
sg9
VREIMAN, JH
p488
sg11
V1976
p489
sg13
VArticle
p490
sa(dp491
g3
VWOS:A1981LU74200002
p492
sg5
VMORALITY AND THE INVISIBLE HAND
p493
sg7
VPHILOSOPHY & PUBLIC AFFAIRS
p494
sg9
VMCMAHON, C
p495
sg11
V1981
p496
sg13
VArticle
p497
sa(dp498
g3
VWOS:A1991EY78200004
p499
sg5
VRELIGIOUS COMMITMENT AND SECULAR REASON - A REPLY
p500
sg7
VPHILOSOPHY & PUBLIC AFFAIRS
p501
sg9
VAUDI, R
p502
sg11
V1991
p503
sg13
VArticle
p504
sa(dp505
g3
VWOS:A1975AZ83300003
p506
sg5
VJUSTICE AS EQUALITY
p507
sg7
VPHILOSOPHY & PUBLIC AFFAIRS
p508
sg9
VAKE, C
p509
sg11
V1975
p510
sg13
VArticle
p511
sa(dp512
g3
VWOS:000317603400002
p513
sg5
VA New Philosophy for International Law
p514
sg7
VPHILOSOPHY & PUBLIC AFFAIRS
p515
sg9
VDworkin, Ronald
p516
sg11
V2013
p517
sg13
VArticle
p518
sa(dp519
g3
VWOS:000297919300001
p520
sg5
VHuman Nature and the Limits (If Any) of Political Philosophy
p521
sg7
VPHILOSOPHY & PUBLIC AFFAIRS
p522
sg9
VEstlund, David
p523
sg11
V2011
p524
sg13
VArticle
p525
sa(dp526
g3
VWOS:000292743300002
p527
sg5
VAn Instrumental Argument for a Human Right to Democracy
p528
sg7
VPHILOSOPHY & PUBLIC AFFAIRS
p529
sg9
VChristiano, Thomas
p530
sg11
V2011
p531
sg13
VArticle
p532
sa(dp533
g3
VWOS:000288702400003
p534
sg5
VSen on Justice and Rights: A Review Essay
p535
sg7
VPHILOSOPHY & PUBLIC AFFAIRS
p536
sg9
VKamm, F. M.
p537
sg11
V2011
p538
sg13
VArticle
p539
sa(dp540
g3
VWOS:A1975AZ83300002
p541
sg5
VDISTINCTION BETWEEN DISEASE AND ILLNESS
p542
sg7
VPHILOSOPHY & PUBLIC AFFAIRS
p543
sg9
VBOORSE, C
p544
sg11
V1975
p545
sg13
VArticle
p546
sa(dp547
g3
VWOS:000177599500004
p548
sg5
VAre all rights positive?
p549
sg7
VPHILOSOPHY & PUBLIC AFFAIRS
p550
sg9
VGewirth, A
p551
sg11
V2001
p552
sg13
VArticle
p553
sa(dp554
g3
VWOS:A1976CN02500004
p555
sg5
VSELF-RESPECT AND PROTEST
p556
sg7
VPHILOSOPHY & PUBLIC AFFAIRS
p557
sg9
VBOXILL, BR
p558
sg11
V1976
p559
sg13
VArticle
p560
sa(dp561
g3
VWOS:000268959500003
p562
sg5
VCivic Nationalism and Language Policy
p563
sg7
VPHILOSOPHY & PUBLIC AFFAIRS
p564
sg9
VStilz, Anna
p565
sg11
V2009
p566
sg13
VArticle
p567
sa(dp568
g3
VWOS:A1979HX56300004
p569
sg5
VREVOLUTIONARY MOTIVATION AND RATIONALITY
p570
sg7
VPHILOSOPHY & PUBLIC AFFAIRS
p571
sg9
VBUCHANAN, A
p572
sg11
V1979
p573
sg13
VArticle
p574
sa(dp575
g3
VWOS:A1997YD33500002
p576
sg5
VPragmatic rationality and rules
p577
sg7
VPHILOSOPHY & PUBLIC AFFAIRS
p578
sg9
VMcClennen, EF
p579
sg11
V1997
p580
sg13
VArticle
p581
sa(dp582
g3
VWOS:A1994NC40100004
p583
sg5
VKILLING THE INNOCENT IN SELF-DEFENSE
p584
sg7
VPHILOSOPHY & PUBLIC AFFAIRS
p585
sg9
VOTSUKA, M
p586
sg11
V1994
p587
sg13
VArticle
p588
sa(dp589
g3
VWOS:A1974U150400002
p590
sg5
VSPECIAL RIGHTS, GENERAL RIGHTS, AND SOCIAL JUSTICE
p591
sg7
VPHILOSOPHY & PUBLIC AFFAIRS
p592
sg9
VNELSON, WN
p593
sg11
V1974
p594
sg13
VArticle
p595
sa(dp596
g3
VWOS:A1989AF10500004
p597
sg5
VJUSTICE, HEALTH-CARE, AND THE ELDERLY
p598
sg7
VPHILOSOPHY & PUBLIC AFFAIRS
p599
sg9
VBROCK, DW
p600
sg11
V1989
p601
sg13
VArticle
p602
sa(dp603
g3
VWOS:000080272000001
p604
sg5
VInstitutions and the demands of justice
p605
sg7
VPHILOSOPHY & PUBLIC AFFAIRS
p606
sg9
VMurphy, LB
p607
sg11
V1998
p608
sg13
VArticle
p609
sa(dp610
g3
VWOS:A1980JX23700002
p611
sg5
VBAD SAMARITANISM AND THE CAUSATION OF HARM
p612
sg7
VPHILOSOPHY & PUBLIC AFFAIRS
p613
sg9
VMACK, E
p614
sg11
V1980
p615
sg13
VArticle
p616
sa(dp617
g3
VWOS:000261079400002
p618
sg5
VTurning the Trolley
p619
sg7
VPHILOSOPHY & PUBLIC AFFAIRS
p620
sg9
VThomson, Judtih Jarvis
p621
sg11
V2008
p622
sg13
VArticle
p623
sa(dp624
g3
VWOS:A1978FR97100002
p625
sg5
VRAWLSIAN JUSTICE AND ECONOMIC-SYSTEMS
p626
sg7
VPHILOSOPHY & PUBLIC AFFAIRS
p627
sg9
VCLARK, B
p628
sg11
V1978
p629
sg13
VArticle
p630
sa(dp631
g3
VWOS:A1983RG07500002
p632
sg5
VA CONSENSUAL THEORY OF PUNISHMENT
p633
sg7
VPHILOSOPHY & PUBLIC AFFAIRS
p634
sg9
VNINO, CS
p635
sg11
V1983
p636
sg13
VArticle
p637
sa(dp638
g3
VWOS:A1972Z066300005
p639
sg5
VTHEORY OF FREEDOM OF EXPRESSION
p640
sg7
VPHILOSOPHY & PUBLIC AFFAIRS
p641
sg9
VSCANLON, T
p642
sg11
V1972
p643
sg13
VArticle
p644
sa(dp645
g3
VWOS:000391950500002
p646
sg5
VTreating People as Tools
p647
sg7
VPHILOSOPHY & PUBLIC AFFAIRS
p648
sg9
VRamakrishnan, Ketan H.
p649
sg11
V2016
p650
sg13
VArticle
p651
sa(dp652
g3
VWOS:000383572500002
p653
sg5
VDoes "Ought" Imply "Feasible"?
p654
sg7
VPHILOSOPHY & PUBLIC AFFAIRS
p655
sg9
VSouthwood, Nicholas
p656
sg11
V2016
p657
sg13
VArticle
p658
sa(dp659
g3
VWOS:000320619200003
p660
sg5
VWhat's Wrong with Colonialism
p661
sg7
VPHILOSOPHY & PUBLIC AFFAIRS
p662
sg9
VYpi, Lea
p663
sg11
V2013
p664
sg13
VArticle
p665
sa(dp666
g3
VWOS:000306895900002
p667
sg5
VNecessity in Self-Defense and War
p668
sg7
VPHILOSOPHY & PUBLIC AFFAIRS
p669
sg9
VLazar, Seth
p670
sg11
V2012
p671
sg13
VArticle
p672
sa(dp673
g3
VWOS:000186164300002
p674
sg5
VLiberal neutrality and language policy
p675
sg7
VPHILOSOPHY & PUBLIC AFFAIRS
p676
sg9
VPatten, A
p677
sg11
V2003
p678
sg13
VArticle
p679
sa(dp680
g3
VWOS:000186164300003
p681
sg5
VThe democracy/contractualism analogy
p682
sg7
VPHILOSOPHY & PUBLIC AFFAIRS
p683
sg9
VEstlund, D
p684
sg11
V2003
p685
sg13
VArticle
p686
sa(dp687
g3
VWOS:A1979GZ87200001
p688
sg5
VFREEDOM, MORALITY, PLEA BARGAINING, AND THE SUPREME-COURT
p689
sg7
VPHILOSOPHY & PUBLIC AFFAIRS
p690
sg9
VWERTHEIMER, A
p691
sg11
V1979
p692
sg13
VArticle
p693
sa(dp694
g3
VWOS:000277010700003
p695
sg5
VThe Responsibility Dilemma for Killing in War: A Review Essay
p696
sg7
VPHILOSOPHY & PUBLIC AFFAIRS
p697
sg9
VLazar, Seth
p698
sg11
V2010
p699
sg13
VArticle
p700
sa(dp701
g3
VWOS:A1985ATS8500003
p702
sg5
VRIGHTS AND DUTIES OF COMPENSATION - COMMENT
p703
sg7
VPHILOSOPHY & PUBLIC AFFAIRS
p704
sg9
VWESTEN, P
p705
sg11
V1985
p706
sg13
VArticle
p707
sa(dp708
g3
VWOS:A1973R219800003
p709
sg5
VPOLITICAL ACTION - PROBLEM OF DIRTY HANDS
p710
sg7
VPHILOSOPHY & PUBLIC AFFAIRS
p711
sg9
VWALZER, M
p712
sg11
V1973
p713
sg13
VArticle
p714
sa(dp715
g3
VWOS:A1993KL20400006
p716
sg5
VGIBBARD THEORY OF NORMS
p717
sg7
VPHILOSOPHY & PUBLIC AFFAIRS
p718
sg9
VHORWICH, P
p719
sg11
V1993
p720
sg13
VArticle
p721
sa(dp722
g3
VWOS:A1988P182200003
p723
sg5
VARGUING ABOUT JUSTICE - MARXIST IMMORALISM AND MARXIST MORALISM
p724
sg7
VPHILOSOPHY & PUBLIC AFFAIRS
p725
sg9
VNIELSEN, K
p726
sg11
V1988
p727
sg13
VArticle
p728
sa(dp729
g3
VWOS:A1993KL20400004
p730
sg5
VGAMES PHILOSOPHERS PLAY - A REPLY TO GAUTHIER
p731
sg7
VPHILOSOPHY & PUBLIC AFFAIRS
p732
sg9
VLADEN, AS
p733
sg11
V1993
p734
sg13
VNote
p735
sa(dp736
g3
VWOS:A1978FC59500005
p737
sg5
VSEX EQUALITY IN SPORTS
p738
sg7
VPHILOSOPHY & PUBLIC AFFAIRS
p739
sg9
VENGLISH, J
p740
sg11
V1978
p741
sg13
VArticle
p742
sa(dp743
g3
VWOS:A1977DX39800004
p744
sg5
VDESERVING TO DESERVE
p745
sg7
VPHILOSOPHY & PUBLIC AFFAIRS
p746
sg9
VZAITCHIK, A
p747
sg11
V1977
p748
sg13
VArticle
p749
sa(dp750
g3
VWOS:A1987H340500005
p751
sg5
VREFLECTION AND THE LOSS OF MORAL KNOWLEDGE - WILLIAMS ON OBJECTIVITY
p752
sg7
VPHILOSOPHY & PUBLIC AFFAIRS
p753
sg9
VQUINN, W
p754
sg11
V1987
p755
sg13
VArticle
p756
sa(dp757
g3
VWOS:A1995RT06500001
p758
sg5
VMORAL FREE RIDING
p759
sg7
VPHILOSOPHY & PUBLIC AFFAIRS
p760
sg9
VCULLITY, G
p761
sg11
V1995
p762
sg13
VArticle
p763
sa(dp764
g3
VWOS:A1984RY56100004
p765
sg5
VRIGHTS AND DUTIES OF COMPENSATION
p766
sg7
VPHILOSOPHY & PUBLIC AFFAIRS
p767
sg9
VMONTAGUE, P
p768
sg11
V1984
p769
sg13
VArticle
p770
sa(dp771
g3
VWOS:A1995TV93400001
p772
sg5
VObjectification
p773
sg7
VPHILOSOPHY & PUBLIC AFFAIRS
p774
sg9
VNussbaum, MC
p775
sg11
V1995
p776
sg13
VArticle
p777
sa(dp778
g3
VWOS:A1986A816300006
p779
sg5
VHAPPINESS AND FREEDOM - RECENT WORK ON MILL,JOHN,STUART
p780
sg7
VPHILOSOPHY & PUBLIC AFFAIRS
p781
sg9
VHOAG, RW
p782
sg11
V1986
p783
sg13
VArticle
p784
sa(dp785
g3
VWOS:A1994PZ86700003
p786
sg5
VPOLITICAL OBLIGATION AND THE NATURAL DUTIES OF JUSTICE
p787
sg7
VPHILOSOPHY & PUBLIC AFFAIRS
p788
sg9
VKLOSKO, G
p789
sg11
V1994
p790
sg13
VArticle
p791
sa(dp792
g3
VWOS:000232423900004
p793
sg5
VHedonic psychology and the ambiguities of "Welfare"
p794
sg7
VPHILOSOPHY & PUBLIC AFFAIRS
p795
sg9
VKelman, M
p796
sg11
V2005
p797
sg13
VArticle
p798
sa(dp799
g3
VWOS:A1973R219800005
p800
sg5
VDEMOCRATIC VIOLENCE
p801
sg7
VPHILOSOPHY & PUBLIC AFFAIRS
p802
sg9
VHONDERICH, T
p803
sg11
V1973
p804
sg13
VArticle
p805
sa(dp806
g3
VWOS:000366515400001
p807
sg5
VThe Myth of the Optional War: Why States Are Required to Wage the Wars They Are Permitted to Wage
p808
sg7
VPHILOSOPHY & PUBLIC AFFAIRS
p809
sg9
VOberman, Kieran
p810
sg11
V2015
p811
sg13
VArticle
p812
sa(dp813
g3
VWOS:A1992HE32300003
p814
sg5
VMILL DELIBERATIVE UTILITARIANISM
p815
sg7
VPHILOSOPHY & PUBLIC AFFAIRS
p816
sg9
VBRINK, DO
p817
sg11
V1992
p818
sg13
VArticle
p819
sa(dp820
g3
VWOS:000324308200003
p821
sg5
VHuman Dignity in the Theory of Human Rights: Nothing But a Phrase?
p822
sg7
VPHILOSOPHY & PUBLIC AFFAIRS
p823
sg9
VBeitz, Charles R.
p824
sg11
V2013
p825
sg13
VArticle
p826
sa(dp827
g3
VWOS:A1978FZ62100004
p828
sg5
VALTERNATIVE POLICY FOR OBTAINING CADAVER ORGANS FOR TRANSPLANTATION
p829
sg7
VPHILOSOPHY & PUBLIC AFFAIRS
p830
sg9
VMUYSKENS, JL
p831
sg11
V1978
p832
sg13
VArticle
p833
sa(dp834
g3
VWOS:000180834900003
p835
sg5
VCan a nonconsequentialist count lives?
p836
sg7
VPHILOSOPHY & PUBLIC AFFAIRS
p837
sg9
VWasserman, D
p838
sg11
V2003
p839
sg13
VArticle
p840
sa(dp841
g3
VWOS:A1990EF72900004
p842
sg5
VTHE COMPANY OF CRITICS - SOCIAL CRITICISM AND POLITICAL COMMITMENT IN THE 20TH-CENTURY - WALZER,M
p843
sg7
VPHILOSOPHY & PUBLIC AFFAIRS
p844
sg9
VBARRY, B
p845
sg11
V1990
p846
sg13
VBook Review
p847
sa(dp848
g3
VWOS:A1975V833400003
p849
sg5
VJUSTIFYING REVERSE DISCRIMINATION IN EMPLOYMENT
p850
sg7
VPHILOSOPHY & PUBLIC AFFAIRS
p851
sg9
VSHER, G
p852
sg11
V1975
p853
sg13
VArticle
p854
sa(dp855
g3
VWOS:A1996UH47000001
p856
sg5
VCognitive disability, misfortune, and justice
p857
sg7
VPHILOSOPHY & PUBLIC AFFAIRS
p858
sg9
VMcMahan, J
p859
sg11
V1996
p860
sg13
VArticle
p861
sa(dp862
g3
VWOS:000081127800002
p863
sg5
VRecognitional legitimacy and the state system
p864
sg7
VPHILOSOPHY & PUBLIC AFFAIRS
p865
sg9
VBuchanan, A
p866
sg11
V1999
p867
sg13
VArticle
p868
sa(dp869
g3
VWOS:A1985ATS8500002
p870
sg5
VRIGHTS, PERMISSION, AND COMPENSATION
p871
sg7
VPHILOSOPHY & PUBLIC AFFAIRS
p872
sg9
VDAVIS, N
p873
sg11
V1985
p874
sg13
VArticle
p875
sa(dp876
g3
VWOS:A1995TV93400002
p877
sg5
VThe political theory of organizations and business ethics
p878
sg7
VPHILOSOPHY & PUBLIC AFFAIRS
p879
sg9
VMcMahon, C
p880
sg11
V1995
p881
sg13
VArticle
p882
sa(dp883
g3
VWOS:000259391600001
p884
sg5
VPersons in prospect
p885
sg7
VPHILOSOPHY & PUBLIC AFFAIRS
p886
sg9
VVelleman, J. David
p887
sg11
V2008
p888
sg13
VArticle
p889
sa(dp890
g3
VWOS:000258361300004
p891
sg5
VFreedom and probability: A comment on Goodin and Jackson
p892
sg7
VPHILOSOPHY & PUBLIC AFFAIRS
p893
sg9
VPettit, Philip
p894
sg11
V2008
p895
sg13
VArticle
p896
sa(dp897
g3
VWOS:A1985AGY6000004
p898
sg5
VEQUAL TREATMENT AND EQUAL CHANCES
p899
sg7
VPHILOSOPHY & PUBLIC AFFAIRS
p900
sg9
VKAMM, FM
p901
sg11
V1985
p902
sg13
VArticle
p903
sa(dp904
g3
VWOS:A1984ST42400003
p905
sg5
VDOES CONSEQUENTIALISM DEMAND TOO MUCH, RECENT WORK ON THE LIMITS OF OBLIGATION
p906
sg7
VPHILOSOPHY & PUBLIC AFFAIRS
p907
sg9
VKAGAN, S
p908
sg11
V1984
p909
sg13
VArticle
p910
sa(dp911
g3
VWOS:000444803500003
p912
sg5
VPast Killings and Proportionality in War
p913
sg7
VPHILOSOPHY & PUBLIC AFFAIRS
p914
sg9
VTadros, Victor
p915
sg11
V2018
p916
sg13
VArticle
p917
sa(dp918
g3
VWOS:000391948600002
p919
sg5
VMoral Grandstanding
p920
sg7
VPHILOSOPHY & PUBLIC AFFAIRS
p921
sg9
VTosi, Justin
p922
sg11
V2016
p923
sg13
VArticle
p924
sa(dp925
g3
VWOS:000353241200003
p926
sg5
VRisking and Wronging
p927
sg7
VPHILOSOPHY & PUBLIC AFFAIRS
p928
sg9
VKumar, Rahul
p929
sg11
V2015
p930
sg13
VArticle
p931
sa(dp932
g3
VWOS:A1987G067400002
p933
sg5
VJUSTICE AND GENDER
p934
sg7
VPHILOSOPHY & PUBLIC AFFAIRS
p935
sg9
VOKIN, SM
p936
sg11
V1987
p937
sg13
VArticle
p938
sa(dp939
g3
VWOS:000328395700002
p940
sg5
VOccupancy Rights and the Wrong of Removal
p941
sg7
VPHILOSOPHY & PUBLIC AFFAIRS
p942
sg9
VStilz, Anna
p943
sg11
V2013
p944
sg13
VArticle
p945
sa(dp946
g3
VWOS:A1982NK18500001
p947
sg5
VTHE PARADOX OF FUTURE INDIVIDUALS
p948
sg7
VPHILOSOPHY & PUBLIC AFFAIRS
p949
sg9
VKAVKA, GS
p950
sg11
V1982
p951
sg13
VArticle
p952
sa(dp953
g3
VWOS:A1996UT36600002
p954
sg5
VDworkin and Casey on abortion
p955
sg7
VPHILOSOPHY & PUBLIC AFFAIRS
p956
sg9
VStroud, S
p957
sg11
V1996
p958
sg13
VArticle
p959
sa(dp960
g3
VWOS:A1991GA36400002
p961
sg5
VVIRTUE THEORY AND ABORTION
p962
sg7
VPHILOSOPHY & PUBLIC AFFAIRS
p963
sg9
VHURSTHOUSE, R
p964
sg11
V1991
p965
sg13
VArticle
p966
sa(dp967
g3
VWOS:A1997WK48600003
p968
sg5
VTwo conceptions of benevolence
p969
sg7
VPHILOSOPHY & PUBLIC AFFAIRS
p970
sg9
VMulgan, T
p971
sg11
V1997
p972
sg13
VArticle
p973
sa(dp974
g3
VWOS:A1993KL20400005
p975
sg5
VSELF-DEFENSE, JUSTIFICATION, AND EXCUSE
p976
sg7
VPHILOSOPHY & PUBLIC AFFAIRS
p977
sg9
VALEXANDER, L
p978
sg11
V1993
p979
sg13
VArticle
p980
sa(dp981
g3
VWOS:000273550900003
p982
sg5
VCan There Be a Global Demos? An Agency-Based Approach
p983
sg7
VPHILOSOPHY & PUBLIC AFFAIRS
p984
sg9
VList, Christian
p985
sg11
V2010
p986
sg13
VArticle
p987
sa(dp988
g3
VWOS:A1991GR79400003
p989
sg5
VTHE PARADOX OF DEONTOLOGY
p990
sg7
VPHILOSOPHY & PUBLIC AFFAIRS
p991
sg9
VMCMAHON, C
p992
sg11
V1991
p993
sg13
VArticle
p994
sa(dp995
g3
VWOS:A1983QL19000003
p996
sg5
VTHE LABOR THEORY OF THE DIFFERENCE PRINCIPLE
p997
sg7
VPHILOSOPHY & PUBLIC AFFAIRS
p998
sg9
VREIMAN, JH
p999
sg11
V1983
p1000
sg13
VArticle
p1001
sa(dp1002
g3
VWOS:A1975AP38800006
p1003
sg5
VCONSISTENCY OF HISTORICAL MATERIALISM
p1004
sg7
VPHILOSOPHY & PUBLIC AFFAIRS
p1005
sg9
VMILLER, RW
p1006
sg11
V1975
p1007
sg13
VArticle
p1008
sa(dp1009
g3
VWOS:000083165600003
p1010
sg5
VSympathetic liberalism: Recent work on Adam Smith
p1011
sg7
VPHILOSOPHY & PUBLIC AFFAIRS
p1012
sg9
VDarwall, S
p1013
sg11
V1999
p1014
sg13
VReview
p1015
sa(dp1016
g3
VWOS:A1975AP38800004
p1017
sg5
VHUMAN BEING - BOUNDARIES OF CONCEPT
p1018
sg7
VPHILOSOPHY & PUBLIC AFFAIRS
p1019
sg9
VBECKER, LC
p1020
sg11
V1975
p1021
sg13
VArticle
p1022
sa(dp1023
g3
VWOS:A1987J379200001
p1024
sg5
VMORAL CONFLICT AND POLITICAL LEGITIMACY
p1025
sg7
VPHILOSOPHY & PUBLIC AFFAIRS
p1026
sg9
VNAGEL, T
p1027
sg11
V1987
p1028
sg13
VArticle
p1029
sa(dp1030
g3
VWOS:000236359900002
p1031
sg5
VHow to be consistent without saving the greater number
p1032
sg7
VPHILOSOPHY & PUBLIC AFFAIRS
p1033
sg9
VMeyer, K
p1034
sg11
V2006
p1035
sg13
VArticle
p1036
sa(dp1037
g3
VWOS:A1989AV72300004
p1038
sg5
VOBLIGATIONS OF GRATITUDE AND POLITICAL OBLIGATION
p1039
sg7
VPHILOSOPHY & PUBLIC AFFAIRS
p1040
sg9
VWALKER, ADM
p1041
sg11
V1989
p1042
sg13
VArticle
p1043
sa(dp1044
g3
VWOS:A1979HM28200002
p1045
sg5
VLABOR THEORY OF VALUE AND THE CONCEPT OF EXPLOITATION
p1046
sg7
VPHILOSOPHY & PUBLIC AFFAIRS
p1047
sg9
VCOHEN, GA
p1048
sg11
V1979
p1049
sg13
VArticle
p1050
sa(dp1051
g3
VWOS:000444803500006
p1052
sg5
VAffirmative Consent and Due Diligence
p1053
sg7
VPHILOSOPHY & PUBLIC AFFAIRS
p1054
sg9
VDougherty, Tom
p1055
sg11
V2018
p1056
sg13
VArticle
p1057
sa(dp1058
g3
VWOS:000418419200003
p1059
sg5
VSocialism Revised
p1060
sg7
VPHILOSOPHY & PUBLIC AFFAIRS
p1061
sg9
VRoemer, John E.
p1062
sg11
V2017
p1063
sg13
VArticle
p1064
sa(dp1065
g3
VWOS:000391949700001
p1066
sg5
VWhat We Owe to Hypocrites: Contractualism and the Speaker-Relativity of Justification
p1067
sg7
VPHILOSOPHY & PUBLIC AFFAIRS
p1068
sg9
VFrick, Johann
p1069
sg11
V2016
p1070
sg13
VArticle
p1071
sa(dp1072
g3
VWOS:000073921600002
p1073
sg5
VMoral judgment, historical reality, and civil disobedience
p1074
sg7
VPHILOSOPHY & PUBLIC AFFAIRS
p1075
sg9
VLyons, D
p1076
sg11
V1998
p1077
sg13
VArticle
p1078
sa(dp1079
g3
VWOS:000183924900001
p1080
sg5
VFacts and principles
p1081
sg7
VPHILOSOPHY & PUBLIC AFFAIRS
p1082
sg9
VCohen, GA
p1083
sg11
V2003
p1084
sg13
VArticle
p1085
sa(dp1086
g3
VWOS:A1996UT36600001
p1087
sg5
VObjectivity and truth: You'd better believe it
p1088
sg7
VPHILOSOPHY & PUBLIC AFFAIRS
p1089
sg9
VDworkin, R
p1090
sg11
V1996
p1091
sg13
VArticle
p1092
sa(dp1093
g3
VWOS:000083165600002
p1094
sg5
VRespecting the margins of agency: Alzheimer's patients and the capacity to value
p1095
sg7
VPHILOSOPHY & PUBLIC AFFAIRS
p1096
sg9
VJaworska, A
p1097
sg11
V1999
p1098
sg13
VArticle
p1099
sa(dp1100
g3
VWOS:A1993MD16400002
p1101
sg5
VFREEDOM OF EXPRESSION
p1102
sg7
VPHILOSOPHY & PUBLIC AFFAIRS
p1103
sg9
VCOHEN, J
p1104
sg11
V1993
p1105
sg13
VArticle
p1106
sa(dp1107
g3
VWOS:A1996VA43400002
p1108
sg5
VLiberalism, samaritanism, and political legitimacy
p1109
sg7
VPHILOSOPHY & PUBLIC AFFAIRS
p1110
sg9
VWellman, CH
p1111
sg11
V1996
p1112
sg13
VArticle
p1113
sa(dp1114
g3
VWOS:A1972Z066500003
p1115
sg5
VLINGUISTICS OF SUICIDE
p1116
sg7
VPHILOSOPHY & PUBLIC AFFAIRS
p1117
sg9
VDAUBE, D
p1118
sg11
V1972
p1119
sg13
VArticle
p1120
sa(dp1121
g3
VWOS:A1983QL19000002
p1122
sg5
VEVALUATOR RELATIVITY AND CONSEQUENTIAL EVALUATION
p1123
sg7
VPHILOSOPHY & PUBLIC AFFAIRS
p1124
sg9
VSEN, A
p1125
sg11
V1983
p1126
sg13
VArticle
p1127
sa(dp1128
g3
VWOS:000171669200003
p1129
sg5
VDeliberative democracy: A sympathetic comment
p1130
sg7
VPHILOSOPHY & PUBLIC AFFAIRS
p1131
sg9
VFreeman, S
p1132
sg11
V2000
p1133
sg13
VArticle
p1134
sa(dp1135
g3
VWOS:A1986AZJ6300005
p1136
sg5
VLIBERALISM AND GLOBAL JUSTICE - HOFFMANN AND NARDIN ON MORALITY IN INTERNATIONAL-AFFAIRS
p1137
sg7
VPHILOSOPHY & PUBLIC AFFAIRS
p1138
sg9
VPOGGE, TW
p1139
sg11
V1986
p1140
sg13
VReview
p1141
sa(dp1142
g3
VWOS:000087950900003
p1143
sg5
VLiberal neutrality, autonomy, and drug prohibitions
p1144
sg7
VPHILOSOPHY & PUBLIC AFFAIRS
p1145
sg9
VHusak, DN
p1146
sg11
V2000
p1147
sg13
VArticle
p1148
sa(dp1149
g3
VWOS:A1980KL30400007
p1150
sg5
VTHE ROMANCE OF THE NATION-STATE
p1151
sg7
VPHILOSOPHY & PUBLIC AFFAIRS
p1152
sg9
VLUBAN, D
p1153
sg11
V1980
p1154
sg13
VArticle
p1155
sa(dp1156
g3
VWOS:A1979HM28200003
p1157
sg5
VEFFORT, ABILITY, AND PERSONAL DESERT
p1158
sg7
VPHILOSOPHY & PUBLIC AFFAIRS
p1159
sg9
VSHER, G
p1160
sg11
V1979
p1161
sg13
VArticle
p1162
sa(dp1163
g3
VWOS:A1978FC59500004
p1164
sg5
VMORALITY OF PREFERENTIAL HIRING
p1165
sg7
VPHILOSOPHY & PUBLIC AFFAIRS
p1166
sg9
VBOXILL, BR
p1167
sg11
V1978
p1168
sg13
VArticle
p1169
sa(dp1170
g3
VWOS:A1975V833400001
p1171
sg5
VCONVENTIONS AND MORALITY OF WAR
p1172
sg7
VPHILOSOPHY & PUBLIC AFFAIRS
p1173
sg9
VMAVRODES, GI
p1174
sg11
V1975
p1175
sg13
VArticle
p1176
sa(dp1177
g3
VWOS:A1987H340500004
p1178
sg5
VEXPLAINING ASYMMETRY - A PROBLEM FOR PARFIT - REPLY
p1179
sg7
VPHILOSOPHY & PUBLIC AFFAIRS
p1180
sg9
VPARFIT, D
p1181
sg11
V1987
p1182
sg13
VLetter
p1183
sa(dp1184
g3
VWOS:000363883000002
p1185
sg5
VWrongs, Rights, and Third Parties
p1186
sg7
VPHILOSOPHY & PUBLIC AFFAIRS
p1187
sg9
VCornell, Nicolas
p1188
sg11
V2015
p1189
sg13
VArticle
p1190
sa(dp1191
g3
VWOS:000220570000002
p1192
sg5
VRacial profiling
p1193
sg7
VPHILOSOPHY & PUBLIC AFFAIRS
p1194
sg9
VRisse, M
p1195
sg11
V2004
p1196
sg13
VArticle
p1197
sa(dp1198
g3
VWOS:000086503300002
p1199
sg5
VCreation ethics: The moral status of early fetuses and the ethics of abortion
p1200
sg7
VPHILOSOPHY & PUBLIC AFFAIRS
p1201
sg9
VHarman, E
p1202
sg11
V1999
p1203
sg13
VArticle
p1204
sa(dp1205
g3
VWOS:000312244200002
p1206
sg5
VStatistical Evidence, Sensitivity, and the Legal Value of Knowledge
p1207
sg7
VPHILOSOPHY & PUBLIC AFFAIRS
p1208
sg9
VEnoch, David
p1209
sg11
V2012
p1210
sg13
VArticle
p1211
sa(dp1212
g3
VWOS:A1990CN14900001
p1213
sg5
VFACING DIVERSITY - THE CASE OF EPISTEMIC ABSTINENCE
p1214
sg7
VPHILOSOPHY & PUBLIC AFFAIRS
p1215
sg9
VRAZ, J
p1216
sg11
V1990
p1217
sg13
VArticle
p1218
sa(dp1219
g3
VWOS:000288702400001
p1220
sg5
VPerfectionist Liberalism and Political Liberalism
p1221
sg7
VPHILOSOPHY & PUBLIC AFFAIRS
p1222
sg9
VNussbaum, Martha C.
p1223
sg11
V2011
p1224
sg13
VArticle
p1225
sa(dp1226
g3
VWOS:A1980KL30400004
p1227
sg5
VHOW INJUSTICE PAYS
p1228
sg7
VPHILOSOPHY & PUBLIC AFFAIRS
p1229
sg9
VBOXILL, BR
p1230
sg11
V1980
p1231
sg13
VArticle
p1232
sa(dp1233
g3
VWOS:A1979GZ87200002
p1234
sg5
VPRISONERS-DILEMMA IS A NEWCOMB PROBLEM
p1235
sg7
VPHILOSOPHY & PUBLIC AFFAIRS
p1236
sg9
VLEWIS, D
p1237
sg11
V1979
p1238
sg13
VArticle
p1239
sa(dp1240
g3
VWOS:000277010700002
p1241
sg5
VWhat Is Discrimination?
p1242
sg7
VPHILOSOPHY & PUBLIC AFFAIRS
p1243
sg9
VMoreau, Sophia
p1244
sg11
V2010
p1245
sg13
VArticle
p1246
sa(dp1247
g3
VWOS:A1977EE56300005
p1248
sg5
VDO ENTITLEMENTS IMPLY THAT TAXATION IS THEFT
p1249
sg7
VPHILOSOPHY & PUBLIC AFFAIRS
p1250
sg9
VKEARL, JR
p1251
sg11
V1977
p1252
sg13
VArticle
p1253
sa(dp1254
g3
VWOS:000268959500001
p1255
sg5
VDemocracy's Domain
p1256
sg7
VPHILOSOPHY & PUBLIC AFFAIRS
p1257
sg9
VMiller, David
p1258
sg11
V2009
p1259
sg13
VArticle
p1260
sa(dp1261
g3
VWOS:A1974T183900005
p1262
sg5
VITS MINE
p1263
sg7
VPHILOSOPHY & PUBLIC AFFAIRS
p1264
sg9
VEZORSKY, G
p1265
sg11
V1974
p1266
sg13
VArticle
p1267
sa(dp1268
g3
VWOS:A1982MW01200001
p1269
sg5
VRIGHTS AND AGENCY
p1270
sg7
VPHILOSOPHY & PUBLIC AFFAIRS
p1271
sg9
VSEN, A
p1272
sg11
V1982
p1273
sg13
VArticle
p1274
sa(dp1275
g3
VWOS:A1977CX23000002
p1276
sg5
VHUMAN-RIGHTS AND GENERAL WELFARE
p1277
sg7
VPHILOSOPHY & PUBLIC AFFAIRS
p1278
sg9
VLYONS, D
p1279
sg11
V1977
p1280
sg13
VArticle
p1281
sa(dp1282
g3
VWOS:A1976CE26400003
p1283
sg5
VGOOD SAMARITANISM
p1284
sg7
VPHILOSOPHY & PUBLIC AFFAIRS
p1285
sg9
VKLEINIG, J
p1286
sg11
V1976
p1287
sg13
VArticle
p1288
sa(dp1289
g3
VWOS:A1987J379200005
p1290
sg5
VHOBBES AND THE SOCIAL-CONTRACT TRADITION - HAMPTON,J
p1291
sg7
VPHILOSOPHY & PUBLIC AFFAIRS
p1292
sg9
VGAUTHIER, D
p1293
sg11
V1987
p1294
sg13
VBook Review
p1295
sa(dp1296
g3
VWOS:A1989R744800002
p1297
sg5
VJUSTIFYING INTELLECTUAL PROPERTY
p1298
sg7
VPHILOSOPHY & PUBLIC AFFAIRS
p1299
sg9
VHETTINGER, EC
p1300
sg11
V1989
p1301
sg13
VArticle
p1302
sa(dp1303
g3
VWOS:A1986E678900003
p1304
sg5
VRESIDENTIAL RENT CONTROL
p1305
sg7
VPHILOSOPHY & PUBLIC AFFAIRS
p1306
sg9
VRADIN, MJ
p1307
sg11
V1986
p1308
sg13
VArticle
p1309
sa(dp1310
g3
VWOS:A1986AZJ6300002
p1311
sg5
VCAUSATION AND LIABILITY
p1312
sg7
VPHILOSOPHY & PUBLIC AFFAIRS
p1313
sg9
VFISCHER, JM
p1314
sg11
V1986
p1315
sg13
VArticle
p1316
sa(dp1317
g3
VWOS:A1977EE56300002
p1318
sg5
VPHYSICAL ILLNESS AND MENTAL-HEALTH
p1319
sg7
VPHILOSOPHY & PUBLIC AFFAIRS
p1320
sg9
VBROWN, R
p1321
sg11
V1977
p1322
sg13
VArticle
p1323
sa(dp1324
g3
VWOS:000251641000002
p1325
sg5
VCooperation, pervasive impact, and coercion: On the scope (not site) of distributive justice
p1326
sg7
VPHILOSOPHY & PUBLIC AFFAIRS
p1327
sg9
VAbizadeh, Arash
p1328
sg11
V2007
p1329
sg13
VArticle
p1330
sa(dp1331
g3
VWOS:A1993LM87600003
p1332
sg5
VA PRAGMATIC THEORY OF RESPONSIBILITY FOR THE EGALITARIAN PLANNER
p1333
sg7
VPHILOSOPHY & PUBLIC AFFAIRS
p1334
sg9
VROEMER, JE
p1335
sg11
V1993
p1336
sg13
VArticle
p1337
sa(dp1338
g3
VWOS:A1987G067400003
p1339
sg5
VEGOISTS, CONSEQUENTIALISTS, AND THEIR FRIENDS
p1340
sg7
VPHILOSOPHY & PUBLIC AFFAIRS
p1341
sg9
VWILCOX, WH
p1342
sg11
V1987
p1343
sg13
VArticle
p1344
sa(dp1345
g3
VWOS:000411821100002
p1346
sg5
VFuture People, the Non-Identity Problem, and Person-Affecting Principles
p1347
sg7
VPHILOSOPHY & PUBLIC AFFAIRS
p1348
sg9
VParfit, Derek
p1349
sg11
V2017
p1350
sg13
VArticle
p1351
sa(dp1352
g3
VWOS:000226929900001
p1353
sg5
VWhat's wrong with torture?
p1354
sg7
VPHILOSOPHY & PUBLIC AFFAIRS
p1355
sg9
VSussman, D
p1356
sg11
V2005
p1357
sg13
VArticle
p1358
sa(dp1359
g3
VWOS:000401333500003
p1360
sg5
VAggregation, Complaints, and Risk
p1361
sg7
VPHILOSOPHY & PUBLIC AFFAIRS
p1362
sg9
VHorton, Joe
p1363
sg11
V2017
p1364
sg13
VArticle
p1365
sa(dp1366
g3
VWOS:000181839100004
p1367
sg5
VEquality, luck and hierarchy
p1368
sg7
VPHILOSOPHY & PUBLIC AFFAIRS
p1369
sg9
VDworkin, R
p1370
sg11
V2003
p1371
sg13
VArticle
p1372
sa(dp1373
g3
VWOS:000279939300001
p1374
sg5
VLegitimacy without the Duty to Obey
p1375
sg7
VPHILOSOPHY & PUBLIC AFFAIRS
p1376
sg9
VApplbaum, Arthur Isak
p1377
sg11
V2010
p1378
sg13
VArticle
p1379
sa(dp1380
g3
VWOS:000179565200002
p1381
sg5
VTaking people as they are?
p1382
sg7
VPHILOSOPHY & PUBLIC AFFAIRS
p1383
sg9
VCohen, J
p1384
sg11
V2001
p1385
sg13
VArticle
p1386
sa(dp1387
g3
VWOS:000265712300001
p1388
sg5
VAssociative Duties, Global Justice, and the Colonies
p1389
sg7
VPHILOSOPHY & PUBLIC AFFAIRS
p1390
sg9
VYpi, Lea
p1391
sg11
V2009
p1392
sg13
VArticle
p1393
sa(dp1394
g3
VWOS:A1992HE32300001
p1395
sg5
VORIGINAL MEANING, DEMOCRATIC INTERPRETATION, AND THE CONSTITUTION
p1396
sg7
VPHILOSOPHY & PUBLIC AFFAIRS
p1397
sg9
VFREEMAN, S
p1398
sg11
V1992
p1399
sg13
VArticle
p1400
sa(dp1401
g3
VWOS:A1988L866100002
p1402
sg5
VMORALITY, THE SDI, AND LIMITED NUCLEAR-WAR
p1403
sg7
VPHILOSOPHY & PUBLIC AFFAIRS
p1404
sg9
VLEE, S
p1405
sg11
V1988
p1406
sg13
VArticle
p1407
sa(dp1408
g3
VWOS:A1992HY25900004
p1409
sg5
VTOO MUCH PROPERTY
p1410
sg7
VPHILOSOPHY & PUBLIC AFFAIRS
p1411
sg9
VBECKER, LC
p1412
sg11
V1992
p1413
sg13
VArticle
p1414
sa(dp1415
g3
VWOS:A1995TG53100002
p1416
sg5
VBEYOND GOOD AND RIGHT - TOWARD A CONSTRUCTIVE ETHICAL PRAGMATISM
p1417
sg7
VPHILOSOPHY & PUBLIC AFFAIRS
p1418
sg9
VRICHARDSON, HS
p1419
sg11
V1995
p1420
sg13
VArticle
p1421
sa(dp1422
g3
VWOS:A1978FC59500003
p1423
sg5
VMISTAKES
p1424
sg7
VPHILOSOPHY & PUBLIC AFFAIRS
p1425
sg9
VBIENEN, L
p1426
sg11
V1978
p1427
sg13
VArticle
p1428
sa(dp1429
g3
VWOS:A1989R744800004
p1430
sg5
VDEMOCRATIC EDUCATION - GUTMANN,A
p1431
sg7
VPHILOSOPHY & PUBLIC AFFAIRS
p1432
sg9
VSHER, G
p1433
sg11
V1989
p1434
sg13
VBook Review
p1435
sa(dp1436
g3
VWOS:A1992JQ43700003
p1437
sg5
VEQUALITY BETWEEN AGE-GROUPS
p1438
sg7
VPHILOSOPHY & PUBLIC AFFAIRS
p1439
sg9
VMCKERLIE, D
p1440
sg11
V1992
p1441
sg13
VArticle
p1442
sa(dp1443
g3
VWOS:A1987J379200006
p1444
sg5
VHOBBESIAN MORAL AND POLITICAL-THEORY - KAVKA,GS
p1445
sg7
VPHILOSOPHY & PUBLIC AFFAIRS
p1446
sg9
VGAUTHIER, D
p1447
sg11
V1987
p1448
sg13
VBook Review
p1449
sa(dp1450
g3
VWOS:A1994QY41800001
p1451
sg5
VTHE POLITICAL LIBERAL CASE AGAINST THE ESTATE TAX
p1452
sg7
VPHILOSOPHY & PUBLIC AFFAIRS
p1453
sg9
VMCCAFFERY, EJ
p1454
sg11
V1994
p1455
sg13
VArticle
p1456
sa(dp1457
g3
VWOS:000261079400003
p1458
sg5
VReason, Right, and Revolution: Kant and Locke
p1459
sg7
VPHILOSOPHY & PUBLIC AFFAIRS
p1460
sg9
VFlikschuh, Katrin
p1461
sg11
V2008
p1462
sg13
VArticle
p1463
sa(dp1464
g3
VWOS:A1971Y116900001
p1465
sg5
VWORLD-WAR-II - WHY WAS THIS WAR DIFFERENT
p1466
sg7
VPHILOSOPHY & PUBLIC AFFAIRS
p1467
sg9
VWALZER, M
p1468
sg11
V1971
p1469
sg13
VArticle
p1470
sa(dp1471
g3
VWOS:A1974U150400001
p1472
sg5
VIQ - HERITABILITY AND INEQUALITY .1.
p1473
sg7
VPHILOSOPHY & PUBLIC AFFAIRS
p1474
sg9
VBLOCK, NJ
p1475
sg11
V1974
p1476
sg13
VArticle
p1477
sa(dp1478
g3
VWOS:000258361300002
p1479
sg5
VTerrorism and intending evil
p1480
sg7
VPHILOSOPHY & PUBLIC AFFAIRS
p1481
sg9
VKamm, F. M.
p1482
sg11
V2008
p1483
sg13
VArticle
p1484
sa(dp1485
g3
VWOS:000083165600001
p1486
sg5
VDiversity
p1487
sg7
VPHILOSOPHY & PUBLIC AFFAIRS
p1488
sg9
VSher, G
p1489
sg11
V1999
p1490
sg13
VArticle
p1491
sa(dp1492
g3
VWOS:A1972Z066500001
p1493
sg5
VGIFTS AND EXCHANGES
p1494
sg7
VPHILOSOPHY & PUBLIC AFFAIRS
p1495
sg9
VARROW, KJ
p1496
sg11
V1972
p1497
sg13
VArticle
p1498
sa(dp1499
g3
VWOS:000335008500002
p1500
sg5
VOrwell's Battle with Brittain: Vicarious Liability for Unjust Aggression
p1501
sg7
VPHILOSOPHY & PUBLIC AFFAIRS
p1502
sg9
VTadros, Victor
p1503
sg11
V2014
p1504
sg13
VArticle
p1505
sa(dp1506
g3
VWOS:000183924900004
p1507
sg5
VPoverty, well-being, and gender: What counts, who's heard?
p1508
sg7
VPHILOSOPHY & PUBLIC AFFAIRS
p1509
sg9
VOkin, SM
p1510
sg11
V2003
p1511
sg13
VArticle
p1512
sa(dp1513
g3
VWOS:A1990CN14900002
p1514
sg5
VHARMING FUTURE-PEOPLE
p1515
sg7
VPHILOSOPHY & PUBLIC AFFAIRS
p1516
sg9
VHANSER, M
p1517
sg11
V1990
p1518
sg13
VArticle
p1519
sa(dp1520
g3
VWOS:A1973R219800004
p1521
sg5
VALLEGED PARADOX IN THEORY OF DEMOCRACY
p1522
sg7
VPHILOSOPHY & PUBLIC AFFAIRS
p1523
sg9
VGOLDSTICK, D
p1524
sg11
V1973
p1525
sg13
VArticle
p1526
sa(dp1527
g3
VWOS:A1971Y116900002
p1528
sg5
VRELEVANCE OF NUREMBERG
p1529
sg7
VPHILOSOPHY & PUBLIC AFFAIRS
p1530
sg9
VWASSERSTROM, R
p1531
sg11
V1971
p1532
sg13
VArticle
p1533
sa(dp1534
g3
VWOS:A1995TG53100001
p1535
sg5
VPERSONAL RIGHTS AND PUBLIC SPACE
p1536
sg7
VPHILOSOPHY & PUBLIC AFFAIRS
p1537
sg9
VNAGEL, T
p1538
sg11
V1995
p1539
sg13
VArticle
p1540
sa(dp1541
g3
VWOS:A1978FR97100003
p1542
sg5
VJUSTICE, LIMITS TO GROWTH, AND AN EQUILIBRIUM STATE
p1543
sg7
VPHILOSOPHY & PUBLIC AFFAIRS
p1544
sg9
VHUBBARD, FP
p1545
sg11
V1978
p1546
sg13
VArticle
p1547
sa(dp1548
g3
VWOS:A1988P182200001
p1549
sg5
VRAWLS ON TELEOLOGY AND DEONTOLOGY
p1550
sg7
VPHILOSOPHY & PUBLIC AFFAIRS
p1551
sg9
VKYMLICKA, W
p1552
sg11
V1988
p1553
sg13
VArticle
p1554
sa(dp1555
g3
VWOS:A1980KL30400008
p1556
sg5
VSTATISM WITHOUT FOUNDATIONS
p1557
sg7
VPHILOSOPHY & PUBLIC AFFAIRS
p1558
sg9
VDOPPELT, G
p1559
sg11
V1980
p1560
sg13
VArticle
p1561
sa(dp1562
g3
VWOS:A1976CE26400001
p1563
sg5
VEXCUSING RAPE
p1564
sg7
VPHILOSOPHY & PUBLIC AFFAIRS
p1565
sg9
VCURLEY, EM
p1566
sg11
V1976
p1567
sg13
VArticle
p1568
sa(dp1569
g3
VWOS:A1995TQ11600001
p1570
sg5
VWhy are killing and letting die wrong?
p1571
sg7
VPHILOSOPHY & PUBLIC AFFAIRS
p1572
sg9
VHanser, M
p1573
sg11
V1995
p1574
sg13
VArticle
p1575
sa(dp1576
g3
VWOS:A1986D214000001
p1577
sg5
VLEGAL REALISM, CRITICAL LEGAL STUDIES, AND DWORKIN
p1578
sg7
VPHILOSOPHY & PUBLIC AFFAIRS
p1579
sg9
VALTMAN, A
p1580
sg11
V1986
p1581
sg13
VArticle
p1582
sa(dp1583
g3
VWOS:A1986A816300001
p1584
sg5
VINEQUALITY
p1585
sg7
VPHILOSOPHY & PUBLIC AFFAIRS
p1586
sg9
VTEMKIN, LS
p1587
sg11
V1986
p1588
sg13
VArticle
p1589
sa(dp1590
g3
VWOS:A1976CE26400002
p1591
sg5
VGOVERNMENT EXPENDITURES - CASH OR IN-KIND AID
p1592
sg7
VPHILOSOPHY & PUBLIC AFFAIRS
p1593
sg9
VTHUROW, LC
p1594
sg11
V1976
p1595
sg13
VArticle
p1596
sa(dp1597
g3
VWOS:A1980KL30400002
p1598
sg5
VUTILITARIANISM AND VEGETARIANISM
p1599
sg7
VPHILOSOPHY & PUBLIC AFFAIRS
p1600
sg9
VSINGER, P
p1601
sg11
V1980
p1602
sg13
VArticle
p1603
sa(dp1604
g3
VWOS:A1989T787200002
p1605
sg5
V3 GRADES OF SOCIAL INVOLVEMENT
p1606
sg7
VPHILOSOPHY & PUBLIC AFFAIRS
p1607
sg9
VSHER, G
p1608
sg11
V1989
p1609
sg13
VArticle
p1610
sa(dp1611
g3
VWOS:000074544600003
p1612
sg5
VInterpretation and reason
p1613
sg7
VPHILOSOPHY & PUBLIC AFFAIRS
p1614
sg9
VSreenivasan, G
p1615
sg11
V1998
p1616
sg13
VArticle
p1617
sa(dp1618
g3
VWOS:000251641000001
p1619
sg5
VDoes 'Race' have a future?
p1620
sg7
VPHILOSOPHY & PUBLIC AFFAIRS
p1621
sg9
VKitcher, Philip
p1622
sg11
V2007
p1623
sg13
VArticle
p1624
sa(dp1625
g3
VWOS:000236359900001
p1626
sg5
VSaving lives, moral theory, and the claims of individuals
p1627
sg7
VPHILOSOPHY & PUBLIC AFFAIRS
p1628
sg9
VOtsuka, M
p1629
sg11
V2006
p1630
sg13
VArticle
p1631
sa(dp1632
g3
VWOS:A1981KX25500003
p1633
sg5
VPATERNALISM AND AUTONOMY
p1634
sg7
VPHILOSOPHY & PUBLIC AFFAIRS
p1635
sg9
VHUSAK, DN
p1636
sg11
V1981
p1637
sg13
VArticle
p1638
sa(dp1639
g3
VWOS:000444803500005
p1640
sg5
VMercy
p1641
sg7
VPHILOSOPHY & PUBLIC AFFAIRS
p1642
sg9
VPerry, Adam
p1643
sg11
V2018
p1644
sg13
VArticle
p1645
sa(dp1646
g3
VWOS:A1993KL20400001
p1647
sg5
VSPECIAL TIES AND NATURAL DUTIES
p1648
sg7
VPHILOSOPHY & PUBLIC AFFAIRS
p1649
sg9
VWALDRON, J
p1650
sg11
V1993
p1651
sg13
VArticle
p1652
sa(dp1653
g3
VWOS:000418435200004
p1654
sg5
VResisting Rawlsian Political Liberalism
p1655
sg7
VPHILOSOPHY & PUBLIC AFFAIRS
p1656
sg9
VPallikkathayil, Japa
p1657
sg11
V2017
p1658
sg13
VArticle
p1659
sa(dp1660
g3
VWOS:000418419200002
p1661
sg5
VOn Limited Aggregation
p1662
sg7
VPHILOSOPHY & PUBLIC AFFAIRS
p1663
sg9
VTomlin, Patrick
p1664
sg11
V2017
p1665
sg13
VArticle
p1666
sa(dp1667
g3
VWOS:000418419200001
p1668
sg5
VOn the Moral Objection to Coercion
p1669
sg7
VPHILOSOPHY & PUBLIC AFFAIRS
p1670
sg9
VWhite, Stephen J.
p1671
sg11
V2017
p1672
sg13
VArticle
p1673
sa(dp1674
g3
VWOS:000328395700001
p1675
sg5
VThe Ethics of Revolution and Its Implications for the Ethics of Intervention
p1676
sg7
VPHILOSOPHY & PUBLIC AFFAIRS
p1677
sg9
VBuchanan, Allen
p1678
sg11
V2013
p1679
sg13
VArticle
p1680
sa(dp1681
g3
VWOS:A1989AV72300001
p1682
sg5
VARE MARKETS MORALLY FREE ZONES
p1683
sg7
VPHILOSOPHY & PUBLIC AFFAIRS
p1684
sg9
VHAUSMAN, DM
p1685
sg11
V1989
p1686
sg13
VArticle
p1687
sa(dp1688
g3
VWOS:A1979GP31900003
p1689
sg5
VPOPULATION-POLICY AND PUBLIC-GOODS
p1690
sg7
VPHILOSOPHY & PUBLIC AFFAIRS
p1691
sg9
VMILLER, F
p1692
sg11
V1979
p1693
sg13
VArticle
p1694
sa(dp1695
g3
VWOS:A1991GA36400001
p1696
sg5
VGAMES, FAIRNESS, AND RAWLS A THEORY OF JUSTICE
p1697
sg7
VPHILOSOPHY & PUBLIC AFFAIRS
p1698
sg9
VLADEN, A
p1699
sg11
V1991
p1700
sg13
VArticle
p1701
sa(dp1702
g3
VWOS:A1994NV75500001
p1703
sg5
VSAVINGS AND FERTILITY - ETHICAL ISSUES
p1704
sg7
VPHILOSOPHY & PUBLIC AFFAIRS
p1705
sg9
VDASGUPTA, P
p1706
sg11
V1994
p1707
sg13
VArticle
p1708
sa(dp1709
g3
VWOS:000085003400003
p1710
sg5
VRecognition and legitimacy: A reply to Buchanan
p1711
sg7
VPHILOSOPHY & PUBLIC AFFAIRS
p1712
sg9
VNaticchia, C
p1713
sg11
V1999
p1714
sg13
VArticle
p1715
sa(dp1716
g3
VWOS:000081127800001
p1717
sg5
VThe idea of a legitimate state
p1718
sg7
VPHILOSOPHY & PUBLIC AFFAIRS
p1719
sg9
VCopp, D
p1720
sg11
V1999
p1721
sg13
VArticle
p1722
sa(dp1723
g3
VWOS:A1977EE56300006
p1724
sg5
VHIRING WOMEN FACULTY
p1725
sg7
VPHILOSOPHY & PUBLIC AFFAIRS
p1726
sg9
VEZORSKY, G
p1727
sg11
V1977
p1728
sg13
VArticle
p1729
sa(dp1730
g3
VWOS:A1974S447400004
p1731
sg5
VDIFFICULTY WITH DEMOCRACY
p1732
sg7
VPHILOSOPHY & PUBLIC AFFAIRS
p1733
sg9
VHONDERICH, T
p1734
sg11
V1974
p1735
sg13
VArticle
p1736
sa(dp1737
g3
VWOS:000072116500002
p1738
sg5
VLibertarianism, entitlement, and responsibility
p1739
sg7
VPHILOSOPHY & PUBLIC AFFAIRS
p1740
sg9
VPerry, SR
p1741
sg11
V1997
p1742
sg13
VArticle
p1743
sa(dp1744
g3
VWOS:000240663200003
p1745
sg5
VLiberal citizenship and the search for an overlapping consensus: The case of Muslim minorities
p1746
sg7
VPHILOSOPHY & PUBLIC AFFAIRS
p1747
sg9
VMarch, Andrew F.
p1748
sg11
V2006
p1749
sg13
VArticle
p1750
sa(dp1751
g3
VWOS:A1973R220000002
p1752
sg5
VEQUAL TREATMENT AND COMPENSATORY DISCRIMINATION
p1753
sg7
VPHILOSOPHY & PUBLIC AFFAIRS
p1754
sg9
VNAGEL, T
p1755
sg11
V1973
p1756
sg13
VArticle
p1757
sa(dp1758
g3
VWOS:000454442800003
p1759
sg5
VDomination without Inequality? Mutual Domination, Republicanism, and Gun Control
p1760
sg7
VPHILOSOPHY & PUBLIC AFFAIRS
p1761
sg9
VSchmidt, Andreas T.
p1762
sg11
V2018
p1763
sg13
VArticle
p1764
sa(dp1765
g3
VWOS:000228015700001
p1766
sg5
VThe problem of global justice
p1767
sg7
VPHILOSOPHY & PUBLIC AFFAIRS
p1768
sg9
VNagel, T
p1769
sg11
V2005
p1770
sg13
VEditorial Material
p1771
sa(dp1772
g3
VWOS:A1989R744800006
p1773
sg5
VWHAT IS EXPLOITATION - REPLY
p1774
sg7
VPHILOSOPHY & PUBLIC AFFAIRS
p1775
sg9
VROEMER, JE
p1776
sg11
V1989
p1777
sg13
VArticle
p1778
sa(dp1779
g3
VWOS:000328395700003
p1780
sg5
VRestricting Justice: Political Interventions in the Home and in the Market
p1781
sg7
VPHILOSOPHY & PUBLIC AFFAIRS
p1782
sg9
VSchouten, Gina
p1783
sg11
V2013
p1784
sg13
VArticle
p1785
sa(dp1786
g3
VWOS:A1986A816300002
p1787
sg5
VIS INHERITANCE JUSTIFIED
p1788
sg7
VPHILOSOPHY & PUBLIC AFFAIRS
p1789
sg9
VHASLETT, DW
p1790
sg11
V1986
p1791
sg13
VArticle
p1792
sa(dp1793
g3
VWOS:A1977DH33200003
p1794
sg5
VSECONDARY SEXISM AND QUOTA HIRING
p1795
sg7
VPHILOSOPHY & PUBLIC AFFAIRS
p1796
sg9
VWARREN, MA
p1797
sg11
V1977
p1798
sg13
VArticle
p1799
sa(dp1800
g3
VWOS:A1976BV57300002
p1801
sg5
VTACIT CONSENT AND POLITICAL OBLIGATION
p1802
sg7
VPHILOSOPHY & PUBLIC AFFAIRS
p1803
sg9
VSIMMONS, AJ
p1804
sg11
V1976
p1805
sg13
VArticle
p1806
sa(dp1807
g3
VWOS:000181839100001
p1808
sg5
VWho can be wronged?
p1809
sg7
VPHILOSOPHY & PUBLIC AFFAIRS
p1810
sg9
VKumar, R
p1811
sg11
V2003
p1812
sg13
VArticle
p1813
sa(dp1814
g3
VWOS:A1994PZ86700002
p1815
sg5
VDISTRIBUTIVE JUSTICE AND THE COMPLEX STRUCTURE OF OWNERSHIP
p1816
sg7
VPHILOSOPHY & PUBLIC AFFAIRS
p1817
sg9
VCHRISTMAN, J
p1818
sg11
V1994
p1819
sg13
VArticle
p1820
sa(dp1821
g3
VWOS:A1977DH33200005
p1822
sg5
VPLAIN SEX
p1823
sg7
VPHILOSOPHY & PUBLIC AFFAIRS
p1824
sg9
VGOLDMAN, AH
p1825
sg11
V1977
p1826
sg13
VArticle
p1827
sa(dp1828
g3
VWOS:000179565200001
p1829
sg5
VInequality and indignation
p1830
sg7
VPHILOSOPHY & PUBLIC AFFAIRS
p1831
sg9
VUllmann-Margalit, E
p1832
sg11
V2001
p1833
sg13
VArticle
p1834
sa(dp1835
g3
VWOS:000175255900001
p1836
sg5
VFrom freedom to liberty: The construction of a political value
p1837
sg7
VPHILOSOPHY & PUBLIC AFFAIRS
p1838
sg9
VWilliams, B
p1839
sg11
V2001
p1840
sg13
VArticle
p1841
sa(dp1842
g3
VWOS:000265712300003
p1843
sg5
VWhy It Matters That Some Are Worse Off Than Others: An Argument against the Priority View
p1844
sg7
VPHILOSOPHY & PUBLIC AFFAIRS
p1845
sg9
VOtsuka, Michael
p1846
sg11
V2009
p1847
sg13
VArticle
p1848
sa(dp1849
g3
VWOS:A1974S447400003
p1850
sg5
VMARXIST CONCEPTION OF VIOLENCE
p1851
sg7
VPHILOSOPHY & PUBLIC AFFAIRS
p1852
sg9
VHARRIS, J
p1853
sg11
V1974
p1854
sg13
VArticle
p1855
sa(dp1856
g3
VWOS:A1972Z066500002
p1857
sg5
VSELECTIVE CONSCIENTIOUS OBJECTION AND GILLETTE DECISION
p1858
sg7
VPHILOSOPHY & PUBLIC AFFAIRS
p1859
sg9
VMALAMENT, D
p1860
sg11
V1972
p1861
sg13
VArticle
p1862
sa(dp1863
g3
VWOS:A1985ATS8500001
p1864
sg5
VTHE RIGHT TO THREATEN AND THE RIGHT TO PUNISH
p1865
sg7
VPHILOSOPHY & PUBLIC AFFAIRS
p1866
sg9
VQUINN, W
p1867
sg11
V1985
p1868
sg13
VArticle
p1869
sa(dp1870
g3
VWOS:A1982NV01500001
p1871
sg5
VMISSILES AND MORALS - A UTILITARIAN LOOK AT NUCLEAR DETERRENCE
p1872
sg7
VPHILOSOPHY & PUBLIC AFFAIRS
p1873
sg9
VLACKEY, DP
p1874
sg11
V1982
p1875
sg13
VArticle
p1876
sa(dp1877
g3
VWOS:A1983QL19000004
p1878
sg5
VZIMMERMAN ON COERCIVE WAGE OFFERS
p1879
sg7
VPHILOSOPHY & PUBLIC AFFAIRS
p1880
sg9
VALEXANDER, LA
p1881
sg11
V1983
p1882
sg13
VArticle
p1883
sa(dp1884
g3
VWOS:A1980KL30400005
p1885
sg5
V2 CONCEPTS OF RIGHTS
p1886
sg7
VPHILOSOPHY & PUBLIC AFFAIRS
p1887
sg9
VMONTAGUE, P
p1888
sg11
V1980
p1889
sg13
VArticle
p1890
sa(dp1891
g3
VWOS:A1989AV72300003
p1892
sg5
VPOLITICAL OBLIGATION AND GRATITUDE
p1893
sg7
VPHILOSOPHY & PUBLIC AFFAIRS
p1894
sg9
VKLOSKO, G
p1895
sg11
V1989
p1896
sg13
VArticle
p1897
sa(dp1898
g3
VWOS:A1990CN14900004
p1899
sg5
VNUCLEAR DETERRENCE, MORALITY AND REALISM - FINNIS,J, BOYLE,JM, GRISEZ,G
p1900
sg7
VPHILOSOPHY & PUBLIC AFFAIRS
p1901
sg9
VLEE, S
p1902
sg11
V1990
p1903
sg13
VBook Review
p1904
sa(dp1905
g3
VWOS:A1986A816300003
p1906
sg5
VCAN OWNERSHIP BE JUSTIFIED BY NATURAL RIGHTS
p1907
sg7
VPHILOSOPHY & PUBLIC AFFAIRS
p1908
sg9
VCHRISTMAN, J
p1909
sg11
V1986
p1910
sg13
VArticle
p1911
sa(dp1912
g3
VWOS:A1978FR97100005
p1913
sg5
VMEDICAL PATERNALISM
p1914
sg7
VPHILOSOPHY & PUBLIC AFFAIRS
p1915
sg9
VBUCHANAN, A
p1916
sg11
V1978
p1917
sg13
VArticle
p1918
sa(dp1919
g3
VWOS:000250259700004
p1920
sg5
VLuck, leverage, and equality: A bargaining problem for luck egalitarians
p1921
sg7
VPHILOSOPHY & PUBLIC AFFAIRS
p1922
sg9
VSeligman, Matthew
p1923
sg11
V2007
p1924
sg13
VArticle
p1925
sa(dp1926
g3
VWOS:A1977DH33200001
p1927
sg5
VRATIONALITY
p1928
sg7
VPHILOSOPHY & PUBLIC AFFAIRS
p1929
sg9
VGIBSON, M
p1930
sg11
V1977
p1931
sg13
VArticle
p1932
sa(dp1933
g3
VWOS:A1989T787200001
p1934
sg5
VPERSONAL IDENTITY AND THE UNITY OF AGENCY - A KANTIAN RESPONSE TO PARFIT
p1935
sg7
VPHILOSOPHY & PUBLIC AFFAIRS
p1936
sg9
VKORSGAARD, CM
p1937
sg11
V1989
p1938
sg13
VArticle
p1939
sa(dp1940
g3
VWOS:A1973R219900004
p1941
sg5
VPUBLIC INTEREST
p1942
sg7
VPHILOSOPHY & PUBLIC AFFAIRS
p1943
sg9
VBENDITT, TM
p1944
sg11
V1973
p1945
sg13
VArticle
p1946
sa(dp1947
g3
VWOS:000226929900002
p1948
sg5
VProportionality in the morality of war
p1949
sg7
VPHILOSOPHY & PUBLIC AFFAIRS
p1950
sg9
VHurka, T
p1951
sg11
V2005
p1952
sg13
VArticle
p1953
sa(dp1954
g3
VWOS:A1984TK57000002
p1955
sg5
VMORAL SKEPTICISM AND INTERNATIONAL-RELATIONS
p1956
sg7
VPHILOSOPHY & PUBLIC AFFAIRS
p1957
sg9
VCOHEN, M
p1958
sg11
V1984
p1959
sg13
VArticle
p1960
sa(dp1961
g3
VWOS:000308086700001
p1962
sg5
VThe Irrelevance of Coercion, Imposition, and Framing to Distributive Justice
p1963
sg7
VPHILOSOPHY & PUBLIC AFFAIRS
p1964
sg9
VSangiovanni, Andrea
p1965
sg11
V2012
p1966
sg13
VArticle
p1967
sa(dp1968
g3
VWOS:000180834900002
p1969
sg5
V"If you don't like it, leave it": The problem of exit in social contractarian arguments
p1970
sg7
VPHILOSOPHY & PUBLIC AFFAIRS
p1971
sg9
VFried, BH
p1972
sg11
V2003
p1973
sg13
VArticle
p1974
sa(dp1975
g3
VWOS:A1985AGY6000002
p1976
sg5
VDOES IT MATTER IF THE DEATH-PENALTY IS ARBITRARILY ADMINISTERED
p1977
sg7
VPHILOSOPHY & PUBLIC AFFAIRS
p1978
sg9
VNATHANSON, S
p1979
sg11
V1985
p1980
sg13
VArticle
p1981
sa(dp1982
g3
VWOS:A1984RY56100003
p1983
sg5
VTHE RIGHT TO A DECENT MINIMUM OF HEALTH-CARE
p1984
sg7
VPHILOSOPHY & PUBLIC AFFAIRS
p1985
sg9
VBUCHANAN, AE
p1986
sg11
V1984
p1987
sg13
VArticle
p1988
sa(dp1989
g3
VWOS:000273550900001
p1990
sg5
VIdeal and Nonideal Theory
p1991
sg7
VPHILOSOPHY & PUBLIC AFFAIRS
p1992
sg9
VSimmons, A. John
p1993
sg11
V2010
p1994
sg13
VArticle
p1995
sa(dp1996
g3
VWOS:A1981LL23700001
p1997
sg5
VA CRITIQUE AND REINTERPRETATION OF MARX LABOR THEORY OF VALUE
p1998
sg7
VPHILOSOPHY & PUBLIC AFFAIRS
p1999
sg9
VWOLFF, RP
p2000
sg11
V1981
p2001
sg13
VArticle
p2002
sa(dp2003
g3
VWOS:A1985AGY6000005
p2004
sg5
VETHICS AND MARKETS
p2005
sg7
VPHILOSOPHY & PUBLIC AFFAIRS
p2006
sg9
VBENNETT, JG
p2007
sg11
V1985
p2008
sg13
VArticle
p2009
sa(dp2010
g3
VWOS:A1988P182200004
p2011
sg5
VTHREATS AND PUNISHMENT
p2012
sg7
VPHILOSOPHY & PUBLIC AFFAIRS
p2013
sg9
VBROOK, R
p2014
sg11
V1988
p2015
sg13
VNote
p2016
sa(dp2017
g3
VWOS:A1988Q394000002
p2018
sg5
VADVANCE DIRECTIVES AND THE PERSONAL IDENTITY PROBLEM
p2019
sg7
VPHILOSOPHY & PUBLIC AFFAIRS
p2020
sg9
VBUCHANAN, A
p2021
sg11
V1988
p2022
sg13
VArticle
p2023
sa(dp2024
g3
VWOS:A1979GP31900004
p2025
sg5
VCOERCIVE RESTRAINT OF OFFENSIVE ACTIONS
p2026
sg7
VPHILOSOPHY & PUBLIC AFFAIRS
p2027
sg9
VVANDEVEER, D
p2028
sg11
V1979
p2029
sg13
VArticle
p2030
sa(dp2031
g3
VWOS:A1975AC63000002
p2032
sg5
VDISTRIBUTIVE JUSTICE, WELFARE ECONOMICS, AND THEORY OF FAIRNESS
p2033
sg7
VPHILOSOPHY & PUBLIC AFFAIRS
p2034
sg9
VVARIAN, HR
p2035
sg11
V1975
p2036
sg13
VArticle
p2037
sa(dp2038
g3
VWOS:000085003400002
p2039
sg5
VResponsibility, reason, and irrelevant alternatives
p2040
sg7
VPHILOSOPHY & PUBLIC AFFAIRS
p2041
sg9
VHurley, SL
p2042
sg11
V1999
p2043
sg13
VArticle
p2044
sa(dp2045
g3
VWOS:A1982NV01500002
p2046
sg5
VABORTION AND THE DEATH OF THE FETUS
p2047
sg7
VPHILOSOPHY & PUBLIC AFFAIRS
p2048
sg9
VROSS, SL
p2049
sg11
V1982
p2050
sg13
VArticle
p2051
sa(dp2052
g3
VWOS:A1978ES21600001
p2053
sg5
VVOLUNTARY EUTHANASIA AND INALIENABLE RIGHT TO LIFE
p2054
sg7
VPHILOSOPHY & PUBLIC AFFAIRS
p2055
sg9
VFEINBERG, J
p2056
sg11
V1978
p2057
sg13
VArticle
p2058
sa(dp2059
g3
VWOS:A1978FZ62100002
p2060
sg5
VMARX ON DISTRIBUTIVE JUSTICE
p2061
sg7
VPHILOSOPHY & PUBLIC AFFAIRS
p2062
sg9
VHUSAMI, ZI
p2063
sg11
V1978
p2064
sg13
VArticle
p2065
sa(dp2066
g3
VWOS:A1982MW01200002
p2067
sg5
VETHICS AND SOCIOBIOLOGY
p2068
sg7
VPHILOSOPHY & PUBLIC AFFAIRS
p2069
sg9
VSINGER, P
p2070
sg11
V1982
p2071
sg13
VArticle
p2072
sa(dp2073
g3
VWOS:A1978FZ62100001
p2074
sg5
VWALZERS THEORY OF MORALITY IN INTERNATIONAL-RELATIONS
p2075
sg7
VPHILOSOPHY & PUBLIC AFFAIRS
p2076
sg9
VDOPPELT, G
p2077
sg11
V1978
p2078
sg13
VArticle
p2079
sa(dp2080
g3
VWOS:A1988P182200002
p2081
sg5
VPOLITICAL OBLIGATION AND THE ARGUMENT FROM GRATITUDE
p2082
sg7
VPHILOSOPHY & PUBLIC AFFAIRS
p2083
sg9
VWALKER, ADM
p2084
sg11
V1988
p2085
sg13
VArticle
p2086
sa(dp2087
g3
VWOS:A1992KD19700002
p2088
sg5
VPOWER AND WEALTH IN A COMPETITIVE CAPITALIST ECONOMY
p2089
sg7
VPHILOSOPHY & PUBLIC AFFAIRS
p2090
sg9
VBOWLES, S
p2091
sg11
V1992
p2092
sg13
VArticle
p2093
sa(dp2094
g3
VWOS:000238425800005
p2095
sg5
VSaving lives, moral theory, and the claims of individuals (vol 34, pg 109, 2006)
p2096
sg7
VPHILOSOPHY & PUBLIC AFFAIRS
p2097
sg9
VOtsuka, M
p2098
sg11
V2006
p2099
sg13
VCorrection
p2100
sa(dp2101
g3
VWOS:A1974T183900003
p2102
sg5
VCONSPIRACY DOCTRINE - CRITIQUE
p2103
sg7
VPHILOSOPHY & PUBLIC AFFAIRS
p2104
sg9
VABBATE, FJ
p2105
sg11
V1974
p2106
sg13
VArticle
p2107
sa(dp2108
g3
VWOS:A1987H340500003
p2109
sg5
VEXPLAINING ASYMMETRY - A PROBLEM FOR PARFIT
p2110
sg7
VPHILOSOPHY & PUBLIC AFFAIRS
p2111
sg9
VSTERBA, JP
p2112
sg11
V1987
p2113
sg13
VArticle
p2114
sa(dp2115
g3
VWOS:A1972Z066400001
p2116
sg5
VFAMINE, AFFLUENCE, AND MORALITY
p2117
sg7
VPHILOSOPHY & PUBLIC AFFAIRS
p2118
sg9
VSINGER, P
p2119
sg11
V1972
p2120
sg13
VArticle
p2121
sa(dp2122
g3
VWOS:000226929900004
p2123
sg5
VWhy racial profiling is hard to justify: A response to Risse and Zeckhauser
p2124
sg7
VPHILOSOPHY & PUBLIC AFFAIRS
p2125
sg9
VLever, A
p2126
sg11
V2005
p2127
sg13
VArticle
p2128
sa(dp2129
g3
VWOS:000324308200001
p2130
sg5
VRousseau's Critique of Economic Inequality
p2131
sg7
VPHILOSOPHY & PUBLIC AFFAIRS
p2132
sg9
VNeuhouser, Frederick
p2133
sg11
V2013
p2134
sg13
VArticle
p2135
sa(dp2136
g3
VWOS:000188387200001
p2137
sg5
VAuthority and coercion
p2138
sg7
VPHILOSOPHY & PUBLIC AFFAIRS
p2139
sg9
VRipstein, A
p2140
sg11
V2004
p2141
sg13
VArticle
p2142
sa(dp2143
g3
VWOS:000186164300001
p2144
sg5
VBasic structure and the value of equality
p2145
sg7
VPHILOSOPHY & PUBLIC AFFAIRS
p2146
sg9
VJulius, AJ
p2147
sg11
V2003
p2148
sg13
VArticle
p2149
sa(dp2150
g3
VWOS:A1986A816300004
p2151
sg5
VCONSENT, PUNISHMENT, AND PROPORTIONALITY
p2152
sg7
VPHILOSOPHY & PUBLIC AFFAIRS
p2153
sg9
VALEXANDER, L
p2154
sg11
V1986
p2155
sg13
VArticle
p2156
sa(dp2157
g3
VWOS:000270830500004
p2158
sg5
VOrder and Affray: Defensive Privileges in Warfare
p2159
sg7
VPHILOSOPHY & PUBLIC AFFAIRS
p2160
sg9
VEmerton, Patrick
p2161
sg11
V2009
p2162
sg13
VArticle
p2163
sa(dp2164
g3
VWOS:A1991EY78200003
p2165
sg5
VTHE SEPARATION OF CHURCH AND STATE - SOME QUESTIONS FOR AUDI
p2166
sg7
VPHILOSOPHY & PUBLIC AFFAIRS
p2167
sg9
VWEITHMAN, PJ
p2168
sg11
V1991
p2169
sg13
VArticle
p2170
sa(dp2171
g3
VWOS:A1973R220000004
p2172
sg5
VDEMOCRACY, HIGH CULTURE, AND UNIVERSITIES
p2173
sg7
VPHILOSOPHY & PUBLIC AFFAIRS
p2174
sg9
VOLAFSON, FA
p2175
sg11
V1973
p2176
sg13
VArticle
p2177
sa(dp2178
g3
VWOS:A1983QW89100005
p2179
sg5
VDISARMAMENT REVISITED - A REPLY TO KAVKA AND HARDIN
p2180
sg7
VPHILOSOPHY & PUBLIC AFFAIRS
p2181
sg9
VLACKEY, DP
p2182
sg11
V1983
p2183
sg13
VLetter
p2184
sa(dp2185
g3
VWOS:A1981LL23700002
p2186
sg5
VCOERCIVE WAGE OFFERS
p2187
sg7
VPHILOSOPHY & PUBLIC AFFAIRS
p2188
sg9
VZIMMERMAN, D
p2189
sg11
V1981
p2190
sg13
VArticle
p2191
sa(dp2192
g3
VWOS:A1991GR79400001
p2193
sg5
VSELF-DEFENSE
p2194
sg7
VPHILOSOPHY & PUBLIC AFFAIRS
p2195
sg9
VTHOMSON, JJ
p2196
sg11
V1991
p2197
sg13
VArticle
p2198
sa(dp2199
g3
VWOS:000089747700002
p2200
sg5
VOn the site of distributive justice: Reflections on Cohen and Murphy
p2201
sg7
VPHILOSOPHY & PUBLIC AFFAIRS
p2202
sg9
VPogge, TW
p2203
sg11
V2000
p2204
sg13
VArticle
p2205
sa(dp2206
g3
VWOS:A1989R744800005
p2207
sg5
VTHE MORALITY OF SELF-DEFENSE - A REPLY
p2208
sg7
VPHILOSOPHY & PUBLIC AFFAIRS
p2209
sg9
VMONTAGUE, P
p2210
sg11
V1989
p2211
sg13
VArticle
p2212
sa(dp2213
g3
VWOS:A1974T183900001
p2214
sg5
VMARXS DIALECTIC OF LABOR
p2215
sg7
VPHILOSOPHY & PUBLIC AFFAIRS
p2216
sg9
VCOHEN, GA
p2217
sg11
V1974
p2218
sg13
VArticle
p2219
sa(dp2220
g3
VWOS:000240663200001
p2221
sg5
VThe benefits of cooperation
p2222
sg7
VPHILOSOPHY & PUBLIC AFFAIRS
p2223
sg9
VHeath, Joseph
p2224
sg11
V2006
p2225
sg13
VArticle
p2226
sa(dp2227
g3
VWOS:000238425800004
p2228
sg5
VRecent thinking about sexual harassment: A review essay
p2229
sg7
VPHILOSOPHY & PUBLIC AFFAIRS
p2230
sg9
VAnderson, E
p2231
sg11
V2006
p2232
sg13
VArticle
p2233
sa(dp2234
g3
VWOS:000236359900003
p2235
sg5
VExtra Rempublicam Nulla Justitia?
p2236
sg7
VPHILOSOPHY & PUBLIC AFFAIRS
p2237
sg9
VCohen, J
p2238
sg11
V2006
p2239
sg13
VArticle
p2240
sa(dp2241
g3
VWOS:A1979HX56300005
p2242
sg5
VSYMBOLIC PROTEST AND CALCULATED SILENCE
p2243
sg7
VPHILOSOPHY & PUBLIC AFFAIRS
p2244
sg9
VHILL, TE
p2245
sg11
V1979
p2246
sg13
VArticle
p2247
sa(dp2248
g3
VWOS:A1987L168900003
p2249
sg5
VJUSTIFYING SELF-DEFENSE
p2250
sg7
VPHILOSOPHY & PUBLIC AFFAIRS
p2251
sg9
VWASSERMAN, D
p2252
sg11
V1987
p2253
sg13
VArticle
p2254
sa(dp2255
g3
VWOS:A1984TK57000003
p2256
sg5
VTHE SOCIAL TRANSFORMATION OF AMERICAN-MEDICINE - STARR,P
p2257
sg7
VPHILOSOPHY & PUBLIC AFFAIRS
p2258
sg9
VDANIELS, N
p2259
sg11
V1984
p2260
sg13
VBook Review
p2261
sa(dp2262
g3
VWOS:000346475300003
p2263
sg5
VIntegration, Inequality, and Imperatives of Justice: A Review Essay
p2264
sg7
VPHILOSOPHY & PUBLIC AFFAIRS
p2265
sg9
VShelby, Tommie
p2266
sg11
V2014
p2267
sg13
VArticle
p2268
sa(dp2269
g3
VWOS:000324308200002
p2270
sg5
VChildren as Public Goods?
p2271
sg7
VPHILOSOPHY & PUBLIC AFFAIRS
p2272
sg9
VOlsaretti, Serena
p2273
sg11
V2013
p2274
sg13
VArticle
p2275
sa(dp2276
g3
VWOS:A1992HY25900002
p2277
sg5
VCOMMODIFICATION AND COMMERCIAL SURROGACY
p2278
sg7
VPHILOSOPHY & PUBLIC AFFAIRS
p2279
sg9
VARNESON, RJ
p2280
sg11
V1992
p2281
sg13
VArticle
p2282
sa(dp2283
g3
VWOS:A1990EF72900002
p2284
sg5
VWHOSE RIGHT - DWORKIN,RONALD, WOMEN, AND PORNOGRAPHERS
p2285
sg7
VPHILOSOPHY & PUBLIC AFFAIRS
p2286
sg9
VLANGTON, R
p2287
sg11
V1990
p2288
sg13
VArticle
p2289
sa(dp2290
g3
VWOS:000181839100003
p2291
sg5
VConversational exercitives and the force of pornography
p2292
sg7
VPHILOSOPHY & PUBLIC AFFAIRS
p2293
sg9
VMcGowan, MK
p2294
sg11
V2003
p2295
sg13
VArticle
p2296
sa(dp2297
g3
VWOS:A1997XC38000003
p2298
sg5
VDiscounting and restitution
p2299
sg7
VPHILOSOPHY & PUBLIC AFFAIRS
p2300
sg9
VCowen, T
p2301
sg11
V1997
p2302
sg13
VArticle
p2303
sa(dp2304
g3
VWOS:A1983RG07500003
p2305
sg5
VHUMAN FLOURISHING, ETHICS, AND LIBERTY
p2306
sg7
VPHILOSOPHY & PUBLIC AFFAIRS
p2307
sg9
VHARMAN, G
p2308
sg11
V1983
p2309
sg13
VArticle
p2310
sa(dp2311
g3
VWOS:A1973R219800002
p2312
sg5
VRIGHTS AND DEATHS
p2313
sg7
VPHILOSOPHY & PUBLIC AFFAIRS
p2314
sg9
VTHOMSON, JJ
p2315
sg11
V1973
p2316
sg13
VArticle
p2317
sa(dp2318
g3
VWOS:A1979HM28200004
p2319
sg5
VPATERNALISM AND THE MILDLY RETARDED
p2320
sg7
VPHILOSOPHY & PUBLIC AFFAIRS
p2321
sg9
VWIKLER, D
p2322
sg11
V1979
p2323
sg13
VArticle
p2324
sa(dp2325
g3
VWOS:000270830500003
p2326
sg5
VMoral Status and Human Enhancement
p2327
sg7
VPHILOSOPHY & PUBLIC AFFAIRS
p2328
sg9
VBuchanan, Allen
p2329
sg11
V2009
p2330
sg13
VArticle
p2331
sa(dp2332
g3
VWOS:A1993KL20400002
p2333
sg5
VFREE WILL AND THE GENOME PROJECT
p2334
sg7
VPHILOSOPHY & PUBLIC AFFAIRS
p2335
sg9
VGREENSPAN, PS
p2336
sg11
V1993
p2337
sg13
VArticle
p2338
sa(dp2339
g3
VWOS:A1976BV57300005
p2340
sg5
VCONSISTENCY PROOF FOR HISTORICAL MATERIALISM
p2341
sg7
VPHILOSOPHY & PUBLIC AFFAIRS
p2342
sg9
VMOORE, S
p2343
sg11
V1976
p2344
sg13
VNote
p2345
sa(dp2346
g3
VWOS:A1979HX56300002
p2347
sg5
VTHEORY OF GROUPS AND ECONOMIC REDISTRIBUTION
p2348
sg7
VPHILOSOPHY & PUBLIC AFFAIRS
p2349
sg9
VTHUROW, LC
p2350
sg11
V1979
p2351
sg13
VArticle
p2352
sa(dp2353
g3
VWOS:A1997XC38000002
p2354
sg5
VComparing harms: Headaches and human lives
p2355
sg7
VPHILOSOPHY & PUBLIC AFFAIRS
p2356
sg9
VNorcross, A
p2357
sg11
V1997
p2358
sg13
VArticle
p2359
sa(dp2360
g3
VWOS:A1983PY26400006
p2361
sg5
VCORRECTION
p2362
sg7
VPHILOSOPHY & PUBLIC AFFAIRS
p2363
sg9
VROEMER, JE
p2364
sg11
V1983
p2365
sg13
VCorrection, Addition
p2366
sa(dp2367
g3
VWOS:A1975AZ83300001
p2368
sg5
VIDEOLOGY OF ECONOMIC-ANALYSIS OF LAW
p2369
sg7
VPHILOSOPHY & PUBLIC AFFAIRS
p2370
sg9
VBAKER, CE
p2371
sg11
V1975
p2372
sg13
VArticle
p2373
sa(dp2374
g3
VWOS:A1982PN05700002
p2375
sg5
VPRESENT SAKES AND FUTURE-PROSPECTS - THE STATUS OF EARLY ABORTION
p2376
sg7
VPHILOSOPHY & PUBLIC AFFAIRS
p2377
sg9
VBASSEN, P
p2378
sg11
V1982
p2379
sg13
VArticle
p2380
sa(dp2381
g3
VWOS:000177599500001
p2382
sg5
VThe scope of moral requirement
p2383
sg7
VPHILOSOPHY & PUBLIC AFFAIRS
p2384
sg9
VHerman, B
p2385
sg11
V2001
p2386
sg13
VArticle
p2387
sa(dp2388
g3
VWOS:000254669400004
p2389
sg5
VAgainst self-ownership: There are no fact-insensitive ownership rights over one's body
p2390
sg7
VPHILOSOPHY & PUBLIC AFFAIRS
p2391
sg9
VLippert-Rasmussen, Kasper
p2392
sg11
V2008
p2393
sg13
VArticle
p2394
sa(dp2395
g3
VWOS:000254669400001
p2396
sg5
VProperty rights and the resource curse
p2397
sg7
VPHILOSOPHY & PUBLIC AFFAIRS
p2398
sg9
VWenar, Leif
p2399
sg11
V2008
p2400
sg13
VArticle
p2401
sa(dp2402
g3
VWOS:A1990DQ43000001
p2403
sg5
VPROMISES AND PRACTICES
p2404
sg7
VPHILOSOPHY & PUBLIC AFFAIRS
p2405
sg9
VSCANLON, T
p2406
sg11
V1990
p2407
sg13
VArticle
p2408
sa(dp2409
g3
VWOS:A1976CN02500001
p2410
sg5
VNOZICK ON RIGHTS, LIBERTY, AND PROPERTY
p2411
sg7
VPHILOSOPHY & PUBLIC AFFAIRS
p2412
sg9
VSCANLON, T
p2413
sg11
V1976
p2414
sg13
VArticle
p2415
sa(dp2416
g3
VWOS:000245944500004
p2417
sg5
VHarm versus sovereignty: A reply to Ripstein
p2418
sg7
VPHILOSOPHY & PUBLIC AFFAIRS
p2419
sg9
VBird, Colin
p2420
sg11
V2007
p2421
sg13
VEditorial Material
p2422
sa(dp2423
g3
VWOS:A1980KL30400001
p2424
sg5
VUTILITARIANISM, VEGETARIANISM, AND ANIMAL RIGHTS
p2425
sg7
VPHILOSOPHY & PUBLIC AFFAIRS
p2426
sg9
VREGAN, T
p2427
sg11
V1980
p2428
sg13
VArticle
p2429
sa(dp2430
g3
VWOS:000230246700001
p2431
sg5
VThe nature of rights
p2432
sg7
VPHILOSOPHY & PUBLIC AFFAIRS
p2433
sg9
VWenar, L
p2434
sg11
V2005
p2435
sg13
VArticle
p2436
sa(dp2437
g3
VWOS:A1978FC59500001
p2438
sg5
VRECOMBINANT DNA DEBATE
p2439
sg7
VPHILOSOPHY & PUBLIC AFFAIRS
p2440
sg9
VSTICH, SP
p2441
sg11
V1978
p2442
sg13
VArticle
p2443
sa(dp2444
g3
VWOS:000080272000002
p2445
sg5
VThe disfranchisement of the elderly, and other attempts to secure intergenerational justice
p2446
sg7
VPHILOSOPHY & PUBLIC AFFAIRS
p2447
sg9
VVan Parijs, P
p2448
sg11
V1998
p2449
sg13
VArticle
p2450
sa(dp2451
g3
VWOS:000341240000001
p2452
sg5
VUtopophobia
p2453
sg7
VPHILOSOPHY & PUBLIC AFFAIRS
p2454
sg9
VEstlund, David
p2455
sg11
V2014
p2456
sg13
VArticle
p2457
sa(dp2458
g3
VWOS:A1990EF72900001
p2459
sg5
VSPECIFYING NORMS AS A WAY TO RESOLVE CONCRETE ETHICAL PROBLEMS
p2460
sg7
VPHILOSOPHY & PUBLIC AFFAIRS
p2461
sg9
VRICHARDSON, HS
p2462
sg11
V1990
p2463
sg13
VArticle
p2464
sa(dp2465
g3
VWOS:000072116500001
p2466
sg5
VLimits to health care: Fair procedures, democratic deliberation, and the legitimacy problem for insurers
p2467
sg7
VPHILOSOPHY & PUBLIC AFFAIRS
p2468
sg9
VDaniels, N
p2469
sg11
V1997
p2470
sg13
VArticle
p2471
sa(dp2472
g3
VWOS:000302619800002
p2473
sg5
VRestorative Justice, Retributive Justice, and the South African Truth and Reconciliation Commission
p2474
sg7
VPHILOSOPHY & PUBLIC AFFAIRS
p2475
sg9
VAllais, Lucy
p2476
sg11
V2011
p2477
sg13
VArticle
p2478
sa(dp2479
g3
VWOS:A1987L168900001
p2480
sg5
VAUTONOMY AND AUTHORITY
p2481
sg7
VPHILOSOPHY & PUBLIC AFFAIRS
p2482
sg9
VMCMAHON, C
p2483
sg11
V1987
p2484
sg13
VArticle
p2485
sa(dp2486
g3
VWOS:A1990EF72900003
p2487
sg5
VINTERPRETATION AND SOCIAL CRITICISM - WALZER,M
p2488
sg7
VPHILOSOPHY & PUBLIC AFFAIRS
p2489
sg9
VBARRY, B
p2490
sg11
V1990
p2491
sg13
VBook Review
p2492
sa(dp2493
g3
VWOS:000177599500002
p2494
sg5
VDistributive justice, state coercion, and autonomy
p2495
sg7
VPHILOSOPHY & PUBLIC AFFAIRS
p2496
sg9
VBlake, M
p2497
sg11
V2001
p2498
sg13
VArticle
p2499
sa(dp2500
g3
VWOS:000176431900001
p2501
sg5
VIlliberal libertarians: Why libertarianism is not a liberal view
p2502
sg7
VPHILOSOPHY & PUBLIC AFFAIRS
p2503
sg9
VFreeman, S
p2504
sg11
V2001
p2505
sg13
VArticle
p2506
sa(dp2507
g3
VWOS:000166607600001
p2508
sg5
VPaternalism, unconscionability doctrine, and accommodation
p2509
sg7
VPHILOSOPHY & PUBLIC AFFAIRS
p2510
sg9
VShiffrin, SV
p2511
sg11
V2000
p2512
sg13
VArticle
p2513
sa(dp2514
g3
VWOS:A1972Z066500004
p2515
sg5
VWALZERS OBLIGATIONS
p2516
sg7
VPHILOSOPHY & PUBLIC AFFAIRS
p2517
sg9
VEUBEN, JP
p2518
sg11
V1972
p2519
sg13
VArticle
p2520
sa(dp2521
g3
VWOS:A1972Z066400003
p2522
sg5
VLIBERALISM AND DISOBEDIENCE
p2523
sg7
VPHILOSOPHY & PUBLIC AFFAIRS
p2524
sg9
VCOHEN, M
p2525
sg11
V1972
p2526
sg13
VArticle
p2527
sa(dp2528
g3
VWOS:A1980JM49100005
p2529
sg5
VTHE CONTRACTUAL ARGUMENT FOR WITHHOLDING MEDICAL INFORMATION
p2530
sg7
VPHILOSOPHY & PUBLIC AFFAIRS
p2531
sg9
VVANDEVEER, D
p2532
sg11
V1980
p2533
sg13
VArticle
p2534
sa(dp2535
g3
VWOS:000073921600003
p2536
sg5
VHow to avoid being driven to consequentialism: A comment on Norcross
p2537
sg7
VPHILOSOPHY & PUBLIC AFFAIRS
p2538
sg9
VRidge, M
p2539
sg11
V1998
p2540
sg13
VArticle
p2541
sa(dp2542
g3
VWOS:A1985AAF8800005
p2543
sg5
VARE WORKERS FORCED TO SELL THEIR LABOR POWER
p2544
sg7
VPHILOSOPHY & PUBLIC AFFAIRS
p2545
sg9
VCOHEN, GA
p2546
sg11
V1985
p2547
sg13
VArticle
p2548
sa(dp2549
g3
VWOS:000086503300001
p2550
sg5
VDefending the moral moderate: Contractualism and common sense
p2551
sg7
VPHILOSOPHY & PUBLIC AFFAIRS
p2552
sg9
VKumar, R
p2553
sg11
V1999
p2554
sg13
VArticle
p2555
sa(dp2556
g3
VWOS:A1982NK18500002
p2557
sg5
VFUTURE GENERATIONS - FURTHER PROBLEMS
p2558
sg7
VPHILOSOPHY & PUBLIC AFFAIRS
p2559
sg9
VPARFIT, D
p2560
sg11
V1982
p2561
sg13
VArticle
p2562
sa(dp2563
g3
VWOS:000258361300001
p2564
sg5
VWhat should egalitarians believe?
p2565
sg7
VPHILOSOPHY & PUBLIC AFFAIRS
p2566
sg9
VO'Neill, Martin
p2567
sg11
V2008
p2568
sg13
VArticle
p2569
sa(dp2570
g3
VWOS:A1985AAF8800004
p2571
sg5
VCOHEN ON PROLETARIAN UNFREEDOM
p2572
sg7
VPHILOSOPHY & PUBLIC AFFAIRS
p2573
sg9
VBRENKERT, GG
p2574
sg11
V1985
p2575
sg13
VArticle
p2576
sa(dp2577
g3
VWOS:000250259700002
p2578
sg5
VEnvironmental preservation and second-order procrastination
p2579
sg7
VPHILOSOPHY & PUBLIC AFFAIRS
p2580
sg9
VAndreou, Chrisoula
p2581
sg11
V2007
p2582
sg13
VArticle
p2583
sa(dp2584
g3
VWOS:000250259700003
p2585
sg5
VFreedom from fear
p2586
sg7
VPHILOSOPHY & PUBLIC AFFAIRS
p2587
sg9
VGoodin, Robert E.
p2588
sg11
V2007
p2589
sg13
VEditorial Material
p2590
sa(dp2591
g3
VWOS:A1997WK48600002
p2592
sg5
VTheories of secession
p2593
sg7
VPHILOSOPHY & PUBLIC AFFAIRS
p2594
sg9
VBuchanan, A
p2595
sg11
V1997
p2596
sg13
VArticle
p2597
sa(dp2598
g3
VWOS:000234489400002
p2599
sg5
VThe Doctrine of Illicit Intentions
p2600
sg7
VPHILOSOPHY & PUBLIC AFFAIRS
p2601
sg9
VWalen, A
p2602
sg11
V2006
p2603
sg13
VArticle
p2604
sa(dp2605
g3
VWOS:000418435200002
p2606
sg5
VDefensive Harm, Consent, and Intervention
p2607
sg7
VPHILOSOPHY & PUBLIC AFFAIRS
p2608
sg9
VParry, Jonathan
p2609
sg11
V2017
p2610
sg13
VArticle
p2611
sa(dp2612
g3
VWOS:000346495900002
p2613
sg5
VDemocratic Equality and Political Authority
p2614
sg7
VPHILOSOPHY & PUBLIC AFFAIRS
p2615
sg9
VViehoff, Daniel
p2616
sg11
V2014
p2617
sg13
VArticle
p2618
sa(dp2619
g3
VWOS:000335008500003
p2620
sg5
VRational Persuasion as Paternalism
p2621
sg7
VPHILOSOPHY & PUBLIC AFFAIRS
p2622
sg9
VTsai, George
p2623
sg11
V2014
p2624
sg13
VArticle
p2625
sa(dp2626
g3
VWOS:A1984RY56100002
p2627
sg5
VABORTION - IDENTITY AND LOSS
p2628
sg7
VPHILOSOPHY & PUBLIC AFFAIRS
p2629
sg9
VQUINN, W
p2630
sg11
V1984
p2631
sg13
VArticle
p2632
sa(dp2633
g3
VWOS:A1992JQ43700001
p2634
sg5
V2 QUESTIONS ABOUT SURROGACY AND EXPLOITATION
p2635
sg7
VPHILOSOPHY & PUBLIC AFFAIRS
p2636
sg9
VWERTHEIMER, A
p2637
sg11
V1992
p2638
sg13
VArticle
p2639
sa(dp2640
g3
VWOS:A1983RG07500004
p2641
sg5
VKANT, LIBERAL LEGACIES, AND FOREIGN-AFFAIRS .2.
p2642
sg7
VPHILOSOPHY & PUBLIC AFFAIRS
p2643
sg9
VDOYLE, MW
p2644
sg11
V1983
p2645
sg13
VArticle
p2646
sa(dp2647
g3
VWOS:A1989R744800001
p2648
sg5
VJUSTICE AND THE PROBLEM OF STABILITY
p2649
sg7
VPHILOSOPHY & PUBLIC AFFAIRS
p2650
sg9
VMCCLENNEN, EF
p2651
sg11
V1989
p2652
sg13
VArticle
p2653
sa(dp2654
g3
VWOS:A1997WK48600004
p2655
sg5
VA relatively plausible principle of beneficence: Reply
p2656
sg7
VPHILOSOPHY & PUBLIC AFFAIRS
p2657
sg9
VMurphy, LB
p2658
sg11
V1997
p2659
sg13
VArticle
p2660
sa(dp2661
g3
VWOS:000176431900003
p2662
sg5
VRecent work on addiction and responsible agency
p2663
sg7
VPHILOSOPHY & PUBLIC AFFAIRS
p2664
sg9
VYaffe, G
p2665
sg11
V2001
p2666
sg13
VArticle
p2667
sa(dp2668
g3
VWOS:A1977CX23000005
p2669
sg5
VHARE, ABORTION, AND GOLDEN RULE
p2670
sg7
VPHILOSOPHY & PUBLIC AFFAIRS
p2671
sg9
VSHER, G
p2672
sg11
V1977
p2673
sg13
VArticle
p2674
sa(dp2675
g3
VWOS:A1978ES21600004
p2676
sg5
VVALUE OF LIFE
p2677
sg7
VPHILOSOPHY & PUBLIC AFFAIRS
p2678
sg9
VROUPAS, TG
p2679
sg11
V1978
p2680
sg13
VArticle
p2681
sa(dp2682
g3
VWOS:A1973R526300002
p2683
sg5
VDISTRIBUTIVE JUSTICE
p2684
sg7
VPHILOSOPHY & PUBLIC AFFAIRS
p2685
sg9
VNOZICK, R
p2686
sg11
V1973
p2687
sg13
VArticle
p2688
sa(dp2689
g3
VWOS:A1996UH47000002
p2690
sg5
VMaking sense of sexual harassment law
p2691
sg7
VPHILOSOPHY & PUBLIC AFFAIRS
p2692
sg9
VAltman, A
p2693
sg11
V1996
p2694
sg13
VArticle
p2695
sa(dp2696
g3
VWOS:000086503300003
p2697
sg5
VGame theory, evolution, and justice
p2698
sg7
VPHILOSOPHY & PUBLIC AFFAIRS
p2699
sg9
VVanderschraaf, P
p2700
sg11
V1999
p2701
sg13
VArticle
p2702
sa(dp2703
g3
VWOS:A1976CN02500005
p2704
sg5
VJUSTICE AND FUTURE GENERATIONS
p2705
sg7
VPHILOSOPHY & PUBLIC AFFAIRS
p2706
sg9
VHUBIN, DC
p2707
sg11
V1976
p2708
sg13
VArticle
p2709
sa(dp2710
g3
VWOS:A1993KL20400003
p2711
sg5
VFAIRNESS AND CORES - A COMMENT ON LADEN
p2712
sg7
VPHILOSOPHY & PUBLIC AFFAIRS
p2713
sg9
VGAUTHIER, D
p2714
sg11
V1993
p2715
sg13
VNote
p2716
sa(dp2717
g3
VWOS:A1972Z066300002
p2718
sg5
VUTILITARIANISM AND RULES OF WAR
p2719
sg7
VPHILOSOPHY & PUBLIC AFFAIRS
p2720
sg9
VBRANDT, RB
p2721
sg11
V1972
p2722
sg13
VArticle
p2723
sa(dp2724
g3
VWOS:000089747700003
p2725
sg5
VBeyond Homo economicus: New developments in theories of social norms
p2726
sg7
VPHILOSOPHY & PUBLIC AFFAIRS
p2727
sg9
VAnderson, E
p2728
sg11
V2000
p2729
sg13
VArticle
p2730
sa(dp2731
g3
VWOS:000258361300003
p2732
sg5
VPublic education and intelligent design
p2733
sg7
VPHILOSOPHY & PUBLIC AFFAIRS
p2734
sg9
VNagel, Thomas
p2735
sg11
V2008
p2736
sg13
VArticle
p2737
sa(dp2738
g3
VWOS:A1982MW01200003
p2739
sg5
VWOMEN AND THE MAKING OF THE SENTIMENTAL FAMILY
p2740
sg7
VPHILOSOPHY & PUBLIC AFFAIRS
p2741
sg9
VOKIN, SM
p2742
sg11
V1982
p2743
sg13
VArticle
p2744
sa(dp2745
g3
VWOS:A1984TK57000001
p2746
sg5
VTHE INALIENABILITY OF AUTONOMY
p2747
sg7
VPHILOSOPHY & PUBLIC AFFAIRS
p2748
sg9
VKUFLIK, A
p2749
sg11
V1984
p2750
sg13
VArticle
p2751
sa(dp2752
g3
VWOS:A1980JM49100002
p2753
sg5
VIN DEFENSE OF A HOBBESIAN CONCEPTION OF LAW
p2754
sg7
VPHILOSOPHY & PUBLIC AFFAIRS
p2755
sg9
VLADENSON, R
p2756
sg11
V1980
p2757
sg13
VArticle
p2758
sa(dp2759
g3
VWOS:A1975V833400002
p2760
sg5
VCLASSICAL LEGAL POSITIVISM AT NUREMBERG
p2761
sg7
VPHILOSOPHY & PUBLIC AFFAIRS
p2762
sg9
VPAULSON, SL
p2763
sg11
V1975
p2764
sg13
VArticle
p2765
sa(dp2766
g3
VWOS:A1989AV72300002
p2767
sg5
VACTIONS, INTENTIONS, AND CONSEQUENCES - THE DOCTRINE OF DOUBLE EFFECT
p2768
sg7
VPHILOSOPHY & PUBLIC AFFAIRS
p2769
sg9
VQUINN, WS
p2770
sg11
V1989
p2771
sg13
VArticle
p2772
sa(dp2773
g3
VWOS:A1981KX25500005
p2774
sg5
VMEDICAL PROGRESS AND NATIONAL-HEALTH CARE
p2775
sg7
VPHILOSOPHY & PUBLIC AFFAIRS
p2776
sg9
VLOMASKY, LE
p2777
sg11
V1981
p2778
sg13
VArticle
p2779
sa(dp2780
g3
VWOS:A1982PN05700004
p2781
sg5
VHUMAN-RIGHTS, COMMAND RESPONSIBILITY, AND WALZER JUST WAR THEORY
p2782
sg7
VPHILOSOPHY & PUBLIC AFFAIRS
p2783
sg9
VDUBIK, JM
p2784
sg11
V1982
p2785
sg13
VArticle
p2786
sa(dp2787
g3
VWOS:000226929900003
p2788
sg5
VThe indeterminacy of republican policy
p2789
sg7
VPHILOSOPHY & PUBLIC AFFAIRS
p2790
sg9
VMcMahon, C
p2791
sg11
V2005
p2792
sg13
VArticle
p2793
sa(dp2794
g3
VWOS:000220570000003
p2795
sg5
VBlackness and blood: Interpreting African American identity
p2796
sg7
VPHILOSOPHY & PUBLIC AFFAIRS
p2797
sg9
VMcPherson, LK
p2798
sg11
V2004
p2799
sg13
VArticle
p2800
sa(dp2801
g3
VWOS:000363883000001
p2802
sg5
VThe Apologetic Stance
p2803
sg7
VPHILOSOPHY & PUBLIC AFFAIRS
p2804
sg9
VHelmreich, Jeffrey S.
p2805
sg11
V2015
p2806
sg13
VArticle
p2807
sa(dp2808
g3
VWOS:000341240000003
p2809
sg5
VImmigration, Jurisdiction, and History
p2810
sg7
VPHILOSOPHY & PUBLIC AFFAIRS
p2811
sg9
VKates, Michael
p2812
sg11
V2014
p2813
sg13
VArticle
p2814
sa(dp2815
g3
VWOS:A1977CX23000003
p2816
sg5
VSOCIAL-CONTRACT AS IDEOLOGY
p2817
sg7
VPHILOSOPHY & PUBLIC AFFAIRS
p2818
sg9
VGAUTHIER, D
p2819
sg11
V1977
p2820
sg13
VArticle
p2821
sa(dp2822
g3
VWOS:A1988M707600001
p2823
sg5
VIVF TECHNOLOGY AND THE ARGUMENT FROM POTENTIAL
p2824
sg7
VPHILOSOPHY & PUBLIC AFFAIRS
p2825
sg9
VSINGER, P
p2826
sg11
V1988
p2827
sg13
VArticle
p2828
sa(dp2829
g3
VWOS:A1974T183900002
p2830
sg5
VCRIMINAL ATTEMPT AND THEORY OF LAW OF CRIMES
p2831
sg7
VPHILOSOPHY & PUBLIC AFFAIRS
p2832
sg9
VBECKER, LC
p2833
sg11
V1974
p2834
sg13
VArticle
p2835
sa(dp2836
g3
VWOS:000085003400004
p2837
sg5
VRule-governed institutions versus act-consequentialism: A rejoinder to Naticchia
p2838
sg7
VPHILOSOPHY & PUBLIC AFFAIRS
p2839
sg9
VBuchanan, A
p2840
sg11
V1999
p2841
sg13
VArticle
p2842
sa(dp2843
g3
VWOS:A1991FP72300001
p2844
sg5
VWHY SURFERS SHOULD BE FED - THE LIBERAL CASE FOR AN UNCONDITIONAL BASIC INCOME
p2845
sg7
VPHILOSOPHY & PUBLIC AFFAIRS
p2846
sg9
VVANPARIJS, P
p2847
sg11
V1991
p2848
sg13
VArticle
p2849
sa(dp2850
g3
VWOS:A1977EE56300004
p2851
sg5
VRELATIVITY OF INJURY
p2852
sg7
VPHILOSOPHY & PUBLIC AFFAIRS
p2853
sg9
VLIEBERMAN, JK
p2854
sg11
V1977
p2855
sg13
VArticle
p2856
sa(dp2857
g3
VWOS:A1974S447400001
p2858
sg5
VWAR CRIMES AND INDUCTION - CASE FOR SELECTIVE NONCONSCIENTIOUS OBJECTION
p2859
sg7
VPHILOSOPHY & PUBLIC AFFAIRS
p2860
sg9
VPEPPERS, DA
p2861
sg11
V1974
p2862
sg13
VArticle
p2863
sa(dp2864
g3
VWOS:A1985APA8500002
p2865
sg5
VBETWEEN CONSENTING ADULTS
p2866
sg7
VPHILOSOPHY & PUBLIC AFFAIRS
p2867
sg9
VONEILL, O
p2868
sg11
V1985
p2869
sg13
VArticle
p2870
sa(dp2871
g3
VWOS:A1984RY56100005
p2872
sg5
VHUNTINGTON ON DEMOCRATIC-POLITICS - A REVIEW OF AMERICAN-POLITICS - THE PROMISE OF DISHARMONY
p2873
sg7
VPHILOSOPHY & PUBLIC AFFAIRS
p2874
sg9
VNELSON, W
p2875
sg11
V1984
p2876
sg13
VArticle
p2877
sa(dp2878
g3
VWOS:A1995TQ11600002
p2879
sg5
VThe cunning of trust
p2880
sg7
VPHILOSOPHY & PUBLIC AFFAIRS
p2881
sg9
VPettit, P
p2882
sg11
V1995
p2883
sg13
VArticle
p2884
sa(dp2885
g3
VWOS:A1978FR97100001
p2886
sg5
VINNUMERATE ETHICS
p2887
sg7
VPHILOSOPHY & PUBLIC AFFAIRS
p2888
sg9
VPARFIT, D
p2889
sg11
V1978
p2890
sg13
VArticle
p2891
sa(dp2892
g3
VWOS:A1975AC63000001
p2893
sg5
VABORTION AND GOLDEN RULE
p2894
sg7
VPHILOSOPHY & PUBLIC AFFAIRS
p2895
sg9
VHARE, RM
p2896
sg11
V1975
p2897
sg13
VArticle
p2898
sa(dp2899
g3
VWOS:A1989AV72300006
p2900
sg5
VMACINTYRE ON TRADITIONS
p2901
sg7
VPHILOSOPHY & PUBLIC AFFAIRS
p2902
sg9
VANNAS, J
p2903
sg11
V1989
p2904
sg13
VArticle
p2905
sa(dp2906
g3
VWOS:A1981KX25500004
p2907
sg5
VDEATH, MISFORTUNE AND SPECIES INEQUALITY
p2908
sg7
VPHILOSOPHY & PUBLIC AFFAIRS
p2909
sg9
VCIGMAN, R
p2910
sg11
V1981
p2911
sg13
VArticle
p2912
sa(dp2913
g3
VWOS:000261079400001
p2914
sg5
VMorality Unbounded
p2915
sg7
VPHILOSOPHY & PUBLIC AFFAIRS
p2916
sg9
VHerman, Barbara
p2917
sg11
V2008
p2918
sg13
VArticle
p2919
sa(dp2920
g3
VWOS:000259391600002
p2921
sg5
VWhat would a Rawlsian ethos of justice look like?
p2922
sg7
VPHILOSOPHY & PUBLIC AFFAIRS
p2923
sg9
VTitelbaum, Michael G.
p2924
sg11
V2008
p2925
sg13
VArticle
p2926
sa(dp2927
g3
VWOS:000254669400002
p2928
sg5
VWiping the slate clean: The heart of forgiveness
p2929
sg7
VPHILOSOPHY & PUBLIC AFFAIRS
p2930
sg9
VAllais, Lucy
p2931
sg11
V2008
p2932
sg13
VArticle
p2933
sa(dp2934
g3
VWOS:A1971Y116900003
p2935
sg5
VDEFENSE OF ABORTION
p2936
sg7
VPHILOSOPHY & PUBLIC AFFAIRS
p2937
sg9
VTHOMSON, JJ
p2938
sg11
V1971
p2939
sg13
VArticle
p2940
sa(dp2941
g3
VWOS:A1972Z066400005
p2942
sg5
VTHOMSON ON ABORTION
p2943
sg7
VPHILOSOPHY & PUBLIC AFFAIRS
p2944
sg9
VBRODY, B
p2945
sg11
V1972
p2946
sg13
VArticle
p2947
sa(dp2948
g3
VWOS:A1986E678900002
p2949
sg5
VTHE RIGHT TO LIE - KANT ON DEALING WITH EVIL
p2950
sg7
VPHILOSOPHY & PUBLIC AFFAIRS
p2951
sg9
VKORSGAARD, CM
p2952
sg11
V1986
p2953
sg13
VArticle
p2954
sa(dp2955
g3
VWOS:000230246700002
p2956
sg5
VRights and the doctrine of doing and allowing
p2957
sg7
VPHILOSOPHY & PUBLIC AFFAIRS
p2958
sg9
VDraper, K
p2959
sg11
V2005
p2960
sg13
VArticle
p2961
sa(dp2962
g3
VWOS:A1980KL30400006
p2963
sg5
VNON-INTERVENTION AND COMMUNAL INTEGRITY
p2964
sg7
VPHILOSOPHY & PUBLIC AFFAIRS
p2965
sg9
VBEITZ, CR
p2966
sg11
V1980
p2967
sg13
VArticle
p2968
sa(dp2969
g3
VWOS:000391950500001
p2970
sg5
VPermissibility in a World of Wrongdoing
p2971
sg7
VPHILOSOPHY & PUBLIC AFFAIRS
p2972
sg9
VTadros, Victor
p2973
sg11
V2016
p2974
sg13
VArticle
p2975
sa(dp2976
g3
VWOS:000312244200001
p2977
sg5
VThe Morality of Blackmail
p2978
sg7
VPHILOSOPHY & PUBLIC AFFAIRS
p2979
sg9
VShaw, James R.
p2980
sg11
V2012
p2981
sg13
VArticle
p2982
sa(dp2983
g3
VWOS:000308086700003
p2984
sg5
VProductive Justice
p2985
sg7
VPHILOSOPHY & PUBLIC AFFAIRS
p2986
sg9
VStanczyk, Lucas
p2987
sg11
V2012
p2988
sg13
VArticle
p2989
sa(dp2990
g3
VWOS:A1974V029500002
p2991
sg5
VIQ, HERITABILITY AND INEQUALITY .2.
p2992
sg7
VPHILOSOPHY & PUBLIC AFFAIRS
p2993
sg9
VBLOCK, NJ
p2994
sg11
V1974
p2995
sg13
VArticle
p2996
sa(dp2997
g3
VWOS:000284170800002
p2998
sg5
VThe Just Distribution of Harm Between Combatants and Noncombatants
p2999
sg7
VPHILOSOPHY & PUBLIC AFFAIRS
p3000
sg9
VMcMahan, Jeff
p3001
sg11
V2010
p3002
sg13
VArticle
p3003
sa(dp3004
g3
VWOS:A1994QY41800003
p3005
sg5
VWEIGHING GOODS - SOME QUESTIONS AND COMMENTS
p3006
sg7
VPHILOSOPHY & PUBLIC AFFAIRS
p3007
sg9
VTEMKIN, LS
p3008
sg11
V1994
p3009
sg13
VArticle
p3010
sa(dp3011
g3
VWOS:A1982PN05700003
p3012
sg5
VA HOBBESIAN MINIMAL STATE
p3013
sg7
VPHILOSOPHY & PUBLIC AFFAIRS
p3014
sg9
VLEVIN, M
p3015
sg11
V1982
p3016
sg13
VArticle
p3017
sa(dp3018
g3
VWOS:A1972Z066300004
p3019
sg5
VMARX,K AND WITHERING AWAY OF SOCIAL SCIENCE
p3020
sg7
VPHILOSOPHY & PUBLIC AFFAIRS
p3021
sg9
VCOHEN, GA
p3022
sg11
V1972
p3023
sg13
VArticle
p3024
sa(dp3025
g3
VWOS:A1976BL10000003
p3026
sg5
VFUNDAMENTAL CONTRADICTION OF CAPITALIST PRODUCTION
p3027
sg7
VPHILOSOPHY & PUBLIC AFFAIRS
p3028
sg9
VYOUNG, G
p3029
sg11
V1976
p3030
sg13
VArticle
p3031
sa(dp3032
g3
VWOS:A1976CE26400004
p3033
sg5
VSELF-DEFENSE AND KILLING OF NONCOMBATANTS - REPLY TO FULLINWIDER
p3034
sg7
VPHILOSOPHY & PUBLIC AFFAIRS
p3035
sg9
VALEXANDER, LA
p3036
sg11
V1976
p3037
sg13
VArticle
p3038
sa(dp3039
g3
VWOS:A1975AP38800002
p3040
sg5
VTHOMSON ON PRIVACY
p3041
sg7
VPHILOSOPHY & PUBLIC AFFAIRS
p3042
sg9
VSCANLON, T
p3043
sg11
V1975
p3044
sg13
VArticle
p3045
sa(dp3046
g3
VWOS:A1977CX23000001
p3047
sg5
VEUTHANASIA
p3048
sg7
VPHILOSOPHY & PUBLIC AFFAIRS
p3049
sg9
VFOOT, P
p3050
sg11
V1977
p3051
sg13
VArticle
p3052
sa(dp3053
g3
VWOS:A1973R220000001
p3054
sg5
VDESERT, CONSENT, AND JUSTICE
p3055
sg7
VPHILOSOPHY & PUBLIC AFFAIRS
p3056
sg9
VSLOTE, MA
p3057
sg11
V1973
p3058
sg13
VArticle
p3059
sa(dp3060
g3
VWOS:A1979GZ87200003
p3061
sg5
VREASON AND COMMITMENT IN THE SOCIAL-SCIENCES
p3062
sg7
VPHILOSOPHY & PUBLIC AFFAIRS
p3063
sg9
VMILLER, RW
p3064
sg11
V1979
p3065
sg13
VArticle
p3066
sa(dp3067
g3
VWOS:A1987G067400004
p3068
sg5
VLIBERALISM, NEUTRALITY, AND EQUALITY OF WELFARE VS EQUALITY OF RESOURCES
p3069
sg7
VPHILOSOPHY & PUBLIC AFFAIRS
p3070
sg9
VALEXANDER, L
p3071
sg11
V1987
p3072
sg13
VArticle
p3073
sa(dp3074
g3
VWOS:000254669400003
p3075
sg5
VTaurek's No Worse Claim
p3076
sg7
VPHILOSOPHY & PUBLIC AFFAIRS
p3077
sg9
VLuebbe, Weyma
p3078
sg11
V2008
p3079
sg13
VArticle
p3080
sa(dp3081
g3
VWOS:A1990CW78200002
p3082
sg5
VREASON AND AGREEMENT IN SOCIAL-CONTRACT VIEWS
p3083
sg7
VPHILOSOPHY & PUBLIC AFFAIRS
p3084
sg9
VFREEMAN, S
p3085
sg11
V1990
p3086
sg13
VArticle
p3087
sa(dp3088
g3
VWOS:000245944500002
p3089
sg5
VJustice, deviance, and the dark ghetto
p3090
sg7
VPHILOSOPHY & PUBLIC AFFAIRS
p3091
sg9
VShelby, Tommie
p3092
sg11
V2007
p3093
sg13
VArticle
p3094
sa(dp3095
g3
VWOS:000243755900001
p3096
sg5
VGlobal justice, reciprocity, and the state
p3097
sg7
VPHILOSOPHY & PUBLIC AFFAIRS
p3098
sg9
VSangiovanni, Andrea
p3099
sg11
V2007
p3100
sg13
VArticle
p3101
sa(dp3102
g3
VWOS:000238425800002
p3103
sg5
VValuing health
p3104
sg7
VPHILOSOPHY & PUBLIC AFFAIRS
p3105
sg9
VHausman, DM
p3106
sg11
V2006
p3107
sg13
VArticle
p3108
sa(dp3109
g3
VWOS:A1991EY78200005
p3110
sg5
VRETHINKING THE FAMILY
p3111
sg7
VPHILOSOPHY & PUBLIC AFFAIRS
p3112
sg9
VKYMLICKA, W
p3113
sg11
V1991
p3114
sg13
VArticle
p3115
sa(dp3116
g3
VWOS:000234489400003
p3117
sg5
VAvoiding paternalism
p3118
sg7
VPHILOSOPHY & PUBLIC AFFAIRS
p3119
sg9
VDe Marneffe, P
p3120
sg11
V2006
p3121
sg13
VArticle
p3122
sa(dp3123
g3
VWOS:000228015700004
p3124
sg5
VWhy left-libertarianism is not incoherent, indeterminate, or irrelevant: A reply to Fried
p3125
sg7
VPHILOSOPHY & PUBLIC AFFAIRS
p3126
sg9
VVallentyne, P
p3127
sg11
V2005
p3128
sg13
VEditorial Material
p3129
sa(dp3130
g3
VWOS:A1977EE56300001
p3131
sg5
V3RD THEORY OF LAW
p3132
sg7
VPHILOSOPHY & PUBLIC AFFAIRS
p3133
sg9
VMACKIE, J
p3134
sg11
V1977
p3135
sg13
VArticle
p3136
sa(dp3137
g3
VWOS:000232423900002
p3138
sg5
VHow does the global order harm the poor?
p3139
sg7
VPHILOSOPHY & PUBLIC AFFAIRS
p3140
sg9
VRisse, M
p3141
sg11
V2005
p3142
sg13
VArticle
p3143
sa(dp3144
g3
VWOS:000411821100003
p3145
sg5
VActing in Combination
p3146
sg7
VPHILOSOPHY & PUBLIC AFFAIRS
p3147
sg9
VGoodin, Robert E.
p3148
sg11
V2017
p3149
sg13
VArticle
p3150
sa(dp3151
g3
VWOS:000220570000004
p3152
sg5
VOn hearing women's voices: A reply to Susan Okin
p3153
sg7
VPHILOSOPHY & PUBLIC AFFAIRS
p3154
sg9
VNussbaum, MC
p3155
sg11
V2004
p3156
sg13
VArticle
p3157
sa(dp3158
g3
VWOS:A1992HY25900001
p3159
sg5
VMARKETS IN WOMENS REPRODUCTIVE LABOR
p3160
sg7
VPHILOSOPHY & PUBLIC AFFAIRS
p3161
sg9
VSATZ, D
p3162
sg11
V1992
p3163
sg13
VArticle
p3164
sa(dp3165
g3
VWOS:000312547600002
p3166
sg5
VLying, Trust, and Gratitude
p3167
sg7
VPHILOSOPHY & PUBLIC AFFAIRS
p3168
sg9
VO'Neil, Collin
p3169
sg11
V2012
p3170
sg13
VArticle
p3171
sa(dp3172
g3
VWOS:000292743300003
p3173
sg5
VWealth, Disability, and Happiness
p3174
sg7
VPHILOSOPHY & PUBLIC AFFAIRS
p3175
sg9
VMoller, Dan
p3176
sg11
V2011
p3177
sg13
VArticle
p3178
sa(dp3179
g3
VWOS:000186164300004
p3180
sg5
VIdentity, killing, and the boundaries of our existence
p3181
sg7
VPHILOSOPHY & PUBLIC AFFAIRS
p3182
sg9
VDeGrazia, D
p3183
sg11
V2003
p3184
sg13
VArticle
p3185
sa(dp3186
g3
VWOS:A1973R219900003
p3187
sg5
VRAWLS,R AND PRIORITY OF LIBERTY
p3188
sg7
VPHILOSOPHY & PUBLIC AFFAIRS
p3189
sg9
VBARRY, B
p3190
sg11
V1973
p3191
sg13
VArticle
p3192
sa(dp3193
g3
VWOS:000181839100002
p3194
sg5
VPromises and practices revisited
p3195
sg7
VPHILOSOPHY & PUBLIC AFFAIRS
p3196
sg9
VKolodny, N
p3197
sg11
V2003
p3198
sg13
VArticle
p3199
sa(dp3200
g3
VWOS:A1985APA8500005
p3201
sg5
VCOMMUNITARIAN CRITICS OF LIBERALISM
p3202
sg7
VPHILOSOPHY & PUBLIC AFFAIRS
p3203
sg9
VGUTMANN, A
p3204
sg11
V1985
p3205
sg13
VArticle
p3206
sa(dp3207
g3
VWOS:A1983PY26400002
p3208
sg5
VOUR PREFERENCES, OURSELVES
p3209
sg7
VPHILOSOPHY & PUBLIC AFFAIRS
p3210
sg9
VSHER, G
p3211
sg11
V1983
p3212
sg13
VArticle
p3213
sa(dp3214
g3
VWOS:000175255900002
p3215
sg5
VThe genesis of shame
p3216
sg7
VPHILOSOPHY & PUBLIC AFFAIRS
p3217
sg9
VVelleman, JD
p3218
sg11
V2001
p3219
sg13
VArticle
p3220
sa(dp3221
g3
VWOS:A1989R744800003
p3222
sg5
VTHE PUNISHMENT THAT LEAVES SOMETHING TO CHANCE
p3223
sg7
VPHILOSOPHY & PUBLIC AFFAIRS
p3224
sg9
VLEWIS, D
p3225
sg11
V1989
p3226
sg13
VArticle
p3227
sa(dp3228
g3
VWOS:A1975V833400004
p3229
sg5
VMARX AND LENIN AS HISTORICAL MATERIALISTS
p3230
sg7
VPHILOSOPHY & PUBLIC AFFAIRS
p3231
sg9
VMOORE, S
p3232
sg11
V1975
p3233
sg13
VArticle
p3234
sa(dp3235
g3
VWOS:A1995TV93400003
p3236
sg5
VContractualist liberalism and deliberative democracy
p3237
sg7
VPHILOSOPHY & PUBLIC AFFAIRS
p3238
sg9
VWeithman, PJ
p3239
sg11
V1995
p3240
sg13
VArticle
p3241
sa(dp3242
g3
VWOS:A1988Q394000001
p3243
sg5
VTHE PRIORITY OF RIGHT AND IDEAS OF THE GOOD
p3244
sg7
VPHILOSOPHY & PUBLIC AFFAIRS
p3245
sg9
VRAWLS, J
p3246
sg11
V1988
p3247
sg13
VArticle
p3248
sa(dp3249
g3
VWOS:A1993MJ74900003
p3250
sg5
VCREATION AND ABORTION - A STUDY IN MORAL AND LEGAL PHILOSOPHY - KAMM,FM
p3251
sg7
VPHILOSOPHY & PUBLIC AFFAIRS
p3252
sg9
VMCMAHAN, J
p3253
sg11
V1993
p3254
sg13
VBook Review
p3255
sa(dp3256
g3
VWOS:A1987J379200002
p3257
sg5
VPRESUMPTIVE BENEFIT, FAIRNESS, AND POLITICAL OBLIGATION
p3258
sg7
VPHILOSOPHY & PUBLIC AFFAIRS
p3259
sg9
VKLOSKO, G
p3260
sg11
V1987
p3261
sg13
VArticle
p3262
sa(dp3263
g3
VWOS:000238425800003
p3264
sg5
VThe determinacy of republican policy: A reply to McMahon
p3265
sg7
VPHILOSOPHY & PUBLIC AFFAIRS
p3266
sg9
VPettit, P
p3267
sg11
V2006
p3268
sg13
VArticle
p3269
sa(dp3270
g3
VWOS:000236359900005
p3271
sg5
VContractualism, root and branch: A review essay
p3272
sg7
VPHILOSOPHY & PUBLIC AFFAIRS
p3273
sg9
VDarwall, S
p3274
sg11
V2006
p3275
sg13
VReview
p3276
sa(dp3277
g3
VWOS:000454442800005
p3278
sg5
VAffirmative Consent and Due Diligence (vol 46, pg 90, 2018)
p3279
sg7
VPHILOSOPHY & PUBLIC AFFAIRS
p3280
sg9
VPineau, Lois
p3281
sg11
V2018
p3282
sg13
VCorrection
p3283
sa(dp3284
g3
VWOS:A1993MD16400001
p3285
sg5
VTHE CHALLENGE OF MULTICULTURALISM IN POLITICAL ETHICS
p3286
sg7
VPHILOSOPHY & PUBLIC AFFAIRS
p3287
sg9
VGUTMANN, A
p3288
sg11
V1993
p3289
sg13
VArticle
p3290
sa(dp3291
g3
VWOS:000365264600001
p3292
sg5
VContractualism and Social Risk
p3293
sg7
VPHILOSOPHY & PUBLIC AFFAIRS
p3294
sg9
VFrick, Johann
p3295
sg11
V2015
p3296
sg13
VArticle
p3297
sa(dp3298
g3
VWOS:000224311500001
p3299
sg5
VElements of a theory of human rights
p3300
sg7
VPHILOSOPHY & PUBLIC AFFAIRS
p3301
sg9
VSen, A
p3302
sg11
V2004
p3303
sg13
VArticle
p3304
sa(dp3305
g3
VWOS:A1996VN08100001
p3306
sg5
VDon't stop thinking about tomorrow: Two paradoxes about duties to future generations
p3307
sg7
VPHILOSOPHY & PUBLIC AFFAIRS
p3308
sg9
VBooninVail, D
p3309
sg11
V1996
p3310
sg13
VArticle
p3311
sa(dp3312
g3
VWOS:A1981LU74200001
p3313
sg5
VWHAT IS EQUALITY .1. EQUALITY OF WELFARE
p3314
sg7
VPHILOSOPHY & PUBLIC AFFAIRS
p3315
sg9
VDWORKIN, R
p3316
sg11
V1981
p3317
sg13
VArticle
p3318
sa(dp3319
g3
VWOS:000320619200002
p3320
sg5
VExploitation, Vulnerability, and Social Domination
p3321
sg7
VPHILOSOPHY & PUBLIC AFFAIRS
p3322
sg9
VVrousalis, Nicholas
p3323
sg11
V2013
p3324
sg13
VArticle
p3325
sa(dp3326
g3
VWOS:000302619800001
p3327
sg5
VWar as Punishment
p3328
sg7
VPHILOSOPHY & PUBLIC AFFAIRS
p3329
sg9
VLuban, David
p3330
sg11
V2011
p3331
sg13
VArticle
p3332
sa(dp3333
g3
VWOS:000288702400002
p3334
sg5
VIs Liberal Society a Parasite on Tradition?
p3335
sg7
VPHILOSOPHY & PUBLIC AFFAIRS
p3336
sg9
VBowles, Samuel
p3337
sg11
V2011
p3338
sg13
VArticle
p3339
sa(dp3340
g3
VWOS:000180834900001
p3341
sg5
VWhat is egalitarianism?
p3342
sg7
VPHILOSOPHY & PUBLIC AFFAIRS
p3343
sg9
VScheffler, S
p3344
sg11
V2003
p3345
sg13
VArticle
p3346
sa(dp3347
g3
VWOS:000277010700001
p3348
sg5
VIncentives, Motives, and Talents
p3349
sg7
VPHILOSOPHY & PUBLIC AFFAIRS
p3350
sg9
VShiffrin, Seana Valentine
p3351
sg11
V2010
p3352
sg13
VArticle
p3353
sa(dp3354
g3
VWOS:A1990CW78200003
p3355
sg5
VLIBERALISM, DISTRIBUTIVE SUBJECTIVISM, AND EQUAL-OPPORTUNITY FOR WELFARE
p3356
sg7
VPHILOSOPHY & PUBLIC AFFAIRS
p3357
sg9
VARNESON, RJ
p3358
sg11
V1990
p3359
sg13
VArticle
p3360
sa(dp3361
g3
VWOS:A1975AZ83300005
p3362
sg5
VREMARKS ON ABORTION, ABANDONMENT, AND ADOPTION OPPORTUNITIES
p3363
sg7
VPHILOSOPHY & PUBLIC AFFAIRS
p3364
sg9
VHERBENICK, RM
p3365
sg11
V1975
p3366
sg13
VArticle
p3367
sa(dp3368
g3
VWOS:A1983PY26400005
p3369
sg5
VWOLFF,R.P. REINTERPRETATION OF MARX LABOR THEORY OF VALUE - REPLY TO ROEMER
p3370
sg7
VPHILOSOPHY & PUBLIC AFFAIRS
p3371
sg9
VWOLFF, RP
p3372
sg11
V1983
p3373
sg13
VArticle
p3374
sa(dp3375
g3
VWOS:000171669200002
p3376
sg5
VConsequentialism and cluelessness
p3377
sg7
VPHILOSOPHY & PUBLIC AFFAIRS
p3378
sg9
VLenman, J
p3379
sg11
V2000
p3380
sg13
VArticle
p3381
sa(dp3382
g3
VWOS:A1975AP38800003
p3383
sg5
VWHY PRIVACY IS IMPORTANT
p3384
sg7
VPHILOSOPHY & PUBLIC AFFAIRS
p3385
sg9
VRACHELS, J
p3386
sg11
V1975
p3387
sg13
VArticle
p3388
sa(dp3389
g3
VWOS:A1977CX23000004
p3390
sg5
VPAYING PENALTY - JUSTIFIABLE CIVIL-DISOBEDIENCE AND PROBLEM OF PUNISHMENT
p3391
sg7
VPHILOSOPHY & PUBLIC AFFAIRS
p3392
sg9
VFARRELL, DM
p3393
sg11
V1977
p3394
sg13
VArticle
p3395
sa(dp3396
g3
VWOS:A1994NC40100002
p3397
sg5
VIN DEFENSE OF DEFIANCE
p3398
sg7
VPHILOSOPHY & PUBLIC AFFAIRS
p3399
sg9
VDANCOHEN, M
p3400
sg11
V1994
p3401
sg13
VArticle
p3402
sa(dp3403
g3
VWOS:A1986D214000002
p3404
sg5
VHARM AND RETRIBUTION
p3405
sg7
VPHILOSOPHY & PUBLIC AFFAIRS
p3406
sg9
VDAVIS, M
p3407
sg11
V1986
p3408
sg13
VArticle
p3409
sa(dp3410
g3
VWOS:A1980JX23700004
p3411
sg5
VSCANLON ON FREEDOM OF EXPRESSION
p3412
sg7
VPHILOSOPHY & PUBLIC AFFAIRS
p3413
sg9
VAMDUR, R
p3414
sg11
V1980
p3415
sg13
VArticle
p3416
sa(dp3417
g3
VWOS:A1976BL10000002
p3418
sg5
VAFFIRMATIVE-ACTION
p3419
sg7
VPHILOSOPHY & PUBLIC AFFAIRS
p3420
sg9
VGOLDMAN, AH
p3421
sg11
V1976
p3422
sg13
VArticle
p3423
sa(dp3424
g3
VWOS:A1991GA36400003
p3425
sg5
VTRADE SECRETS AND THE JUSTIFICATION OF INTELLECTUAL PROPERTY - A COMMENT
p3426
sg7
VPHILOSOPHY & PUBLIC AFFAIRS
p3427
sg9
VPAINE, LS
p3428
sg11
V1991
p3429
sg13
VArticle
p3430
sa(dp3431
g3
VWOS:A1987J379200004
p3432
sg5
VTHE ANARCHIST POSITION - REPLY
p3433
sg7
VPHILOSOPHY & PUBLIC AFFAIRS
p3434
sg9
VSIMMONS, AJ
p3435
sg11
V1987
p3436
sg13
VArticle
p3437
sa(dp3438
g3
VWOS:A1973R219900002
p3439
sg5
VRESPONSIBILITY FOR CRIMES OF WAR
p3440
sg7
VPHILOSOPHY & PUBLIC AFFAIRS
p3441
sg9
VLEVINSON, S
p3442
sg11
V1973
p3443
sg13
VArticle
p3444
sa(dp3445
g3
VWOS:000236359900004
p3446
sg5
VNagel's atlas
p3447
sg7
VPHILOSOPHY & PUBLIC AFFAIRS
p3448
sg9
VJulius, AJ
p3449
sg11
V2006
p3450
sg13
VArticle
p3451
sa(dp3452
g3
VWOS:A1984SH40600001
p3453
sg5
VREMARKS ON CAUSATION AND LIABILITY
p3454
sg7
VPHILOSOPHY & PUBLIC AFFAIRS
p3455
sg9
VTHOMSON, JJ
p3456
sg11
V1984
p3457
sg13
VArticle
p3458
sa(dp3459
g3
VWOS:A1991GA36400004
p3460
sg5
VTHEORIES OF JUSTICE - BARRY,B
p3461
sg7
VPHILOSOPHY & PUBLIC AFFAIRS
p3462
sg9
VGIBBARD, A
p3463
sg11
V1991
p3464
sg13
VBook Review
p3465
sa(dp3466
g3
VWOS:000232423900001
p3467
sg5
VPrincipled compromise and the abortion controversy
p3468
sg7
VPHILOSOPHY & PUBLIC AFFAIRS
p3469
sg9
VMay, SC
p3470
sg11
V2005
p3471
sg13
VArticle
p3472
sa(dp3473
g3
VWOS:000230246700003
p3474
sg5
VConstructing justice for existing practice: Rawls and the status quo
p3475
sg7
VPHILOSOPHY & PUBLIC AFFAIRS
p3476
sg9
VJames, A
p3477
sg11
V2005
p3478
sg13
VArticle
p3479
sa(dp3480
g3
VWOS:A1996VN08100004
p3481
sg5
VMoral status and the impermissibility of minimizing violations
p3482
sg7
VPHILOSOPHY & PUBLIC AFFAIRS
p3483
sg9
VLippertRasmussen, K
p3484
sg11
V1996
p3485
sg13
VArticle
p3486
sa(dp3487
g3
VWOS:000297919300003
p3488
sg5
VThe Logical Space of Democracy
p3489
sg7
VPHILOSOPHY & PUBLIC AFFAIRS
p3490
sg9
VList, Christian
p3491
sg11
V2011
p3492
sg13
VArticle
p3493
sa(dp3494
g3
VWOS:A1972Z066300003
p3495
sg5
VRULES OF WAR AND MORAL REASINING
p3496
sg7
VPHILOSOPHY & PUBLIC AFFAIRS
p3497
sg9
VHARE, RM
p3498
sg11
V1972
p3499
sg13
VArticle
p3500
sa(dp3501
g3
VWOS:000284170800001
p3502
sg5
VHypocrisy, Moral Address, and the Equal Standing of Persons
p3503
sg7
VPHILOSOPHY & PUBLIC AFFAIRS
p3504
sg9
VWallace, R. Jay
p3505
sg11
V2010
p3506
sg13
VArticle
p3507
sa(dp3508
g3
VWOS:A1980JM49100004
p3509
sg5
VLICENSING PARENTS
p3510
sg7
VPHILOSOPHY & PUBLIC AFFAIRS
p3511
sg9
VLAFOLLETTE, H
p3512
sg11
V1980
p3513
sg13
VArticle
p3514
sa(dp3515
g3
VWOS:A1988L866100005
p3516
sg5
VRIGHTS, MARKET FAILURE, AND RENT CONTROL - A COMMENT
p3517
sg7
VPHILOSOPHY & PUBLIC AFFAIRS
p3518
sg9
VBRENNAN, TJ
p3519
sg11
V1988
p3520
sg13
VArticle
p3521
sa(dp3522
g3
VWOS:A1983PY26400001
p3523
sg5
VTHE STRUCTURE OF PROLETARIAN UNFREEDOM
p3524
sg7
VPHILOSOPHY & PUBLIC AFFAIRS
p3525
sg9
VCOHEN, GA
p3526
sg11
V1983
p3527
sg13
VArticle
p3528
sa(dp3529
g3
VWOS:A1974S447400002
p3530
sg5
VRAWLS AND MARXISM
p3531
sg7
VPHILOSOPHY & PUBLIC AFFAIRS
p3532
sg9
VMILLER, R
p3533
sg11
V1974
p3534
sg13
VArticle
p3535
sa(dp3536
g3
VWOS:000166607600002
p3537
sg5
VThe virtue of civility
p3538
sg7
VPHILOSOPHY & PUBLIC AFFAIRS
p3539
sg9
VCalhoun, C
p3540
sg11
V2000
p3541
sg13
VArticle
p3542
sa(dp3543
g3
VWOS:A1975AC63000004
p3544
sg5
VLIFEBOAT EARTH
p3545
sg7
VPHILOSOPHY & PUBLIC AFFAIRS
p3546
sg9
VNELL, O
p3547
sg11
V1975
p3548
sg13
VArticle
p3549
sa(dp3550
g3
VWOS:000074544600002
p3551
sg5
VSelf-defense and defense of others
p3552
sg7
VPHILOSOPHY & PUBLIC AFFAIRS
p3553
sg9
VChristopher, R
p3554
sg11
V1998
p3555
sg13
VArticle
p3556
sa(dp3557
g3
VWOS:000077479200001
p3558
sg5
VRace and democracy: The controversy over racial vote dilution
p3559
sg7
VPHILOSOPHY & PUBLIC AFFAIRS
p3560
sg9
VAltman, A
p3561
sg11
V1998
p3562
sg13
VArticle
p3563
sa(dp3564
g3
VWOS:A1975AC63000003
p3565
sg5
VHOW TO JUSTIFY A DISTRIBUTION OF EARNINGS
p3566
sg7
VPHILOSOPHY & PUBLIC AFFAIRS
p3567
sg9
VDICK, JC
p3568
sg11
V1975
p3569
sg13
VArticle
p3570
sa(dp3571
g3
VWOS:A1992KD19700003
p3572
sg5
VNON-CONSEQUENTIALISM, THE PERSON AS AN END-IN-ITSELF, AND THE SIGNIFICANCE OF STATUS
p3573
sg7
VPHILOSOPHY & PUBLIC AFFAIRS
p3574
sg9
VKAMM, FM
p3575
sg11
V1992
p3576
sg13
VArticle
p3577
sa(dp3578
g3
VWOS:A1980JX23700003
p3579
sg5
VBUSINESS ETHICS - PROFITS, UTILITIES, AND MORAL RIGHTS
p3580
sg7
VPHILOSOPHY & PUBLIC AFFAIRS
p3581
sg9
VGOLDMAN, AH
p3582
sg11
V1980
p3583
sg13
VArticle
p3584
sa(dp3585
g3
VWOS:000087950900002
p3586
sg5
VLegitimacy, unanimity, and perfectionism
p3587
sg7
VPHILOSOPHY & PUBLIC AFFAIRS
p3588
sg9
VChan, J
p3589
sg11
V2000
p3590
sg13
VArticle
p3591
sa(dp3592
g3
VWOS:A1986D214000003
p3593
sg5
VPERSONAL IDENTITY AND BRAIN-DEATH - A CRITICAL RESPONSE
p3594
sg7
VPHILOSOPHY & PUBLIC AFFAIRS
p3595
sg9
VAGICH, GJ
p3596
sg11
V1986
p3597
sg13
VArticle
p3598
sa(dp3599
g3
VWOS:A1995TG53100003
p3600
sg5
VA DEFENSE OF SECESSION AND POLITICAL SELF-DETERMINATION
p3601
sg7
VPHILOSOPHY & PUBLIC AFFAIRS
p3602
sg9
VWELLMAN, CH
p3603
sg11
V1995
p3604
sg13
VArticle
p3605
sa(dp3606
g3
VWOS:A1983PY26400003
p3607
sg5
VLEGAL ENTRAPMENT
p3608
sg7
VPHILOSOPHY & PUBLIC AFFAIRS
p3609
sg9
VALTMAN, A
p3610
sg11
V1983
p3611
sg13
VArticle
p3612
sa(dp3613
g3
VWOS:A1993MJ74900002
p3614
sg5
VSPEECH ACTS AND UNSPEAKABLE ACTS
p3615
sg7
VPHILOSOPHY & PUBLIC AFFAIRS
p3616
sg9
VLANGTON, R
p3617
sg11
V1993
p3618
sg13
VArticle
p3619
sa(dp3620
g3
VWOS:000251641000003
p3621
sg5
VForcing a people to be free
p3622
sg7
VPHILOSOPHY & PUBLIC AFFAIRS
p3623
sg9
VApplbaum, Arthur Isak
p3624
sg11
V2007
p3625
sg13
VArticle
p3626
sa(dp3627
g3
VWOS:000250259700001
p3628
sg5
VThe hybrid nature of promissory obligation
p3629
sg7
VPHILOSOPHY & PUBLIC AFFAIRS
p3630
sg9
VTognazzini, Neal A.
p3631
sg11
V2007
p3632
sg13
VArticle
p3633
sa(dp3634
g3
VWOS:000243755900003
p3635
sg5
VBeing fair to future people: The non-identity problem in the original position
p3636
sg7
VPHILOSOPHY & PUBLIC AFFAIRS
p3637
sg9
VReiman, Jeffrey
p3638
sg11
V2007
p3639
sg13
VArticle
p3640
sa(dp3641
g3
VWOS:000245944500005
p3642
sg5
VLegal moralism and the harm principle: A rejoinder
p3643
sg7
VPHILOSOPHY & PUBLIC AFFAIRS
p3644
sg9
VRipstein, Arthur
p3645
sg11
V2007
p3646
sg13
VEditorial Material
p3647
sa(dp3648
g3
VWOS:000245944500003
p3649
sg5
VRationality and the distant needy
p3650
sg7
VPHILOSOPHY & PUBLIC AFFAIRS
p3651
sg9
VHare, Caspar
p3652
sg11
V2007
p3653
sg13
VArticle
p3654
sa(dp3655
g3
VWOS:A1977DX39800003
p3656
sg5
VPHILOSOPHER QUEENS AND PRIVATE WIVES - PLATO ON WOMEN AND FAMILY
p3657
sg7
VPHILOSOPHY & PUBLIC AFFAIRS
p3658
sg9
VOKIN, SM
p3659
sg11
V1977
p3660
sg13
VArticle
p3661
sa(dp3662
g3
VWOS:000234489400001
p3663
sg5
VInstitutionalizing the Just War
p3664
sg7
VPHILOSOPHY & PUBLIC AFFAIRS
p3665
sg9
VBuchanan, A
p3666
sg11
V2006
p3667
sg13
VArticle
p3668
sa(dp3669
g3
VWOS:000454442800004
p3670
sg5
VThe Alteration Thesis: Forgiveness as a Normative Power
p3671
sg7
VPHILOSOPHY & PUBLIC AFFAIRS
p3672
sg9
VBennett, Christopher
p3673
sg11
V2018
p3674
sg13
VArticle
p3675
sa(dp3676
g3
VWOS:000077479200002
p3677
sg5
VCosmopolitan respect and patriotic concern
p3678
sg7
VPHILOSOPHY & PUBLIC AFFAIRS
p3679
sg9
VMiller, RW
p3680
sg11
V1998
p3681
sg13
VArticle
p3682
sa(dp3683
g3
VWOS:A1971Y116900004
p3684
sg5
VUNDERSTANDING ABORTION ARGUMENT
p3685
sg7
VPHILOSOPHY & PUBLIC AFFAIRS
p3686
sg9
VWERTHEIMER, R
p3687
sg11
V1971
p3688
sg13
VArticle
p3689
sa(dp3690
g3
VWOS:A1983QW89100002
p3691
sg5
VKANT, LIBERAL LEGACIES, AND FOREIGN-AFFAIRS .1.
p3692
sg7
VPHILOSOPHY & PUBLIC AFFAIRS
p3693
sg9
VDOYLE, MW
p3694
sg11
V1983
p3695
sg13
VArticle
p3696
sa(dp3697
g3
VWOS:A1985AGY6000003
p3698
sg5
VREFUTING REIMAN AND NATHANSON
p3699
sg7
VPHILOSOPHY & PUBLIC AFFAIRS
p3700
sg9
VVANDENHAAG, E
p3701
sg11
V1985
p3702
sg13
VArticle
p3703
sa(dp3704
g3
VWOS:000179565200003
p3705
sg5
VThe real tragedy of the commons
p3706
sg7
VPHILOSOPHY & PUBLIC AFFAIRS
p3707
sg9
VGardiner, SM
p3708
sg11
V2001
p3709
sg13
VArticle
p3710
sa(dp3711
g3
VWOS:000270830500001
p3712
sg5
VThe Normative Insignificance of Neuroscience
p3713
sg7
VPHILOSOPHY & PUBLIC AFFAIRS
p3714
sg9
VBerker, Selim
p3715
sg11
V2009
p3716
sg13
VArticle
p3717
sa(dp3718
g3
VWOS:000171669200001
p3719
sg5
VKantian patriotism
p3720
sg7
VPHILOSOPHY & PUBLIC AFFAIRS
p3721
sg9
VKleingeld, P
p3722
sg11
V2000
p3723
sg13
VArticle
p3724
sa(dp3725
g3
VWOS:A1974U150400003
p3726
sg5
VCAPITAL PUNISHMENT AND DETERRENCE - SOME CONSIDERATIONS IN DIALOGUE FORM
p3727
sg7
VPHILOSOPHY & PUBLIC AFFAIRS
p3728
sg9
VCONWAY, DA
p3729
sg11
V1974
p3730
sg13
VDiscussion
p3731
sa(dp3732
g3
VWOS:A1971Y116900005
p3733
sg5
VLABOR, ALIENATION, AND SOCIAL CLASSES IN HEGELS REALPHILOSOPHIE
p3734
sg7
VPHILOSOPHY & PUBLIC AFFAIRS
p3735
sg9
VAVINERI, S
p3736
sg11
V1971
p3737
sg13
VArticle
p3738
sa(dp3739
g3
VWOS:A1984RY56100001
p3740
sg5
VOFFENSE AND THE LIBERAL CONCEPTION OF THE LAW
p3741
sg7
VPHILOSOPHY & PUBLIC AFFAIRS
p3742
sg9
VELLIS, A
p3743
sg11
V1984
p3744
sg13
VArticle
p3745
sa(dp3746
g3
VWOS:A1979GP31900005
p3747
sg5
VDISCHARGEABILITY, OPTIONALITY, AND THE DUTY TO SAVE LIVES
p3748
sg7
VPHILOSOPHY & PUBLIC AFFAIRS
p3749
sg9
VBROOK, R
p3750
sg11
V1979
p3751
sg13
VArticle
p3752
sa(dp3753
g3
VWOS:A1978FZ62100003
p3754
sg5
VDEFENSE OF RIGHTS TO WELL-BEING
p3755
sg7
VPHILOSOPHY & PUBLIC AFFAIRS
p3756
sg9
VPEFFER, R
p3757
sg11
V1978
p3758
sg13
VArticle
p3759
sa(dp3760
g3
VWOS:A1985AGY6000001
p3761
sg5
VJUSTICE, CIVILIZATION, AND THE DEATH-PENALTY - ANSWERING VANDENHAAG
p3762
sg7
VPHILOSOPHY & PUBLIC AFFAIRS
p3763
sg9
VREIMAN, JH
p3764
sg11
V1985
p3765
sg13
VArticle
p3766
sa(dp3767
g3
VWOS:A1988L866100006
p3768
sg5
VRENT CONTROL AND INCOMPLETE COMMODIFICATION - A REJOINDER
p3769
sg7
VPHILOSOPHY & PUBLIC AFFAIRS
p3770
sg9
VRADIN, MJ
p3771
sg11
V1988
p3772
sg13
VArticle
p3773
sa(dp3774
g3
VWOS:A1993LM87600002
p3775
sg5
VPOSITIONAL OBJECTIVITY
p3776
sg7
VPHILOSOPHY & PUBLIC AFFAIRS
p3777
sg9
VSEN, A
p3778
sg11
V1993
p3779
sg13
VArticle
p3780
sa(dp3781
g3
VWOS:A1993MJ74900001
p3782
sg5
VTHE DEMANDS OF BENEFICENCE
p3783
sg7
VPHILOSOPHY & PUBLIC AFFAIRS
p3784
sg9
VMURPHY, LB
p3785
sg11
V1993
p3786
sg13
VArticle
p3787
sa(dp3788
g3
VWOS:A1987H340500001
p3789
sg5
VFOUNDATIONALISM IN POLITICAL-THEORY
p3790
sg7
VPHILOSOPHY & PUBLIC AFFAIRS
p3791
sg9
VRIPSTEIN, A
p3792
sg11
V1987
p3793
sg13
VArticle
p3794
sa(dp3795
g3
VWOS:A1989AF10500001
p3796
sg5
VLEGAL THEORY AND THE CLAIM OF AUTHORITY
p3797
sg7
VPHILOSOPHY & PUBLIC AFFAIRS
p3798
sg9
VSOPER, P
p3799
sg11
V1989
p3800
sg13
VArticle
p3801
sa(dp3802
g3
VWOS:A1996UH47000003
p3803
sg5
VThe uniqueness of the Holocaust
p3804
sg7
VPHILOSOPHY & PUBLIC AFFAIRS
p3805
sg9
VMargalit, A
p3806
sg11
V1996
p3807
sg13
VArticle
p3808
sa(dp3809
g3
VWOS:A1987H340500002
p3810
sg5
VINTRANSITIVITY AND THE MERE ADDITION PARADOX
p3811
sg7
VPHILOSOPHY & PUBLIC AFFAIRS
p3812
sg9
VTEMKIN, LS
p3813
sg11
V1987
p3814
sg13
VArticle
p3815
sa(dp3816
g3
VWOS:A1996VN08100003
p3817
sg5
VTheoretical persons and practical agents
p3818
sg7
VPHILOSOPHY & PUBLIC AFFAIRS
p3819
sg9
VShoemaker, DW
p3820
sg11
V1996
p3821
sg13
VArticle
p3822
sa(dp3823
g3
VWOS:A1980JM49100001
p3824
sg5
VBRAIN-DEATH AND PERSONAL IDENTITY
p3825
sg7
VPHILOSOPHY & PUBLIC AFFAIRS
p3826
sg9
VGREEN, MB
p3827
sg11
V1980
p3828
sg13
VArticle
p3829
sa(dp3830
g3
VWOS:000240663200002
p3831
sg5
VThe numbers problem
p3832
sg7
VPHILOSOPHY & PUBLIC AFFAIRS
p3833
sg9
VHsieh, Nien-He
p3834
sg11
V2006
p3835
sg13
VArticle
p3836
sa(dp3837
g3
VWOS:000234489400004
p3838
sg5
VEnvironmental damage and the puzzle of the self-torturer
p3839
sg7
VPHILOSOPHY & PUBLIC AFFAIRS
p3840
sg9
VAndreou, C
p3841
sg11
V2006
p3842
sg13
VArticle
p3843
sa(dp3844
g3
VWOS:A1988L866100003
p3845
sg5
VMODELING THE NUCLEAR ARMS-RACE AS A PERCEPTUAL DILEMMA
p3846
sg7
VPHILOSOPHY & PUBLIC AFFAIRS
p3847
sg9
VPLOUS, S
p3848
sg11
V1988
p3849
sg13
VArticle
p3850
sa(dp3851
g3
VWOS:000401333500002
p3852
sg5
VThe Impossibility of Republican Freedom
p3853
sg7
VPHILOSOPHY & PUBLIC AFFAIRS
p3854
sg9
VSimpson, Thomas W.
p3855
sg11
V2017
p3856
sg13
VArticle
p3857
sa(dp3858
g3
VWOS:A1976BV57300001
p3859
sg5
VPROBLEM OF SOCIAL CHOICE - ARROW TO RAWLS
p3860
sg7
VPHILOSOPHY & PUBLIC AFFAIRS
p3861
sg9
VSTRASNICK, S
p3862
sg11
V1976
p3863
sg13
VArticle
p3864
sa(dp3865
g3
VWOS:000383572500004
p3866
sg5
VWhether and Where to Give
p3867
sg7
VPHILOSOPHY & PUBLIC AFFAIRS
p3868
sg9
VPummer, Theron
p3869
sg11
V2016
p3870
sg13
VArticle
p3871
sa(dp3872
g3
VWOS:000224311500002
p3873
sg5
VBeneficence, duty and distance
p3874
sg7
VPHILOSOPHY & PUBLIC AFFAIRS
p3875
sg9
VMiller, RW
p3876
sg11
V2004
p3877
sg13
VArticle
p3878
sa(dp3879
g3
VWOS:A1973R220000003
p3880
sg5
VPREFERENTIAL HIRING
p3881
sg7
VPHILOSOPHY & PUBLIC AFFAIRS
p3882
sg9
VTHOMSON, JJ
p3883
sg11
V1973
p3884
sg13
VArticle
p3885
sa(dp3886
g3
VWOS:000308086700002
p3887
sg5
VIs Ethical Consumerism an Impermissible Form of Vigilantism?
p3888
sg7
VPHILOSOPHY & PUBLIC AFFAIRS
p3889
sg9
VHussain, Waheed
p3890
sg11
V2012
p3891
sg13
VArticle
p3892
sa(dp3893
g3
VWOS:000306895900003
p3894
sg5
VLiability to Defensive Harm
p3895
sg7
VPHILOSOPHY & PUBLIC AFFAIRS
p3896
sg9
VQuong, Jonathan
p3897
sg11
V2012
p3898
sg13
VArticle
p3899
sa(dp3900
g3
VWOS:000074544600001
p3901
sg5
VFairness, respect, and the egalitarian ethos
p3902
sg7
VPHILOSOPHY & PUBLIC AFFAIRS
p3903
sg9
VWolff, J
p3904
sg11
V1998
p3905
sg13
VArticle
p3906
sa(dp3907
g3
VWOS:A1988L866100001
p3908
sg5
VWHY THE NUMBERS SHOULD SOMETIMES COUNT
p3909
sg7
VPHILOSOPHY & PUBLIC AFFAIRS
p3910
sg9
VSANDERS, JT
p3911
sg11
V1988
p3912
sg13
VArticle
p3913
sa(dp3914
g3
VWOS:A1981LL23700003
p3915
sg5
VHEALTH-CARE NEEDS AND DISTRIBUTIVE JUSTICE
p3916
sg7
VPHILOSOPHY & PUBLIC AFFAIRS
p3917
sg9
VDANIELS, N
p3918
sg11
V1981
p3919
sg13
VArticle
p3920
sa(dp3921
g3
VWOS:000268959500002
p3922
sg5
VThe Global Order: A Case of Background Injustice?A Practice-Dependent Account
p3923
sg7
VPHILOSOPHY & PUBLIC AFFAIRS
p3924
sg9
VRonzoni, Miriam
p3925
sg11
V2009
p3926
sg13
VArticle
p3927
sa(dp3928
g3
VWOS:000265712300002
p3929
sg5
VReligious Democracy and the Liberal Principle of Legitimacy
p3930
sg7
VPHILOSOPHY & PUBLIC AFFAIRS
p3931
sg9
VMay, Simon Cabulea
p3932
sg11
V2009
p3933
sg13
VArticle
p3934
sa(dp3935
g3
VWOS:000176431900002
p3936
sg5
VJustice between the young and the old
p3937
sg7
VPHILOSOPHY & PUBLIC AFFAIRS
p3938
sg9
VMcKerlie, D
p3939
sg11
V2001
p3940
sg13
VArticle
p3941
sa(dp3942
g3
VWOS:A1985ATS8500004
p3943
sg5
VDAVIS AND WESTEN ON RIGHTS AND COMPENSATION
p3944
sg7
VPHILOSOPHY & PUBLIC AFFAIRS
p3945
sg9
VMONTAGUE, P
p3946
sg11
V1985
p3947
sg13
VArticle
p3948
sa(dp3949
g3
VWOS:A1979HX56300001
p3950
sg5
VSCOPE OF JUSTICE
p3951
sg7
VPHILOSOPHY & PUBLIC AFFAIRS
p3952
sg9
VHUBIN, DC
p3953
sg11
V1979
p3954
sg13
VArticle
p3955
sa(dp3956
g3
VWOS:A1994NV75500002
p3957
sg5
VDISCOUNTING THE FUTURE
p3958
sg7
VPHILOSOPHY & PUBLIC AFFAIRS
p3959
sg9
VBROOME, J
p3960
sg11
V1994
p3961
sg13
VArticle
p3962
sa(dp3963
g3
VWOS:A1982NK18500003
p3964
sg5
VON LICENTIOUS LICENSING
p3965
sg7
VPHILOSOPHY & PUBLIC AFFAIRS
p3966
sg9
VFRISCH, LE
p3967
sg11
V1982
p3968
sg13
VLetter
p3969
sa(dp3970
g3
VWOS:A1977DX39800001
p3971
sg5
VSHOULD NUMBERS COUNT
p3972
sg7
VPHILOSOPHY & PUBLIC AFFAIRS
p3973
sg9
VTAUREK, JM
p3974
sg11
V1977
p3975
sg13
VArticle
p3976
sa(dp3977
g3
VWOS:A1979GP31900001
p3978
sg5
VWHAT IS WRONG WITH SLAVERY
p3979
sg7
VPHILOSOPHY & PUBLIC AFFAIRS
p3980
sg9
VHARE, RM
p3981
sg11
V1979
p3982
sg13
VArticle
p3983
sa(dp3984
g3
VWOS:A1985APA8500003
p3985
sg5
VDRUNK DRIVING
p3986
sg7
VPHILOSOPHY & PUBLIC AFFAIRS
p3987
sg9
VSTEINBOCK, B
p3988
sg11
V1985
p3989
sg13
VArticle
p3990
sa(dp3991
g3
VWOS:A1979GP31900002
p3992
sg5
VFREEDOM AND PRIVATE PROPERTY IN MARX
p3993
sg7
VPHILOSOPHY & PUBLIC AFFAIRS
p3994
sg9
VBRENKERT, GG
p3995
sg11
V1979
p3996
sg13
VArticle
p3997
sa(dp3998
g3
VWOS:A1993LM87600001
p3999
sg5
VEQUITY AND MERCY
p4000
sg7
VPHILOSOPHY & PUBLIC AFFAIRS
p4001
sg9
VNUSSBAUM, MC
p4002
sg11
V1993
p4003
sg13
VArticle
p4004
sa(dp4005
g3
VWOS:A1983QL19000001
p4006
sg5
VAGAINST EVALUATOR RELATIVITY - A RESPONSE TO SEN
p4007
sg7
VPHILOSOPHY & PUBLIC AFFAIRS
p4008
sg9
VREGAN, DH
p4009
sg11
V1983
p4010
sg13
VArticle
p4011
sa(dp4012
g3
VWOS:A1994NC40100003
p4013
sg5
VIS DRUNK DRIVING A SERIOUS OFFENSE
p4014
sg7
VPHILOSOPHY & PUBLIC AFFAIRS
p4015
sg9
VHUSAK, DN
p4016
sg11
V1994
p4017
sg13
VArticle
p4018
sa(dp4019
g3
VWOS:A1975AP38800001
p4020
sg5
VRIGHT TO PRIVACY
p4021
sg7
VPHILOSOPHY & PUBLIC AFFAIRS
p4022
sg9
VTHOMSON, JJ
p4023
sg11
V1975
p4024
sg13
VArticle
p4025
sa(dp4026
g3
VWOS:A1977DX39800002
p4027
sg5
VRATIONAL FOOLS - CRITIQUE OF BEHAVIORAL FOUNDATIONS OF ECONOMIC-THEORY
p4028
sg7
VPHILOSOPHY & PUBLIC AFFAIRS
p4029
sg9
VSEN, AK
p4030
sg11
V1977
p4031
sg13
VArticle
p4032
sa(dp4033
g3
VWOS:000444803500004
p4034
sg5
VAre We Conditionally Obligated to be Effective Altruists?
p4035
sg7
VPHILOSOPHY & PUBLIC AFFAIRS
p4036
sg9
VSinclair, Thomas
p4037
sg11
V2018
p4038
sg13
VArticle
p4039
sa(dp4040
g3
VWOS:000444803500001
p4041
sg5
VPublisher's Note
p4042
sg7
VPHILOSOPHY & PUBLIC AFFAIRS
p4043
sg9
VGenest, Paul-Andre
p4044
sg11
V2018
p4045
sg13
VEditorial Material
p4046
sa(dp4047
g3
VWOS:A1997YD33500001
p4048
sg5
VRelationships and responsibilities
p4049
sg7
VPHILOSOPHY & PUBLIC AFFAIRS
p4050
sg9
VScheffler, S
p4051
sg11
V1997
p4052
sg13
VArticle
p4053
sa(dp4054
g3
VWOS:000228015700003
p4055
sg5
VTransgenerational compensation
p4056
sg7
VPHILOSOPHY & PUBLIC AFFAIRS
p4057
sg9
VSher, G
p4058
sg11
V2005
p4059
sg13
VArticle
p4060
sa(dp4061
g3
VWOS:000353241200002
p4062
sg5
VWhat Is the Right to Privacy?
p4063
sg7
VPHILOSOPHY & PUBLIC AFFAIRS
p4064
sg9
VMarmor, Andrei
p4065
sg11
V2015
p4066
sg13
VArticle
p4067
sa(dp4068
g3
VWOS:000346475300001
p4069
sg5
VRule Over None I: What Justifies Democracy?
p4070
sg7
VPHILOSOPHY & PUBLIC AFFAIRS
p4071
sg9
VKolodny, Niko
p4072
sg11
V2014
p4073
sg13
VArticle
p4074
sa(dp4075
g3
VWOS:000341240000002
p4076
sg5
VAgainst Elections: The Lottocratic Alternative
p4077
sg7
VPHILOSOPHY & PUBLIC AFFAIRS
p4078
sg9
VGuerrero, Alexander A.
p4079
sg11
V2014
p4080
sg13
VArticle
p4081
sa(dp4082
g3
VWOS:A1985AAF8800003
p4083
sg5
VBRIBERY, EXTORTION, AND THE FOREIGN-CORRUPT-PRACTICES-ACT
p4084
sg7
VPHILOSOPHY & PUBLIC AFFAIRS
p4085
sg9
VCARSON, TL
p4086
sg11
V1985
p4087
sg13
VArticle
p4088
sa(dp4089
g3
VWOS:000188387200002
p4090
sg5
VGlobal health and the scientific research agenda
p4091
sg7
VPHILOSOPHY & PUBLIC AFFAIRS
p4092
sg9
VFlory, JH
p4093
sg11
V2004
p4094
sg13
VArticle
p4095
sa(dp4096
g3
VWOS:A1990DQ43000003
p4097
sg5
VLIBERALISM, LIBERTY, AND NEUTRALITY
p4098
sg7
VPHILOSOPHY & PUBLIC AFFAIRS
p4099
sg9
VDEMARNEFFE, P
p4100
sg11
V1990
p4101
sg13
VArticle
p4102
sa(dp4103
g3
VWOS:A1979HM28200001
p4104
sg5
VPRINCIPLE OF FAIR PLAY
p4105
sg7
VPHILOSOPHY & PUBLIC AFFAIRS
p4106
sg9
VSIMMONS, AJ
p4107
sg11
V1979
p4108
sg13
VArticle
p4109
sa(dp4110
g3
VWOS:A1985AAF8800006
p4111
sg5
VFAIR EQUALITY OF OPPORTUNITY AND DECENT MINIMUMS - A REPLY TO BUCHANAN
p4112
sg7
VPHILOSOPHY & PUBLIC AFFAIRS
p4113
sg9
VDANIELS, N
p4114
sg11
V1985
p4115
sg13
VNote
p4116
sa(dp4117
g3
VWOS:000284170800003
p4118
sg5
VLiberal Justice, Future People, and Natural Resource Conservation
p4119
sg7
VPHILOSOPHY & PUBLIC AFFAIRS
p4120
sg9
VMazor, Joseph
p4121
sg11
V2010
p4122
sg13
VArticle
p4123
sa(dp4124
g3
VWOS:A1991GR79400002
p4125
sg5
VLOCKE AND THE RIGHT TO PUNISH
p4126
sg7
VPHILOSOPHY & PUBLIC AFFAIRS
p4127
sg9
VSIMMONS, AJ
p4128
sg11
V1991
p4129
sg13
VArticle
p4130
sa(dp4131
g3
VWOS:A1980JM49100003
p4132
sg5
VJUST WAR AND HUMAN-RIGHTS
p4133
sg7
VPHILOSOPHY & PUBLIC AFFAIRS
p4134
sg9
VLUBAN, D
p4135
sg11
V1980
p4136
sg13
VArticle
p4137
sa(dp4138
g3
VWOS:A1986A816300005
p4139
sg5
VDOES CONSENT OVERRIDE PROPORTIONALITY
p4140
sg7
VPHILOSOPHY & PUBLIC AFFAIRS
p4141
sg9
VNINO, CS
p4142
sg11
V1986
p4143
sg13
VArticle
p4144
sa(dp4145
g3
VWOS:A1991EY78200002
p4146
sg5
VNUCLEAR STALEMATE - A SUPERIOR ESCAPE FROM THE DILEMMAS OF DETERRENCE
p4147
sg7
VPHILOSOPHY & PUBLIC AFFAIRS
p4148
sg9
VSCHONSHECK, J
p4149
sg11
V1991
p4150
sg13
VArticle
p4151
sa(dp4152
g3
VWOS:A1973R219900005
p4153
sg5
VALTRUISM AND COMMERCE - DEFENSE OF TITMUSS AGAINST ARROW
p4154
sg7
VPHILOSOPHY & PUBLIC AFFAIRS
p4155
sg9
VSINGER, P
p4156
sg11
V1973
p4157
sg13
VArticle
p4158
sa(dp4159
g3
VWOS:A1978FC59500006
p4160
sg5
VSTILL A LIVE ISSUE
p4161
sg7
VPHILOSOPHY & PUBLIC AFFAIRS
p4162
sg9
VRUSSELL, B
p4163
sg11
V1978
p4164
sg13
VArticle
p4165
sa(dp4166
g3
VWOS:A1988M707600002
p4167
sg5
VLEGAL THEORY, LEGAL INTERPRETATION, AND JUDICIAL-REVIEW
p4168
sg7
VPHILOSOPHY & PUBLIC AFFAIRS
p4169
sg9
VBRINK, DO
p4170
sg11
V1988
p4171
sg13
VArticle
p4172
sa(dp4173
g3
VWOS:A1973R219900001
p4174
sg5
VMARXISM AND RETRIBUTION
p4175
sg7
VPHILOSOPHY & PUBLIC AFFAIRS
p4176
sg9
VMURPHY, JG
p4177
sg11
V1973
p4178
sg13
VArticle
p4179
sa(dp4180
g3
VWOS:A1992KD19700001
p4181
sg5
VRESPONSIBILITY, REACTIVE ATTITUDES, AND LIBERALISM IN PHILOSOPHY AND POLITICS
p4182
sg7
VPHILOSOPHY & PUBLIC AFFAIRS
p4183
sg9
VSCHEFFLER, S
p4184
sg11
V1992
p4185
sg13
VArticle
p4186
sa(dp4187
g3
VWOS:A1987J379200003
p4188
sg5
VWHAT IF THERE ARE NO POLITICAL OBLIGATIONS - REPLY
p4189
sg7
VPHILOSOPHY & PUBLIC AFFAIRS
p4190
sg9
VSENOR, TD
p4191
sg11
V1987
p4192
sg13
VArticle
p4193
sa(dp4194
g3
VWOS:A1989AF10500002
p4195
sg5
VKILLING, LETTING DIE, AND SIMPLE CONFLICTS
p4196
sg7
VPHILOSOPHY & PUBLIC AFFAIRS
p4197
sg9
VMALM, HM
p4198
sg11
V1989
p4199
sg13
VArticle
p4200
sa(dp4201
g3
VWOS:000228015700002
p4202
sg5
VThe difference uniforms make: Collective violence in criminal law and war
p4203
sg7
VPHILOSOPHY & PUBLIC AFFAIRS
p4204
sg9
VKutz, C
p4205
sg11
V2005
p4206
sg13
VArticle
p4207
sa(dp4208
g3
VWOS:A1994PZ86700001
p4209
sg5
VAN EGALITARIAN LAW OF PEOPLES
p4210
sg7
VPHILOSOPHY & PUBLIC AFFAIRS
p4211
sg9
VPOGGE, TW
p4212
sg11
V1994
p4213
sg13
VArticle
p4214
sa(dp4215
g3
VWOS:000401333500001
p4216
sg5
VPartiality and Retrospective Justification
p4217
sg7
VPHILOSOPHY & PUBLIC AFFAIRS
p4218
sg9
VSalow, Bernhard
p4219
sg11
V2017
p4220
sg13
VArticle
p4221
sa(dp4222
g3
VWOS:A1972Z066400004
p4223
sg5
VBETWEEN OBEDIENCE AND REVOLUTION
p4224
sg7
VPHILOSOPHY & PUBLIC AFFAIRS
p4225
sg9
VFRAZIER, C
p4226
sg11
V1972
p4227
sg13
VArticle
p4228
sa(dp4229
g3
VWOS:000224311500003
p4230
sg5
VJus post bellum
p4231
sg7
VPHILOSOPHY & PUBLIC AFFAIRS
p4232
sg9
VBass, GJ
p4233
sg11
V2004
p4234
sg13
VArticle
p4235
sa(dp4236
g3
VWOS:000346475300002
p4237
sg5
VMust One Be an Ogre to Rationally Prefer Aiding the Nearby to the Distant Needy?
p4238
sg7
VPHILOSOPHY & PUBLIC AFFAIRS
p4239
sg9
VWeymark, John A.
p4240
sg11
V2014
p4241
sg13
VArticle
p4242
sa(dp4243
g3
VWOS:A1997YD33500003
p4244
sg5
VModal properties, moral status, and identity
p4245
sg7
VPHILOSOPHY & PUBLIC AFFAIRS
p4246
sg9
VOderberg, DS
p4247
sg11
V1997
p4248
sg13
VArticle
p4249
sa(dp4250
g3
VWOS:000317603400003
p4251
sg5
VThe Structure of Intergenerational Cooperation
p4252
sg7
VPHILOSOPHY & PUBLIC AFFAIRS
p4253
sg9
VHeath, Joseph
p4254
sg11
V2013
p4255
sg13
VArticle
p4256
sa(dp4257
g3
VWOS:000312547600001
p4258
sg5
VJust Emissions
p4259
sg7
VPHILOSOPHY & PUBLIC AFFAIRS
p4260
sg9
VCaney, Simon
p4261
sg11
V2012
p4262
sg13
VArticle
p4263
sa(dp4264
g3
VWOS:000073921600005
p4265
sg5
VSelf-ownership and equality: A Lockean reconciliation
p4266
sg7
VPHILOSOPHY & PUBLIC AFFAIRS
p4267
sg9
VOtsuka, M
p4268
sg11
V1998
p4269
sg13
VArticle
p4270
sa(dp4271
g3
VWOS:A1978ES21600002
p4272
sg5
VTORTURE
p4273
sg7
VPHILOSOPHY & PUBLIC AFFAIRS
p4274
sg9
VSHUE, H
p4275
sg11
V1978
p4276
sg13
VArticle
p4277
sa(dp4278
g3
VWOS:000181839100005
p4279
sg5
VEquality as the virtue of sovereigns: A reply to Ronald Dworkin
p4280
sg7
VPHILOSOPHY & PUBLIC AFFAIRS
p4281
sg9
VScheffler, S
p4282
sg11
V2003
p4283
sg13
VEditorial Material
p4284
sa(dp4285
g3
VWOS:000177599500003
p4286
sg5
VBrain death and spontaneous breathing
p4287
sg7
VPHILOSOPHY & PUBLIC AFFAIRS
p4288
sg9
VKamm, FM
p4289
sg11
V2001
p4290
sg13
VArticle
p4291
sa(dp4292
g3
VWOS:A1974V029500001
p4293
sg5
VSCHOOL DESEGREGATION - UNCERTAIN PATH OF LAW
p4294
sg7
VPHILOSOPHY & PUBLIC AFFAIRS
p4295
sg9
VFISS, OM
p4296
sg11
V1974
p4297
sg13
VArticle
p4298
sa(dp4299
g3
VWOS:000175255900005
p4300
sg5
VSimplifying "inequality"
p4301
sg7
VPHILOSOPHY & PUBLIC AFFAIRS
p4302
sg9
VCarter, A
p4303
sg11
V2001
p4304
sg13
VArticle
p4305
sa(dp4306
g3
VWOS:A1994NC40100001
p4307
sg5
VEQUALITY, LUCK, AND RESPONSIBILITY
p4308
sg7
VPHILOSOPHY & PUBLIC AFFAIRS
p4309
sg9
VRIPSTEIN, A
p4310
sg11
V1994
p4311
sg13
VArticle
p4312
sa(dp4313
g3
VWOS:A1979HX56300003
p4314
sg5
VPARADOX OF PUNISHMENT
p4315
sg7
VPHILOSOPHY & PUBLIC AFFAIRS
p4316
sg9
VGOLDMAN, AH
p4317
sg11
V1979
p4318
sg13
VArticle
p4319
sa(dp4320
g3
VWOS:A1988Q394000005
p4321
sg5
VTHE TOLERANT SOCIETY - FREEDOM OF SPEECH AND EXTREMIST SPEECH IN AMERICA - BOLLINGER,LC
p4322
sg7
VPHILOSOPHY & PUBLIC AFFAIRS
p4323
sg9
VRICHARDS, DAJ
p4324
sg11
V1988
p4325
sg13
VBook Review
p4326
sa(dp4327
g3
VWOS:A1985ATS8500005
p4328
sg5
VBARGAINING AND COMPROMISE - RECENT WORK ON NEGOTIATION AND INFORMAL JUSTICE
p4329
sg7
VPHILOSOPHY & PUBLIC AFFAIRS
p4330
sg9
VLUBAN, D
p4331
sg11
V1985
p4332
sg13
VArticle
p4333
sa(dp4334
g3
VWOS:000087950900004
p4335
sg5
VDemocratic deliberation within
p4336
sg7
VPHILOSOPHY & PUBLIC AFFAIRS
p4337
sg9
VGoodin, RE
p4338
sg11
V2000
p4339
sg13
VArticle
p4340
sa(dp4341
g3
VWOS:A1996VN08100002
p4342
sg5
VActs and outcomes: A reply to Boonin-Vail (Reprinted from Philosophy & Public Affairs, vol 11, Spring, 1982)
p4343
sg7
VPHILOSOPHY & PUBLIC AFFAIRS
p4344
sg9
VParfit, D
p4345
sg11
V1996
p4346
sg13
VReprint
p4347
sa(dp4348
g3
VWOS:A1976BV57300004
p4349
sg5
VTOOLEYS MORAL SYMMETRY PRINCIPLE
p4350
sg7
VPHILOSOPHY & PUBLIC AFFAIRS
p4351
sg9
VTRAMMELL, RL
p4352
sg11
V1976
p4353
sg13
VArticle
p4354
sa(dp4355
g3
VWOS:A1975V833400005
p4356
sg5
VPARADOX IN THEORY OF DEMOCRACY
p4357
sg7
VPHILOSOPHY & PUBLIC AFFAIRS
p4358
sg9
VGOLDSTICK, D
p4359
sg11
V1975
p4360
sg13
VLetter
p4361
sa(dp4362
g3
VWOS:A1986AZJ6300004
p4363
sg5
VA NOTE ON INTERNALISM
p4364
sg7
VPHILOSOPHY & PUBLIC AFFAIRS
p4365
sg9
VTHOMSON, JJ
p4366
sg11
V1986
p4367
sg13
VArticle
p4368
sa(dp4369
g3
VWOS:A1992HY25900003
p4370
sg5
VTHE PROJECT OF RECONCILIATION - HEGEL SOCIAL PHILOSOPHY
p4371
sg7
VPHILOSOPHY & PUBLIC AFFAIRS
p4372
sg9
VHARDIMON, MO
p4373
sg11
V1992
p4374
sg13
VArticle
p4375
sa(dp4376
g3
VWOS:A1978FR97100004
p4377
sg5
VMARX ON INTERNATIONALISM AND WAR
p4378
sg7
VPHILOSOPHY & PUBLIC AFFAIRS
p4379
sg9
VGILBERT, A
p4380
sg11
V1978
p4381
sg13
VArticle
p4382
sa(dp4383
g3
VWOS:000077479200003
p4384
sg5
VIncentives, inequality, and publicity
p4385
sg7
VPHILOSOPHY & PUBLIC AFFAIRS
p4386
sg9
VWilliams, A
p4387
sg11
V1998
p4388
sg13
VArticle
p4389
sa(dp4390
g3
VWOS:A1980KL30400003
p4391
sg5
VCHILDREN, PATERNALISM, AND EDUCATION - A LIBERAL ARGUMENT
p4392
sg7
VPHILOSOPHY & PUBLIC AFFAIRS
p4393
sg9
VGUTMANN, A
p4394
sg11
V1980
p4395
sg13
VArticle
p4396
sa(dp4397
g3
VWOS:000245944500001
p4398
sg5
VImmigration and the significance of culture
p4399
sg7
VPHILOSOPHY & PUBLIC AFFAIRS
p4400
sg9
VScheffler, Samuel
p4401
sg11
V2007
p4402
sg13
VArticle
p4403
sa(dp4404
g3
VWOS:A1988L866100004
p4405
sg5
VVALUES, RISKS, AND MARKET NORMS
p4406
sg7
VPHILOSOPHY & PUBLIC AFFAIRS
p4407
sg9
VANDERSON, E
p4408
sg11
V1988
p4409
sg13
VArticle
p4410
sa(dp4411
g3
VWOS:000243755900002
p4412
sg5
VEnfranchising all affected interests, and its alternatives
p4413
sg7
VPHILOSOPHY & PUBLIC AFFAIRS
p4414
sg9
VGoodin, Robert E.
p4415
sg11
V2007
p4416
sg13
VArticle
p4417
sa(dp4418
g3
VWOS:A1973R526300001
p4419
sg5
VIMPERIALISM - SOME PRELIMINARY DISTINCTIONS
p4420
sg7
VPHILOSOPHY & PUBLIC AFFAIRS
p4421
sg9
VMORGENBESSER, S
p4422
sg11
V1973
p4423
sg13
VArticle
p4424
sa(dp4425
g3
VWOS:000238425800001
p4426
sg5
VBeyond the harm principle
p4427
sg7
VPHILOSOPHY & PUBLIC AFFAIRS
p4428
sg9
VRipstein, A
p4429
sg11
V2006
p4430
sg13
VArticle
p4431
sa(dp4432
g3
VWOS:A1994PZ86700004
p4433
sg5
VACCEPTANCE OF AUTHORITY AND THE DUTY TO COMPLY WITH JUST INSTITUTIONS - A COMMENT ON WALDRON
p4434
sg7
VPHILOSOPHY & PUBLIC AFFAIRS
p4435
sg9
VMURPHY, MC
p4436
sg11
V1994
p4437
sg13
VArticle
p4438
sa(dp4439
g3
VWOS:000222334000001
p4440
sg5
VPreventive war
p4441
sg7
VPHILOSOPHY & PUBLIC AFFAIRS
p4442
sg9
VLuban, D
p4443
sg11
V2004
p4444
sg13
VArticle
p4445
sa(dp4446
g3
VWOS:A1985APA8500001
p4447
sg5
VJUSTICE AS FAIRNESS - POLITICAL NOT METAPHYSICAL
p4448
sg7
VPHILOSOPHY & PUBLIC AFFAIRS
p4449
sg9
VRAWLS, J
p4450
sg11
V1985
p4451
sg13
VArticle
p4452
sa(dp4453
g3
VWOS:000363883000003
p4454
sg5
VProportionality, Liability, and Defensive Harm
p4455
sg7
VPHILOSOPHY & PUBLIC AFFAIRS
p4456
sg9
VQuong, Jonathan
p4457
sg11
V2015
p4458
sg13
VArticle
p4459
sa(dp4460
g3
VWOS:000353241200004
p4461
sg5
VWrongful Intentions without Closeness
p4462
sg7
VPHILOSOPHY & PUBLIC AFFAIRS
p4463
sg9
VTadros, Victor
p4464
sg11
V2015
p4465
sg13
VArticle
p4466
sa(dp4467
g3
VWOS:000346495900001
p4468
sg5
VRule Over None II: Social Equality and the Justification of Democracy
p4469
sg7
VPHILOSOPHY & PUBLIC AFFAIRS
p4470
sg9
VKolodny, Niko
p4471
sg11
V2014
p4472
sg13
VArticle
p4473
sa(dp4474
g3
VWOS:000222334000002
p4475
sg5
VThe many as one: Integrity and group choice in paradoxical cases
p4476
sg7
VPHILOSOPHY & PUBLIC AFFAIRS
p4477
sg9
VKornhauser, LA
p4478
sg11
V2004
p4479
sg13
VArticle
p4480
sa(dp4481
g3
VWOS:A1989T787200004
p4482
sg5
VTHE TRIAL OF SOCRATES - STONE,IF
p4483
sg7
VPHILOSOPHY & PUBLIC AFFAIRS
p4484
sg9
VIRWIN, TH
p4485
sg11
V1989
p4486
sg13
VBook Review
p4487
sa(dp4488
g3
VWOS:A1986AZJ6300001
p4489
sg5
VHARMING, NOT AIDING, AND POSITIVE RIGHTS
p4490
sg7
VPHILOSOPHY & PUBLIC AFFAIRS
p4491
sg9
VKAMM, FM
p4492
sg11
V1986
p4493
sg13
VArticle
p4494
sa(dp4495
g3
VWOS:000320619200001
p4496
sg5
VImmigration, Jurisdiction, and Exclusion
p4497
sg7
VPHILOSOPHY & PUBLIC AFFAIRS
p4498
sg9
VBlake, Michael
p4499
sg11
V2013
p4500
sg13
VArticle
p4501
sa(dp4502
g3
VWOS:A1978ES21600003
p4503
sg5
VDIAGNOSING DEATH
p4504
sg7
VPHILOSOPHY & PUBLIC AFFAIRS
p4505
sg9
VLAMB, D
p4506
sg11
V1978
p4507
sg13
VArticle
p4508
sa(dp4509
g3
VWOS:000270830500002
p4510
sg5
VNeuroscience and Moral Reasoning: A Note on Recent Research
p4511
sg7
VPHILOSOPHY & PUBLIC AFFAIRS
p4512
sg9
VKamm, F. M.
p4513
sg11
V2009
p4514
sg13
VArticle
p4515
sa(dp4516
g3
VWOS:000175255900004
p4517
sg5
VMust egalitarians choose between fairness and respect?
p4518
sg7
VPHILOSOPHY & PUBLIC AFFAIRS
p4519
sg9
VHinton, T
p4520
sg11
V2001
p4521
sg13
VArticle
p4522
sa(dp4523
g3
VWOS:000262106600002
p4524
sg5
VLegitimate Parental Partiality
p4525
sg7
VPHILOSOPHY & PUBLIC AFFAIRS
p4526
sg9
VBrighouse, Harry
p4527
sg11
V2009
p4528
sg13
VArticle
p4529
sa(dp4530
g3
VWOS:A1996VA43400003
p4531
sg5
VLiability and risk
p4532
sg7
VPHILOSOPHY & PUBLIC AFFAIRS
p4533
sg9
VMcCarthy, D
p4534
sg11
V1996
p4535
sg13
VArticle
p4536
sa(dp4537
g3
VWOS:A1994NV75500003
p4538
sg5
VGUILTY BYSTANDERS - ON THE LEGITIMACY OF DUTY TO RESCUE STATUTES
p4539
sg7
VPHILOSOPHY & PUBLIC AFFAIRS
p4540
sg9
VMCINTYRE, A
p4541
sg11
V1994
p4542
sg13
VArticle
p4543
sa(dp4544
g3
VWOS:A1976BL10000001
p4545
sg5
VGROUPS AND EQUAL-PROTECTION CLAUSE
p4546
sg7
VPHILOSOPHY & PUBLIC AFFAIRS
p4547
sg9
VFISS, OM
p4548
sg11
V1976
p4549
sg13
VArticle
p4550
sa(dp4551
g3
VWOS:A1992JQ43700002
p4552
sg5
VDEMOCRATIC LEGITIMACY AND OFFICIAL DISCRETION
p4553
sg7
VPHILOSOPHY & PUBLIC AFFAIRS
p4554
sg9
VAPPLBAUM, AI
p4555
sg11
V1992
p4556
sg13
VArticle
p4557
sa(dp4558
g3
VWOS:A1986E678900004
p4559
sg5
VTHE MORAL LIMITS OF THE CRIMINAL-LAW, VOL 1, HARM TO OTHERS, VOL 2, OFFENSE TO OTHERS - FEINBERG,J
p4560
sg7
VPHILOSOPHY & PUBLIC AFFAIRS
p4561
sg9
VTHOMSON, JJ
p4562
sg11
V1986
p4563
sg13
VBook Review
p4564
sa(dp4565
g3
VWOS:A1989AV72300005
p4566
sg5
VSOCIAL CHOICE AND SOCIAL THEORIES
p4567
sg7
VPHILOSOPHY & PUBLIC AFFAIRS
p4568
sg9
VSEABRIGHT, P
p4569
sg11
V1989
p4570
sg13
VArticle
p4571
sa(dp4572
g3
VWOS:A1995TQ11600003
p4573
sg5
VWilt Chamberlain revisited: Nozick's ''justice in transfer'' and the problem of market-based distribution
p4574
sg7
VPHILOSOPHY & PUBLIC AFFAIRS
p4575
sg9
VFried, B
p4576
sg11
V1995
p4577
sg13
VArticle
p4578
sa(dp4579
g3
VWOS:A1979GZ87200004
p4580
sg5
VMARX ON RIGHT AND JUSTICE - REPLY TO HUSAMI
p4581
sg7
VPHILOSOPHY & PUBLIC AFFAIRS
p4582
sg9
VWOOD, AW
p4583
sg11
V1979
p4584
sg13
VArticle
p4585
sa(dp4586
g3
VWOS:A1977DH33200004
p4587
sg5
VEQUALITY, SOLIDARITY, AND RAWLS MAXIMIN
p4588
sg7
VPHILOSOPHY & PUBLIC AFFAIRS
p4589
sg9
VCROCKER, L
p4590
sg11
V1977
p4591
sg13
VArticle
p4592
sa(dp4593
g3
VWOS:A1986AZJ6300003
p4594
sg5
VCAUSATION, LIABILITY, AND INTERNALISM
p4595
sg7
VPHILOSOPHY & PUBLIC AFFAIRS
p4596
sg9
VKAGAN, S
p4597
sg11
V1986
p4598
sg13
VArticle
p4599
sa(dp4600
g3
VWOS:A1997WK48600001
p4601
sg5
VWhere the action is: On the site of distributive justice
p4602
sg7
VPHILOSOPHY & PUBLIC AFFAIRS
p4603
sg9
VCohen, GA
p4604
sg11
V1997
p4605
sg13
VArticle
p4606
sa(dp4607
g3
VWOS:A1985APA8500004
p4608
sg5
VFEMINISM AND EPISTEMOLOGY - RECENT WORK ON THE CONNECTION BETWEEN GENDER AND KNOWLEDGE
p4609
sg7
VPHILOSOPHY & PUBLIC AFFAIRS
p4610
sg9
VHELD, V
p4611
sg11
V1985
p4612
sg13
VArticle
p4613
sa(dp4614
g3
VWOS:000261079400004
p4615
sg5
VRethinking Sovereignty, Rethinking Revolution
p4616
sg7
VPHILOSOPHY & PUBLIC AFFAIRS
p4617
sg9
VSmith, Matthew Noah
p4618
sg11
V2008
p4619
sg13
VArticle
p4620
sa(dp4621
g3
VWOS:000454442800002
p4622
sg5
VAlways Aggregate
p4623
sg7
VPHILOSOPHY & PUBLIC AFFAIRS
p4624
sg9
VHorton, Joe
p4625
sg11
V2018
p4626
sg13
VArticle
p4627
sa(dp4628
g3
VWOS:000418435200003
p4629
sg5
VIn Defense of a Political Liberalism
p4630
sg7
VPHILOSOPHY & PUBLIC AFFAIRS
p4631
sg9
VWeithman, Paul
p4632
sg11
V2017
p4633
sg13
VArticle
p4634
sa(dp4635
g3
VWOS:000418435200001
p4636
sg5
VEqual Subjects
p4637
sg7
VPHILOSOPHY & PUBLIC AFFAIRS
p4638
sg9
VLopez-Guerra, Claudio
p4639
sg11
V2017
p4640
sg13
VArticle
p4641
sa(dp4642
g3
VWOS:A1988Q394000003
p4643
sg5
VTHE EQUALIZATION OF LEGAL RESOURCES
p4644
sg7
VPHILOSOPHY & PUBLIC AFFAIRS
p4645
sg9
VWERTHEIMER, A
p4646
sg11
V1988
p4647
sg13
VArticle
p4648
sa(dp4649
g3
VWOS:000222334000003
p4650
sg5
VJustice in reparations: The cost of memory and the value of talk
p4651
sg7
VPHILOSOPHY & PUBLIC AFFAIRS
p4652
sg9
VKutz, C
p4653
sg11
V2004
p4654
sg13
VArticle
p4655
sa(dp4656
g3
VWOS:000302619800003
p4657
sg5
VConsequentialism and the Problem of Collective Harm: A Reply to Kagan
p4658
sg7
VPHILOSOPHY & PUBLIC AFFAIRS
p4659
sg9
VNefsky, Julia
p4660
sg11
V2011
p4661
sg13
VArticle
p4662
sa(dp4663
g3
VWOS:000297919300002
p4664
sg5
VAn Institutional Conception of Authority
p4665
sg7
VPHILOSOPHY & PUBLIC AFFAIRS
p4666
sg9
VMarmor, Andrei
p4667
sg11
V2011
p4668
sg13
VArticle
p4669
sa(dp4670
g3
VWOS:A1984SH40600002
p4671
sg5
VALIENATION, CONSEQUENTIALISM, AND THE DEMANDS OF MORALITY
p4672
sg7
VPHILOSOPHY & PUBLIC AFFAIRS
p4673
sg9
VRAILTON, P
p4674
sg11
V1984
p4675
sg13
VArticle
p4676
sa(dp4677
g3
VWOS:A1992HE32300002
p4678
sg5
VLIBERALISM AND THE PARADOX OF BLACKMAIL
p4679
sg7
VPHILOSOPHY & PUBLIC AFFAIRS
p4680
sg9
VGORR, M
p4681
sg11
V1992
p4682
sg13
VArticle
p4683
sa(dp4684
g3
VWOS:000279939300002
p4685
sg5
VThe Endowment Tax Puzzle
p4686
sg7
VPHILOSOPHY & PUBLIC AFFAIRS
p4687
sg9
VOlson, Kristi A.
p4688
sg11
V2010
p4689
sg13
VArticle
p4690
sa(dp4691
g3
VWOS:A1990CN14900003
p4692
sg5
VIS WOMENS LABOR A COMMODITY
p4693
sg7
VPHILOSOPHY & PUBLIC AFFAIRS
p4694
sg9
VANDERSON, ES
p4695
sg11
V1990
p4696
sg13
VArticle
p4697
sa(dp4698
g3
VWOS:A1991FP72300004
p4699
sg5
VLIBERALISM, ABORIGINAL RIGHTS, AND CULTURAL MINORITIES
p4700
sg7
VPHILOSOPHY & PUBLIC AFFAIRS
p4701
sg9
VDANLEY, JR
p4702
sg11
V1991
p4703
sg13
VArticle
p4704
sa(dp4705
g3
VWOS:000179565200004
p4706
sg5
VRespect for persons and perfectionist politics
p4707
sg7
VPHILOSOPHY & PUBLIC AFFAIRS
p4708
sg9
VMetz, T
p4709
sg11
V2001
p4710
sg13
VArticle
p4711
sa(dp4712
g3
VWOS:000175255900003
p4713
sg5
VTaxes, redistribution, and public provision
p4714
sg7
VPHILOSOPHY & PUBLIC AFFAIRS
p4715
sg9
VMurphy, L
p4716
sg11
V2001
p4717
sg13
VArticle
p4718
sa(dp4719
g3
VWOS:000262106600001
p4720
sg5
VTruth and Public Reason
p4721
sg7
VPHILOSOPHY & PUBLIC AFFAIRS
p4722
sg9
VCohen, Joshua
p4723
sg11
V2009
p4724
sg13
VArticle
p4725
sa(dp4726
g3
VWOS:A1976CN02500003
p4727
sg5
VPATERNALISTIC BEHAVIOR
p4728
sg7
VPHILOSOPHY & PUBLIC AFFAIRS
p4729
sg9
VGERT, B
p4730
sg11
V1976
p4731
sg13
VArticle
p4732
sa(dp4733
g3
VWOS:A1973R219800001
p4734
sg5
VRIGHTS AND WRONGS OF ABORTION - REPLY TO THOMSON,J
p4735
sg7
VPHILOSOPHY & PUBLIC AFFAIRS
p4736
sg9
VFINNIS, J
p4737
sg11
V1973
p4738
sg13
VArticle
p4739
sa(dp4740
g3
VWOS:A1990CW78200001
p4741
sg5
VJUSTICE - MEANS VERSUS FREEDOMS
p4742
sg7
VPHILOSOPHY & PUBLIC AFFAIRS
p4743
sg9
VSEN, A
p4744
sg11
V1990
p4745
sg13
VArticle
p4746
sa(dp4747
g3
VWOS:A1982NV01500003
p4748
sg5
VARE HUMAN-RIGHTS UTOPIAN
p4749
sg7
VPHILOSOPHY & PUBLIC AFFAIRS
p4750
sg9
VNICKEL, JW
p4751
sg11
V1982
p4752
sg13
VArticle
p4753
sa(dp4754
g3
VWOS:A1983QW89100004
p4755
sg5
VDOUBTS ABOUT UNILATERAL NUCLEAR DISARMAMENT
p4756
sg7
VPHILOSOPHY & PUBLIC AFFAIRS
p4757
sg9
VKAVKA, GS
p4758
sg11
V1983
p4759
sg13
VArticle
p4760
sa(dp4761
g3
VWOS:A1981MH21100003
p4762
sg5
VSUBSIDIZED ABORTION - MORAL RIGHTS AND MORAL COMPROMISE
p4763
sg7
VPHILOSOPHY & PUBLIC AFFAIRS
p4764
sg9
VSHER, G
p4765
sg11
V1981
p4766
sg13
VArticle
p4767
sa(dp4768
g3
VWOS:A1976BV57300003
p4769
sg5
VHARM TO UNCONCEIVED
p4770
sg7
VPHILOSOPHY & PUBLIC AFFAIRS
p4771
sg9
VBAYLES, MD
p4772
sg11
V1976
p4773
sg13
VArticle
p4774
sa(dp4775
g3
VWOS:A1996VA43400001
p4776
sg5
VA continuum argument for intransitivity
p4777
sg7
VPHILOSOPHY & PUBLIC AFFAIRS
p4778
sg9
VTemkin, LS
p4779
sg11
V1996
p4780
sg13
VArticle
p4781
sa(dp4782
g3
VWOS:000073921600004
p4783
sg5
VSpeed limits, human lives, and convenience: A reply to Ridge
p4784
sg7
VPHILOSOPHY & PUBLIC AFFAIRS
p4785
sg9
VNorcross, A
p4786
sg11
V1998
p4787
sg13
VArticle
p4788
sa(dp4789
g3
VWOS:A1995RT06500002
p4790
sg5
VNEUTRALITY, PUBLICITY, AND STATE FUNDING OF THE ARTS
p4791
sg7
VPHILOSOPHY & PUBLIC AFFAIRS
p4792
sg9
VBRIGHOUSE, H
p4793
sg11
V1995
p4794
sg13
VArticle
p4795
sa(dp4796
g3
VWOS:A1983QL19000005
p4797
sg5
VMORE ON COERCIVE WAGE OFFERS - A REPLY TO ALEXANDER
p4798
sg7
VPHILOSOPHY & PUBLIC AFFAIRS
p4799
sg9
VZIMMERMAN, D
p4800
sg11
V1983
p4801
sg13
VArticle
p4802
sa(dp4803
g3
VWOS:A1986AZJ6300006
p4804
sg5
VOF BINDINGS AND BY-PRODUCTS - ELSTER ON RATIONALITY
p4805
sg7
VPHILOSOPHY & PUBLIC AFFAIRS
p4806
sg9
VHUBIN, DC
p4807
sg11
V1986
p4808
sg13
VReview
p4809
sa(dp4810
g3
VWOS:A1984ST42400002
p4811
sg5
VTHE MORAL EDUCATION THEORY OF PUNISHMENT
p4812
sg7
VPHILOSOPHY & PUBLIC AFFAIRS
p4813
sg9
VHAMPTON, J
p4814
sg11
V1984
p4815
sg13
VArticle
p4816
sa(dp4817
g3
VWOS:A1981KX25500002
p4818
sg5
VVIABILITY AND THE MORALITY OF ABORTION
p4819
sg7
VPHILOSOPHY & PUBLIC AFFAIRS
p4820
sg9
VZAITCHIK, A
p4821
sg11
V1981
p4822
sg13
VArticle
p4823
sa.