(lp1
(dp2
S'uid'
p3
VWOS:000308346400003
p4
sS'title'
p5
VIn Defence of the Priority View
p6
sS'journal'
p7
VUTILITAS
p8
sS'author'
p9
VPorter, Thomas
p10
sS'year'
p11
V2012
p12
sS'doctype'
p13
VArticle
p14
sa(dp15
g3
VWOS:000291859600004
p16
sg5
VTwinning and Fusion as Arguments against the Moral Standing of the Early Human Embryo
p17
sg7
VUTILITAS
p18
sg9
VRamsay, Marc
p19
sg11
V2011
p20
sg13
VArticle
p21
sa(dp22
g3
VWOS:000284040800001
p23
sg5
VDavid Hume as a Social Theorist
p24
sg7
VUTILITAS
p25
sg9
VBarry, Brian
p26
sg11
V2010
p27
sg13
VArticle
p28
sa(dp29
g3
VWOS:000281675300011
p30
sg5
VWhy Read Mill Today?
p31
sg7
VUTILITAS
p32
sg9
VZakaras, Alex
p33
sg11
V2010
p34
sg13
VBook Review
p35
sa(dp36
g3
VWOS:000375949900008
p37
sg5
VBritish Ethical Theorists from Sidgwick to Ewing
p38
sg7
VUTILITAS
p39
sg9
VOlson, Jonas
p40
sg11
V2016
p41
sg13
VBook Review
p42
sa(dp43
g3
VWOS:000375949900004
p44
sg5
VThe Supererogatory and How Not To Accommodate It: A Reply to Dorsey
p45
sg7
VUTILITAS
p46
sg9
VArcher, Alfred
p47
sg11
V2016
p48
sg13
VArticle
p49
sa(dp50
g3
VWOS:000350581700002
p51
sg5
V'A medicine for my state of mind': The Role of Wordsworth in John Stuart Mill's Moral and Psychological Development
p52
sg7
VUTILITAS
p53
sg9
VMcKinnell, Liz
p54
sg11
V2015
p55
sg13
VArticle
p56
sa(dp57
g3
VWOS:000287977900006
p58
sg5
VIntuitions and the Demands of Consequentialism
p59
sg7
VUTILITAS
p60
sg9
VTedesco, Matthew
p61
sg11
V2011
p62
sg13
VArticle
p63
sa(dp64
g3
VWOS:000284040800008
p65
sg5
VNo Argument against the Continuity of Value: Reply to Dorsey
p66
sg7
VUTILITAS
p67
sg9
VBroome, John
p68
sg11
V2010
p69
sg13
VEditorial Material
p70
sa(dp71
g3
VWOS:000270167700002
p72
sg5
VMill, Sentimentalism and the Problem of Moral Authority
p73
sg7
VUTILITAS
p74
sg9
VCallcut, Daniel
p75
sg11
V2009
p76
sg13
VArticle
p77
sa(dp78
g3
VWOS:000434294500001
p79
sg5
VGood Night and Good Luck: In Search of a Neuroscience Challenge to Criminal Justice
p80
sg7
VUTILITAS
p81
sg9
VThomsen, Frej Klem
p82
sg11
V2018
p83
sg13
VArticle
p84
sa(dp85
g3
VWOS:000400958200006
p86
sg5
VJeremy Bentham: Nonsense upon Stilts
p87
sg7
VUTILITAS
p88
sg9
VThiele, Ulrich
p89
sg11
V2017
p90
sg13
VBook Review
p91
sa(dp92
g3
VWOS:000358833600005
p93
sg5
VUtilitarianism, Multiplicity and Liberalism
p94
sg7
VUTILITAS
p95
sg9
VSebo, Jeff
p96
sg11
V2015
p97
sg13
VArticle
p98
sa(dp99
g3
VWOS:000331602600006
p100
sg5
VClues for Consequentialists
p101
sg7
VUTILITAS
p102
sg9
VBurch-Brown, Joanna M.
p103
sg11
V2014
p104
sg13
VArticle
p105
sa(dp106
g3
VWOS:000330361100004
p107
sg5
VEconomics and Ethics under the Same Umbrella: Edgeworth's 'Exact Utilitarianism', 1877-1881
p108
sg7
VUTILITAS
p109
sg9
VKaminitz, Shiri Cohen
p110
sg11
V2013
p111
sg13
VArticle
p112
sa(dp113
g3
VWOS:000308346400002
p114
sg5
VPriority, Preference and Value
p115
sg7
VUTILITAS
p116
sg9
VO'Neill, Martin
p117
sg11
V2012
p118
sg13
VArticle
p119
sa(dp120
g3
VWOS:000270261600009
p121
sg5
VConsequentialism, Integrity, and Ordinary Morality
p122
sg7
VUTILITAS
p123
sg9
VRajczi, Alex
p124
sg11
V2009
p125
sg13
VArticle
p126
sa(dp127
g3
VWOS:000365163400003
p128
sg5
VConsequentialism about Meaning in Life
p129
sg7
VUTILITAS
p130
sg9
VBramble, Ben
p131
sg11
V2015
p132
sg13
VArticle
p133
sa(dp134
g3
VWOS:000365163400004
p135
sg5
VFairness and Aggregation
p136
sg7
VUTILITAS
p137
sg9
VPaseau, A. C.
p138
sg11
V2015
p139
sg13
VArticle
p140
sa(dp141
g3
VWOS:000340945100002
p142
sg5
VOverdemanding Consequentialism? An Experimental Approach
p143
sg7
VUTILITAS
p144
sg9
VBruder, Martin
p145
sg11
V2014
p146
sg13
VArticle
p147
sa(dp148
g3
VWOS:000337707500003
p149
sg5
VSometimes Psychopaths get it Right: A Utilitarian Response to 'The Mismeasure of Morals'
p150
sg7
VUTILITAS
p151
sg9
VPaytas, Tyler
p152
sg11
V2014
p153
sg13
VArticle
p154
sa(dp155
g3
VWOS:000321058600003
p156
sg5
VPlaying Dice with Morality: Weighted Lotteries and the Number Problem
p157
sg7
VUTILITAS
p158
sg9
VDoucet, Mathieu
p159
sg11
V2013
p160
sg13
VArticle
p161
sa(dp162
g3
VWOS:000304305400007
p163
sg5
VIndividual Liability in War: A Response to Fabre, Leveringhaus and Tadros
p164
sg7
VUTILITAS
p165
sg9
VMcMahan, Jeff
p166
sg11
V2012
p167
sg13
VArticle
p168
sa(dp169
g3
VWOS:000291859600002
p170
sg5
VWhat's Special about the State?
p171
sg7
VUTILITAS
p172
sg9
Vde Bres, Helena
p173
sg11
V2011
p174
sg13
VArticle
p175
sa(dp176
g3
VWOS:000409042800003
p177
sg5
VSpecies Membership and the Veil of Ignorance: What Principles of Justice would the Representatives of all Animals Choose?
p178
sg7
VUTILITAS
p179
sg9
VLiberto, Hallie
p180
sg11
V2017
p181
sg13
VArticle
p182
sa(dp183
g3
VWOS:000382375100001
p184
sg5
VValue and Preference Relations: Are They Symmetric?
p185
sg7
VUTILITAS
p186
sg9
VRossi, Mauro
p187
sg11
V2016
p188
sg13
VArticle
p189
sa(dp190
g3
VWOS:000375949900006
p191
sg5
VShould We Prevent Optimific Wrongs?
p192
sg7
VUTILITAS
p193
sg9
VMogensen, Andreas L.
p194
sg11
V2016
p195
sg13
VArticle
p196
sa(dp197
g3
VWOS:000370688100007
p198
sg5
VWeighting Surprise Parties: Some Problems for Schroeder
p199
sg7
VUTILITAS
p200
sg9
VRisberg, Olle
p201
sg11
V2016
p202
sg13
VArticle
p203
sa(dp204
g3
VWOS:000337707500006
p205
sg5
VDead and Gone? Reply to Jenkins
p206
sg7
VUTILITAS
p207
sg9
VEkendahl, Karl
p208
sg11
V2014
p209
sg13
VArticle
p210
sa(dp211
g3
VWOS:000330361100003
p212
sg5
VHuman Rights, Claimability and the Uses of Abstraction
p213
sg7
VUTILITAS
p214
sg9
VEtinson, Adam
p215
sg11
V2013
p216
sg13
VArticle
p217
sa(dp218
g3
VWOS:000311685500005
p219
sg5
VWhat Is the Point of Justice?
p220
sg7
VUTILITAS
p221
sg9
VMason, Andrew
p222
sg11
V2012
p223
sg13
VArticle
p224
sa(dp225
g3
VWOS:000274712000001
p226
sg5
VMoral Schizophrenia and the Paradox of Friendship
p227
sg7
VUTILITAS
p228
sg9
VWoodcock, Scott
p229
sg11
V2010
p230
sg13
VArticle
p231
sa(dp232
g3
VWOS:000434295800006
p233
sg5
VUnconscious Pleasures and Attitudinal Theories of Pleasure
p234
sg7
VUTILITAS
p235
sg9
VHeathwood, Chris
p236
sg11
V2018
p237
sg13
VArticle
p238
sa(dp239
g3
VWOS:000370688100001
p240
sg5
VMill on Mental Health Acts
p241
sg7
VUTILITAS
p242
sg9
VBrowne, Alister
p243
sg11
V2016
p244
sg13
VArticle
p245
sa(dp246
g3
VWOS:000358833600002
p247
sg5
VAge and Death: A Defence of Gradualism
p248
sg7
VUTILITAS
p249
sg9
VMillum, Joseph
p250
sg11
V2015
p251
sg13
VArticle
p252
sa(dp253
g3
VWOS:000337707500008
p254
sg5
VThe Dimensions of Consequentialism: Ethics, Equality and Risk
p255
sg7
VUTILITAS
p256
sg9
VBurch-Brown, Joanna M.
p257
sg11
V2014
p258
sg13
VBook Review
p259
sa(dp260
g3
VWOS:000330361100002
p261
sg5
VThe Problem of Paternal Motives
p262
sg7
VUTILITAS
p263
sg9
VMills, Chris
p264
sg11
V2013
p265
sg13
VArticle
p266
sa(dp267
g3
VWOS:000308346400005
p268
sg5
VEgalitarianism and the Separateness of Persons
p269
sg7
VUTILITAS
p270
sg9
VVoorhoeve, Alex
p271
sg11
V2012
p272
sg13
VArticle
p273
sa(dp274
g3
VWOS:000297602700002
p275
sg5
VUtilitarianism and Recourse to War
p276
sg7
VUTILITAS
p277
sg9
VShaw, William H.
p278
sg11
V2011
p279
sg13
VArticle
p280
sa(dp281
g3
VWOS:000291859600008
p282
sg5
VThe Pursuit of Unhappiness: The Elusive Psychology of Well-Being
p283
sg7
VUTILITAS
p284
sg9
VHawkins, Jennifer
p285
sg11
V2011
p286
sg13
VBook Review
p287
sa(dp288
g3
VWOS:000434295800009
p289
sg5
VFree Will, Agency and Meaning in Life
p290
sg7
VUTILITAS
p291
sg9
VJeppsson, Sofia
p292
sg11
V2018
p293
sg13
VBook Review
p294
sa(dp295
g3
VWOS:000398202600008
p296
sg5
VMeasuring the Consequences of Rules: A Reply to Smith
p297
sg7
VUTILITAS
p298
sg9
VYeo, Shang Long
p299
sg11
V2017
p300
sg13
VEditorial Material
p301
sa(dp302
g3
VWOS:000398202600005
p303
sg5
VCalibrating QALYs to Respect Equality of Persons
p304
sg7
VUTILITAS
p305
sg9
VFranklin, Donald
p306
sg11
V2017
p307
sg13
VArticle
p308
sa(dp309
g3
VWOS:000311685500002
p310
sg5
VEmpirical and Armchair Ethics
p311
sg7
VUTILITAS
p312
sg9
VBognar, Greg
p313
sg11
V2012
p314
sg13
VArticle
p315
sa(dp316
g3
VWOS:000297602700004
p317
sg5
VNo Philosophy for Swine: John Stuart Mill on the Quality of Pleasures
p318
sg7
VUTILITAS
p319
sg9
VHauskeller, Michael
p320
sg11
V2011
p321
sg13
VArticle
p322
sa(dp323
g3
VWOS:000284040800011
p324
sg5
VHealth, Luck, and Justice
p325
sg7
VUTILITAS
p326
sg9
VFleurbaey, Marc
p327
sg11
V2010
p328
sg13
VBook Review
p329
sa(dp330
g3
VWOS:000284040800009
p331
sg5
VWeighing Lives
p332
sg7
VUTILITAS
p333
sg9
VBykvist, Krister
p334
sg11
V2010
p335
sg13
VBook Review
p336
sa(dp337
g3
VWOS:000272646600008
p338
sg5
VGoodness and Justice: A Consequentialist Moral Theory
p339
sg7
VUTILITAS
p340
sg9
VCummiskey, David
p341
sg11
V2009
p342
sg13
VBook Review
p343
sa(dp344
g3
VWOS:000270261600006
p345
sg5
VTruth and Acceptance Conditions for Moral Statements Can Be Identical: Further Support for Subjective Consequentialism
p346
sg7
VUTILITAS
p347
sg9
VForschler, Scott
p348
sg11
V2009
p349
sg13
VArticle
p350
sa(dp351
g3
VWOS:000447883400002
p352
sg5
VMoral Uncertainty and Moral Culpability
p353
sg7
VUTILITAS
p354
sg9
VGeyer, Jay
p355
sg11
V2018
p356
sg13
VArticle
p357
sa(dp358
g3
VWOS:000434295800002
p359
sg5
VThe Institutional Critique of Effective Altruism
p360
sg7
VUTILITAS
p361
sg9
VBerkey, Brian
p362
sg11
V2018
p363
sg13
VArticle
p364
sa(dp365
g3
VWOS:000340945100003
p366
sg5
VConsequentialist Options
p367
sg7
VUTILITAS
p368
sg9
VSuikkanen, Jussi
p369
sg11
V2014
p370
sg13
VArticle
p371
sa(dp372
g3
VWOS:000323728300002
p373
sg5
VMore on the Comparative Nature of Desert: Can a Deserved Punishment Be Unjust?
p374
sg7
VUTILITAS
p375
sg9
VAvraham, Ronen
p376
sg11
V2013
p377
sg13
VArticle
p378
sa(dp379
g3
VWOS:000316071300005
p380
sg5
VShould Utilitarianism Be Scalar?
p381
sg7
VUTILITAS
p382
sg9
VLang, Gerald
p383
sg11
V2013
p384
sg13
VArticle
p385
sa(dp386
g3
VWOS:000297602700007
p387
sg5
VWhat is This Thing Called Happiness?
p388
sg7
VUTILITAS
p389
sg9
VAngner, Erik
p390
sg11
V2011
p391
sg13
VBook Review
p392
sa(dp393
g3
VWOS:000294998600008
p394
sg5
VDistributive Justice and Disability: Utilitarianism against Egalitarianism
p395
sg7
VUTILITAS
p396
sg9
VOlsaretti, Serena
p397
sg11
V2011
p398
sg13
VBook Review
p399
sa(dp400
g3
VWOS:000284040800006
p401
sg5
VHow the Sufficiency Minimum Becomes a Social Maximum
p402
sg7
VUTILITAS
p403
sg9
VWiderquist, Karl
p404
sg11
V2010
p405
sg13
VArticle
p406
sa(dp407
g3
VWOS:000278765600004
p408
sg5
VHedonism and the Variety of Goodness
p409
sg7
VUTILITAS
p410
sg9
VHaines, William A.
p411
sg11
V2010
p412
sg13
VArticle
p413
sa(dp414
g3
VWOS:000447883400008
p415
sg5
VUtilitarianism: A Very Short Introduction
p416
sg7
VUTILITAS
p417
sg9
VSchultz, Bart
p418
sg11
V2018
p419
sg13
VBook Review
p420
sa(dp421
g3
VWOS:000375949900007
p422
sg5
VOn Inequality
p423
sg7
VUTILITAS
p424
sg9
VWeithman, Paul
p425
sg11
V2016
p426
sg13
VBook Review
p427
sa(dp428
g3
VWOS:000311685500001
p429
sg5
V'From a Good Scheme to a Better': The Itinerancy of Jeremy Bentham, 1769-1789
p430
sg7
VUTILITAS
p431
sg9
VBurns, James
p432
sg11
V2012
p433
sg13
VArticle
p434
sa(dp435
g3
VWOS:000308346400004
p436
sg5
VPrioritarianism and the Separateness of Persons
p437
sg7
VUTILITAS
p438
sg9
VOtsuka, Michael
p439
sg11
V2012
p440
sg13
VArticle
p441
sa(dp442
g3
VWOS:000300437000010
p443
sg5
VThe Idea of Justice
p444
sg7
VUTILITAS
p445
sg9
VConnelly, James
p446
sg11
V2012
p447
sg13
VBook Review
p448
sa(dp449
g3
VWOS:000294998600001
p450
sg5
VParental Obligation
p451
sg7
VUTILITAS
p452
sg9
VWieland, Nellie
p453
sg11
V2011
p454
sg13
VArticle
p455
sa(dp456
g3
VWOS:000287977900005
p457
sg5
VFairness and Fair Shares
p458
sg7
VUTILITAS
p459
sg9
VHorton, Keith
p460
sg11
V2011
p461
sg13
VArticle
p462
sa(dp463
g3
VWOS:000278765600003
p464
sg5
VRawls's Thin (Millean) Defense of Private Property
p465
sg7
VUTILITAS
p466
sg9
VPersky, Joseph
p467
sg11
V2010
p468
sg13
VArticle
p469
sa(dp470
g3
VWOS:000270167700004
p471
sg5
VVirtue, Satisfaction and Welfare Enhancement
p472
sg7
VUTILITAS
p473
sg9
VDoviak, Daniel
p474
sg11
V2009
p475
sg13
VArticle
p476
sa(dp477
g3
VWOS:000270261400003
p478
sg5
VTreating Others Merely as Means
p479
sg7
VUTILITAS
p480
sg9
VKerstein, Samuel
p481
sg11
V2009
p482
sg13
VArticle
p483
sa(dp484
g3
VWOS:000434295800001
p485
sg5
VA Working Test for Well-being
p486
sg7
VUTILITAS
p487
sg9
VFuchs, Tobias A.
p488
sg11
V2018
p489
sg13
VArticle
p490
sa(dp491
g3
VWOS:000358833600006
p492
sg5
VNon-Renounceable Rights, Paternalism and Autonomy
p493
sg7
VUTILITAS
p494
sg9
VMidtgaard, Soren Flinch
p495
sg11
V2015
p496
sg13
VArticle
p497
sa(dp498
g3
VWOS:000354104600010
p499
sg5
VThe Virtues of Happiness: A Theory of the Good Life
p500
sg7
VUTILITAS
p501
sg9
VHasselberger, William
p502
sg11
V2015
p503
sg13
VBook Review
p504
sa(dp505
g3
VWOS:000344541800003
p506
sg5
VAlienation, Deprivation, and the Well-being of Persons
p507
sg7
VUTILITAS
p508
sg9
VYelle, Benjamin
p509
sg11
V2014
p510
sg13
VArticle
p511
sa(dp512
g3
VWOS:000316071300002
p513
sg5
VWhen Helping the Victim Matters More Than Helping a Victim
p514
sg7
VUTILITAS
p515
sg9
VJames, Scott M.
p516
sg11
V2013
p517
sg13
VArticle
p518
sa(dp519
g3
VWOS:000304305400008
p520
sg5
VOn What Matters
p521
sg7
VUTILITAS
p522
sg9
VLang, Gerald
p523
sg11
V2012
p524
sg13
VBook Review
p525
sa(dp526
g3
VWOS:000304305400006
p527
sg5
VDuty and Liability
p528
sg7
VUTILITAS
p529
sg9
VTadros, Victor
p530
sg11
V2012
p531
sg13
VArticle
p532
sa(dp533
g3
VWOS:000304305400002
p534
sg5
VHedonic Tone and the Heterogeneity of Pleasure
p535
sg7
VUTILITAS
p536
sg9
VLabukt, Ivar
p537
sg11
V2012
p538
sg13
VArticle
p539
sa(dp540
g3
VWOS:000300437000011
p541
sg5
VWhat is This Thing Called Happiness? (vol 23, pg 458, 2011)
p542
sg7
VUTILITAS
p543
sg9
VAngner, Erik
p544
sg11
V2012
p545
sg13
VCorrection
p546
sa(dp547
g3
VWOS:000294998600002
p548
sg5
VBoulders and Trolleys
p549
sg7
VUTILITAS
p550
sg9
VHaslett, D. W.
p551
sg11
V2011
p552
sg13
VArticle
p553
sa(dp554
g3
VWOS:000416128100005
p555
sg5
VWhich Problem of Adaptation?
p556
sg7
VUTILITAS
p557
sg9
VVan Der Deijl, Willem
p558
sg11
V2017
p559
sg13
VArticle
p560
sa(dp561
g3
VWOS:000398202600007
p562
sg5
VAccountability and Intervening Agency: An Asymmetry between Upstream and Downstream Actors
p563
sg7
VUTILITAS
p564
sg9
VBazargan-Forward, Saba
p565
sg11
V2017
p566
sg13
VArticle
p567
sa(dp568
g3
VWOS:000370688100009
p569
sg5
VAgainst Absolute Goodness
p570
sg7
VUTILITAS
p571
sg9
VTannenbaum, Julie
p572
sg11
V2016
p573
sg13
VBook Review
p574
sa(dp575
g3
VWOS:000344541800008
p576
sg5
VPersons, Interests, and Justice
p577
sg7
VUTILITAS
p578
sg9
VRoberts, Melinda A.
p579
sg11
V2014
p580
sg13
VBook Review
p581
sa(dp582
g3
VWOS:000323728300001
p583
sg5
VUnequal Vividness and Double Effect
p584
sg7
VUTILITAS
p585
sg9
VSinhababu, Neil
p586
sg11
V2013
p587
sg13
VArticle
p588
sa(dp589
g3
VWOS:000311685500004
p590
sg5
VIs There a Right to Respect?
p591
sg7
VUTILITAS
p592
sg9
VFiocco, M. Oreste
p593
sg11
V2012
p594
sg13
VArticle
p595
sa(dp596
g3
VWOS:000294998600005
p597
sg5
VDead Sea Apples and Desire-Fulfillment Welfare Theories
p598
sg7
VUTILITAS
p599
sg9
VLauinger, William
p600
sg11
V2011
p601
sg13
VArticle
p602
sa(dp603
g3
VWOS:000278765600009
p604
sg5
VRisse and Zeckhauser on Racial Profiling: A Reply
p605
sg7
VUTILITAS
p606
sg9
VWilliams, Reginald
p607
sg11
V2010
p608
sg13
VEditorial Material
p609
sa(dp610
g3
VWOS:000274712000010
p611
sg5
VA Turn to Empire: The Rise of Imperial Liberalism in Britain and France
p612
sg7
VUTILITAS
p613
sg9
VVarouxakis, Georgios
p614
sg11
V2010
p615
sg13
VBook Review
p616
sa(dp617
g3
VWOS:000270261600005
p618
sg5
VPain, Dislike and Experience
p619
sg7
VUTILITAS
p620
sg9
VKahane, Guy
p621
sg11
V2009
p622
sg13
VArticle
p623
sa(dp624
g3
VWOS:000439692800007
p625
sg5
VThe Geography of Morals: Varieties of Moral Possibility
p626
sg7
VUTILITAS
p627
sg9
VHarris, Eirik Lang
p628
sg11
V2018
p629
sg13
VBook Review
p630
sa(dp631
g3
VWOS:000434295800004
p632
sg5
VWell-Being without Being? A Reply to Feit
p633
sg7
VUTILITAS
p634
sg9
VCarlson, Erik
p635
sg11
V2018
p636
sg13
VArticle
p637
sa(dp638
g3
VWOS:000387968000004
p639
sg5
VThe Practice-Independence of Intergenerational Justice
p640
sg7
VUTILITAS
p641
sg9
VReglitz, Merten
p642
sg11
V2016
p643
sg13
VArticle
p644
sa(dp645
g3
VWOS:000365163400006
p646
sg5
VTaking Morality Seriously: A Defense of Robust Realism
p647
sg7
VUTILITAS
p648
sg9
VSkarsaune, Knut Olav
p649
sg11
V2015
p650
sg13
VBook Review
p651
sa(dp652
g3
VWOS:000365163400001
p653
sg5
VA Defence of Average Utilitarianism
p654
sg7
VUTILITAS
p655
sg9
VPressman, Michael
p656
sg11
V2015
p657
sg13
VArticle
p658
sa(dp659
g3
VWOS:000340945100006
p660
sg5
VLiberty Abroad: J. S. Mill on International Relations
p661
sg7
VUTILITAS
p662
sg9
VMarwah, Inder S.
p663
sg11
V2014
p664
sg13
VBook Review
p665
sa(dp666
g3
VWOS:000337707500004
p667
sg5
VGreen Votes not Green Virtues: Effective Utilitarian Responses to Climate Change
p668
sg7
VUTILITAS
p669
sg9
VWuendisch, Joachim
p670
sg11
V2014
p671
sg13
VArticle
p672
sa(dp673
g3
VWOS:000330361100007
p674
sg5
VMill
p675
sg7
VUTILITAS
p676
sg9
VWeinstein, David
p677
sg11
V2013
p678
sg13
VBook Review
p679
sa(dp680
g3
VWOS:000294998600004
p681
sg5
VDegrees of Preference and Degrees of Preference Satisfaction
p682
sg7
VUTILITAS
p683
sg9
VRossi, Mauro
p684
sg11
V2011
p685
sg13
VArticle
p686
sa(dp687
g3
VWOS:000270167700005
p688
sg5
VThe Epistemic and Informational Requirements of Utilitarianism
p689
sg7
VUTILITAS
p690
sg9
VBreakey, Hugh
p691
sg11
V2009
p692
sg13
VArticle
p693
sa(dp694
g3
VWOS:000434295800007
p695
sg5
VAggregate Relevant Claims in Rescue Cases?
p696
sg7
VUTILITAS
p697
sg9
VPrivitera, Johanna
p698
sg11
V2018
p699
sg13
VArticle
p700
sa(dp701
g3
VWOS:000409042800005
p702
sg5
VProblems for Perfectionism
p703
sg7
VUTILITAS
p704
sg9
VBradford, Gwen
p705
sg11
V2017
p706
sg13
VArticle
p707
sa(dp708
g3
VWOS:000382375100004
p709
sg5
VHow to Use the Experience Machine
p710
sg7
VUTILITAS
p711
sg9
VLin, Eden
p712
sg11
V2016
p713
sg13
VArticle
p714
sa(dp715
g3
VWOS:000370688100004
p716
sg5
VSolving Rule-Consequentialism's Acceptance Rate Problem
p717
sg7
VUTILITAS
p718
sg9
VMiller, Timothy D.
p719
sg11
V2016
p720
sg13
VArticle
p721
sa(dp722
g3
VWOS:000354104600007
p723
sg5
VUtilitarianism or Prioritarianism?
p724
sg7
VUTILITAS
p725
sg9
VTannsjo, Torbjorn
p726
sg11
V2015
p727
sg13
VArticle
p728
sa(dp729
g3
VWOS:000337707500007
p730
sg5
VPersonal Value
p731
sg7
VUTILITAS
p732
sg9
VMulligan, Kevin
p733
sg11
V2014
p734
sg13
VBook Review
p735
sa(dp736
g3
VWOS:000311685500003
p737
sg5
VAgainst Equality and Priority
p738
sg7
VUTILITAS
p739
sg9
VHuemer, Michael
p740
sg11
V2012
p741
sg13
VArticle
p742
sa(dp743
g3
VWOS:000294998600003
p744
sg5
VAct and Principle Contractualism
p745
sg7
VUTILITAS
p746
sg9
VSheinman, Hanoch
p747
sg11
V2011
p748
sg13
VArticle
p749
sa(dp750
g3
VWOS:000281675300004
p751
sg5
VBeing and Betterness
p752
sg7
VUTILITAS
p753
sg9
VJohansson, Jens
p754
sg11
V2010
p755
sg13
VArticle
p756
sa(dp757
g3
VWOS:000274712000003
p758
sg5
VObjective or Subjective 'Ought'?
p759
sg7
VUTILITAS
p760
sg9
VHansson, Sven Ove
p761
sg11
V2010
p762
sg13
VArticle
p763
sa(dp764
g3
VWOS:000272646600011
p765
sg5
VDisadvantage
p766
sg7
VUTILITAS
p767
sg9
VVallentyne, Peter
p768
sg11
V2009
p769
sg13
VBook Review
p770
sa(dp771
g3
VWOS:000447883400007
p772
sg5
VDoes the Collapsing Principle Rule Out Borderline Cases?
p773
sg7
VUTILITAS
p774
sg9
VGustafsson, Johan E.
p775
sg11
V2018
p776
sg13
VArticle
p777
sa(dp778
g3
VWOS:000447883400005
p779
sg5
VRule-Consequentialism's Assumptions
p780
sg7
VUTILITAS
p781
sg9
VTobia, Kevin P.
p782
sg11
V2018
p783
sg13
VArticle
p784
sa(dp785
g3
VWOS:000398202600004
p786
sg5
VPreferring to Decrease One's Own Well-Being
p787
sg7
VUTILITAS
p788
sg9
VBronsteen, John
p789
sg11
V2017
p790
sg13
VArticle
p791
sa(dp792
g3
VWOS:000387968000005
p793
sg5
VMoral Obligation, Self-Interest and the Transitivity Problem
p794
sg7
VUTILITAS
p795
sg9
VArcher, Alfred
p796
sg11
V2016
p797
sg13
VArticle
p798
sa(dp799
g3
VWOS:000382375100005
p800
sg5
VTwo Kinds of Value Pluralism
p801
sg7
VUTILITAS
p802
sg9
VTucker, Miles
p803
sg11
V2016
p804
sg13
VArticle
p805
sa(dp806
g3
VWOS:000300437000008
p807
sg5
VConsequentialism, Indirect Effects and Fair Trade
p808
sg7
VUTILITAS
p809
sg9
VWalton, Andrew
p810
sg11
V2012
p811
sg13
VArticle
p812
sa(dp813
g3
VWOS:000281675300008
p814
sg5
VConsequentialism and the Wrong Kind of Reasons: A Reply to Lang
p815
sg7
VUTILITAS
p816
sg9
VBrunero, John
p817
sg11
V2010
p818
sg13
VArticle
p819
sa(dp820
g3
VWOS:000281675300002
p821
sg5
VConsequentialism's Double-Edged Sword
p822
sg7
VUTILITAS
p823
sg9
VSachs, Benjamin
p824
sg11
V2010
p825
sg13
VArticle
p826
sa(dp827
g3
VWOS:000274712000002
p828
sg5
VAre Some Prima Facie Duties More Binding than Others?
p829
sg7
VUTILITAS
p830
sg9
VRobinson, Michael
p831
sg11
V2010
p832
sg13
VArticle
p833
sa(dp834
g3
VWOS:000272646600004
p835
sg5
VA Paradox for Weak Deontology
p836
sg7
VUTILITAS
p837
sg9
VHuemer, Michael
p838
sg11
V2009
p839
sg13
VArticle
p840
sa(dp841
g3
VWOS:000270167700003
p842
sg5
VHeadaches, Lives and Value
p843
sg7
VUTILITAS
p844
sg9
VDorsey, Dale
p845
sg11
V2009
p846
sg13
VArticle
p847
sa(dp848
g3
VWOS:000439692800004
p849
sg5
VInsane Consequentialism: A Pragmatic Objection to Direct Consequentialism
p850
sg7
VUTILITAS
p851
sg9
VZangwill, Nick
p852
sg11
V2018
p853
sg13
VArticle
p854
sa(dp855
g3
VWOS:000344541800004
p856
sg5
VRelevance and Non-consequentialist Aggregation
p857
sg7
VUTILITAS
p858
sg9
VKelleher, J. Paul
p859
sg11
V2014
p860
sg13
VArticle
p861
sa(dp862
g3
VWOS:000344541800001
p863
sg5
VBroome on Fairness and Lotteries
p864
sg7
VUTILITAS
p865
sg9
VLazenby, Hugh
p866
sg11
V2014
p867
sg13
VArticle
p868
sa(dp869
g3
VWOS:000331602600007
p870
sg5
V'Marcel, the dancing-master': A Note on the Closing Lines of An Introduction to the Principles of Morals and Legislation
p871
sg7
VUTILITAS
p872
sg9
VDe Champs, Emmanuelle
p873
sg11
V2014
p874
sg13
VEditorial Material
p875
sa(dp876
g3
VWOS:000323728300003
p877
sg5
VAn Analysis of Prudential Value
p878
sg7
VUTILITAS
p879
sg9
VCampbell, Stephen M.
p880
sg11
V2013
p881
sg13
VArticle
p882
sa(dp883
g3
VWOS:000321058600002
p884
sg5
VAdjudication and Expectations: Bentham on the Role of Judges
p885
sg7
VUTILITAS
p886
sg9
VFerraro, Francesco
p887
sg11
V2013
p888
sg13
VArticle
p889
sa(dp890
g3
VWOS:000316071300004
p891
sg5
VRetributivism and Resources
p892
sg7
VUTILITAS
p893
sg9
VRyberg, Jesper
p894
sg11
V2013
p895
sg13
VArticle
p896
sa(dp897
g3
VWOS:000304305400001
p898
sg5
VTrue and Useful: On the Structure of a Two Level Normative Theory
p899
sg7
VUTILITAS
p900
sg9
VFeldman, Fred
p901
sg11
V2012
p902
sg13
VArticle
p903
sa(dp904
g3
VWOS:000270261400007
p905
sg5
VWouldn't It Be Nice If p, Therefore, p (for a moral p)
p906
sg7
VUTILITAS
p907
sg9
VEnoch, David
p908
sg11
V2009
p909
sg13
VArticle
p910
sa(dp911
g3
VWOS:000270261400001
p912
sg5
VMillian Qualitative Superiorities and Utilitarianism, Part II
p913
sg7
VUTILITAS
p914
sg9
VRiley, Jonathan
p915
sg11
V2009
p916
sg13
VArticle
p917
sa(dp918
g3
VWOS:000434295800010
p919
sg5
VInclusive Ethics: Extending Beneficence and Egalitarian Justice
p920
sg7
VUTILITAS
p921
sg9
VDeGrazia, David
p922
sg11
V2018
p923
sg13
VBook Review
p924
sa(dp925
g3
VWOS:000400958200002
p926
sg5
VA Good Death
p927
sg7
VUTILITAS
p928
sg9
VDorsey, Dale
p929
sg11
V2017
p930
sg13
VArticle
p931
sa(dp932
g3
VWOS:000398202600001
p933
sg5
VA Letter from the Editor
p934
sg7
VUTILITAS
p935
sg9
VMiller, Dale E.
p936
sg11
V2017
p937
sg13
VEditorial Material
p938
sa(dp939
g3
VWOS:000387968000001
p940
sg5
VMereological Dominance and the Logic of Better-Than
p941
sg7
VUTILITAS
p942
sg9
VGoodrich, James
p943
sg11
V2016
p944
sg13
VArticle
p945
sa(dp946
g3
VWOS:000323728300004
p947
sg5
VThe Supererogatory, and How to Accommodate It
p948
sg7
VUTILITAS
p949
sg9
VDorsey, Dale
p950
sg11
V2013
p951
sg13
VArticle
p952
sa(dp953
g3
VWOS:000323728300007
p954
sg5
VA Millian Objection to Reasons as Evidence
p955
sg7
VUTILITAS
p956
sg9
VFletcher, Guy
p957
sg11
V2013
p958
sg13
VArticle
p959
sa(dp960
g3
VWOS:000316071300003
p961
sg5
VMill, Intuitions and Normativity
p962
sg7
VUTILITAS
p963
sg9
VMacleod, Christopher
p964
sg11
V2013
p965
sg13
VArticle
p966
sa(dp967
g3
VWOS:000300437000007
p968
sg5
VClumps and Pumps: Clumpiness, Resolution and Rational Choice
p969
sg7
VUTILITAS
p970
sg9
VSteglich-Petersen, Asbjorn
p971
sg11
V2012
p972
sg13
VArticle
p973
sa(dp974
g3
VWOS:000300437000003
p975
sg5
VUncertainty behind the Veil of Ignorance
p976
sg7
VUTILITAS
p977
sg9
VKurtulmus, A. Faik
p978
sg11
V2012
p979
sg13
VArticle
p980
sa(dp981
g3
VWOS:000287977900003
p982
sg5
VAutonomy and Adaptive Preferences
p983
sg7
VUTILITAS
p984
sg9
VColburn, Ben
p985
sg11
V2011
p986
sg13
VArticle
p987
sa(dp988
g3
VWOS:000274712000009
p989
sg5
VThe Picture of Dorian Gray: The 1890 and 1891 Texts. The Complete Works of Oscar Wilde, vol 3
p990
sg7
VUTILITAS
p991
sg9
VMillgram, Elijah
p992
sg11
V2010
p993
sg13
VBook Review
p994
sa(dp995
g3
VWOS:000398202600003
p996
sg5
VEffort and Achievement
p997
sg7
VUTILITAS
p998
sg9
VVon Kriegstein, Hasko
p999
sg11
V2017
p1000
sg13
VArticle
p1001
sa(dp1002
g3
VWOS:000354104600005
p1003
sg5
VThe Impotence of the Value Pump
p1004
sg7
VUTILITAS
p1005
sg9
VHalstead, John
p1006
sg11
V2015
p1007
sg13
VArticle
p1008
sa(dp1009
g3
VWOS:000304305400004
p1010
sg5
VInternecine War Killings
p1011
sg7
VUTILITAS
p1012
sg9
VFabre, Cecile
p1013
sg11
V2012
p1014
sg13
VArticle
p1015
sa(dp1016
g3
VWOS:000291859600006
p1017
sg5
VDead and Gone
p1018
sg7
VUTILITAS
p1019
sg9
VJenkins, Joyce L.
p1020
sg11
V2011
p1021
sg13
VArticle
p1022
sa(dp1023
g3
VWOS:000284040800010
p1024
sg5
VWell-Being and Death
p1025
sg7
VUTILITAS
p1026
sg9
VPortmore, Douglas W.
p1027
sg11
V2010
p1028
sg13
VBook Review
p1029
sa(dp1030
g3
VWOS:000284040800003
p1031
sg5
VMeasuring the Consequences of Rules
p1032
sg7
VUTILITAS
p1033
sg9
VSmith, Holly M.
p1034
sg11
V2010
p1035
sg13
VArticle
p1036
sa(dp1037
g3
VWOS:000278765600012
p1038
sg5
VAutonomy and the Challenges to Liberalism: New Essays
p1039
sg7
VUTILITAS
p1040
sg9
VWall, Steven
p1041
sg11
V2010
p1042
sg13
VBook Review
p1043
sa(dp1044
g3
VWOS:000278765600006
p1045
sg5
VIntertemporal Disagreement and Empirical Slippery Slope Arguments
p1046
sg7
VUTILITAS
p1047
sg9
VDouglas, Thomas
p1048
sg11
V2010
p1049
sg13
VArticle
p1050
sa(dp1051
g3
VWOS:000278765600002
p1052
sg5
VMill on the Harm in Not Voting
p1053
sg7
VUTILITAS
p1054
sg9
VBrown, D. G.
p1055
sg11
V2010
p1056
sg13
VArticle
p1057
sa(dp1058
g3
VWOS:000274712000011
p1059
sg5
VUtility and Democracy: The Political Thought of Jeremy Bentham
p1060
sg7
VUTILITAS
p1061
sg9
VEngelmann, Stephen G.
p1062
sg11
V2010
p1063
sg13
VBook Review
p1064
sa(dp1065
g3
VWOS:000272646600003
p1066
sg5
VIs Situationism All Bad News?
p1067
sg7
VUTILITAS
p1068
sg9
VRussell, Luke
p1069
sg11
V2009
p1070
sg13
VArticle
p1071
sa(dp1072
g3
VWOS:000272646600006
p1073
sg5
VRawls and Cohen on Facts and Principles
p1074
sg7
VUTILITAS
p1075
sg9
VKurtulmus, A. Faik
p1076
sg11
V2009
p1077
sg13
VArticle
p1078
sa(dp1079
g3
VWOS:000439692800001
p1080
sg5
VSimply Good: A Defence of the Principia
p1081
sg7
VUTILITAS
p1082
sg9
VTucker, Miles
p1083
sg11
V2018
p1084
sg13
VArticle
p1085
sa(dp1086
g3
VWOS:000409042800007
p1087
sg5
VDoing and Allowing Harm
p1088
sg7
VUTILITAS
p1089
sg9
VGraham, Peter A.
p1090
sg11
V2017
p1091
sg13
VBook Review
p1092
sa(dp1093
g3
VWOS:000337707500005
p1094
sg5
VPerform a Justified Option
p1095
sg7
VUTILITAS
p1096
sg9
VGert, Joshua
p1097
sg11
V2014
p1098
sg13
VArticle
p1099
sa(dp1100
g3
VWOS:000330361100006
p1101
sg5
VMill's Progressive Principles
p1102
sg7
VUTILITAS
p1103
sg9
VJeske, Diane
p1104
sg11
V2013
p1105
sg13
VBook Review
p1106
sa(dp1107
g3
VWOS:000321058600008
p1108
sg5
VBooks before Chocolate? The Insufficiency of Mill's Evidence for Higher Pleasures
p1109
sg7
VUTILITAS
p1110
sg9
VSchaupp, Kristin
p1111
sg11
V2013
p1112
sg13
VArticle
p1113
sa(dp1114
g3
VWOS:000316071300006
p1115
sg5
VCulture and Diversity in John Stuart Mill's Civic Nation
p1116
sg7
VUTILITAS
p1117
sg9
VTyndal, Jason
p1118
sg11
V2013
p1119
sg13
VArticle
p1120
sa(dp1121
g3
VWOS:000311685500009
p1122
sg5
VThe Emotional Construction of Morals
p1123
sg7
VUTILITAS
p1124
sg9
VFraser, Ben
p1125
sg11
V2012
p1126
sg13
VBook Review
p1127
sa(dp1128
g3
VWOS:000297602700001
p1129
sg5
VBentham on Presumed Offences
p1130
sg7
VUTILITAS
p1131
sg9
VSchauer, Frederick
p1132
sg11
V2011
p1133
sg13
VArticle
p1134
sa(dp1135
g3
VWOS:000281675300007
p1136
sg5
VThe Predication Thesis and a New Problem about Persistent Fundamental Legal Controversies
p1137
sg7
VUTILITAS
p1138
sg9
VToh, Kevin
p1139
sg11
V2010
p1140
sg13
VArticle
p1141
sa(dp1142
g3
VWOS:000278765600008
p1143
sg5
VThe Consequences of Rejecting the Moral Relevance of the Doing-Allowing Distinction
p1144
sg7
VUTILITAS
p1145
sg9
VHaydar, Bashshar
p1146
sg11
V2010
p1147
sg13
VArticle
p1148
sa(dp1149
g3
VWOS:000274712000008
p1150
sg5
VUtilitarianism and Empire
p1151
sg7
VUTILITAS
p1152
sg9
VSylvest, Casper
p1153
sg11
V2010
p1154
sg13
VBook Review
p1155
sa(dp1156
g3
VWOS:000270261400002
p1157
sg5
VIt Ain't My World
p1158
sg7
VUTILITAS
p1159
sg9
VWeinberg, Rivka
p1160
sg11
V2009
p1161
sg13
VArticle
p1162
sa(dp1163
g3
VWOS:000439692800002
p1164
sg5
VMill's Metaethical Non-cognitivism
p1165
sg7
VUTILITAS
p1166
sg9
VZuk, Peter
p1167
sg11
V2018
p1168
sg13
VArticle
p1169
sa(dp1170
g3
VWOS:000434295800011
p1171
sg5
VThe Happiness Philosophers: The Lives and Works of the Great Utilitarians
p1172
sg7
VUTILITAS
p1173
sg9
VNakano-Okuno, Mariko
p1174
sg11
V2018
p1175
sg13
VBook Review
p1176
sa(dp1177
g3
VWOS:000400958200001
p1178
sg5
VRestricted Prioritarianism or Competing Claims?
p1179
sg7
VUTILITAS
p1180
sg9
VLange, Benjamin
p1181
sg11
V2017
p1182
sg13
VArticle
p1183
sa(dp1184
g3
VWOS:000370688100008
p1185
sg5
VRoberts on Depletion: How Much Better Can We Do for Future People?
p1186
sg7
VUTILITAS
p1187
sg9
VGreene, Mark E.
p1188
sg11
V2016
p1189
sg13
VArticle
p1190
sa(dp1191
g3
VWOS:000358833600003
p1192
sg5
VA New Counterexample to Prioritarianism
p1193
sg7
VUTILITAS
p1194
sg9
VOrd, Toby
p1195
sg11
V2015
p1196
sg13
VArticle
p1197
sa(dp1198
g3
VWOS:000354104600004
p1199
sg5
VExpanding the Justificatory Framework of Mill's Experiments in Living
p1200
sg7
VUTILITAS
p1201
sg9
VMuldoon, Ryan
p1202
sg11
V2015
p1203
sg13
VArticle
p1204
sa(dp1205
g3
VWOS:000350581700001
p1206
sg5
VAntiprioritarianism
p1207
sg7
VUTILITAS
p1208
sg9
VGreaves, Hilary
p1209
sg11
V2015
p1210
sg13
VArticle
p1211
sa(dp1212
g3
VWOS:000340945100005
p1213
sg5
VFrom Morality to the End of Reason
p1214
sg7
VUTILITAS
p1215
sg9
VNyholm, Sven
p1216
sg11
V2014
p1217
sg13
VBook Review
p1218
sa(dp1219
g3
VWOS:000316071300008
p1220
sg5
VJustice, Institutions, and Luck: The Site, Ground, and Scope of Equality Reply
p1221
sg7
VUTILITAS
p1222
sg9
VTan, Kok-Chor
p1223
sg11
V2013
p1224
sg13
VEditorial Material
p1225
sa(dp1226
g3
VWOS:000284040800007
p1227
sg5
VSituationist Social Psychology and J. S. Mill's Conception of Character
p1228
sg7
VUTILITAS
p1229
sg9
VCard, Robert F.
p1230
sg11
V2010
p1231
sg13
VArticle
p1232
sa(dp1233
g3
VWOS:000272646600009
p1234
sg5
VFrontiers of Justice: Disability, Nationality, Species Membership
p1235
sg7
VUTILITAS
p1236
sg9
VSegall, Shlomi
p1237
sg11
V2009
p1238
sg13
VBook Review
p1239
sa(dp1240
g3
VWOS:000270167700008
p1241
sg5
VThe Demands of Consequentialism
p1242
sg7
VUTILITAS
p1243
sg9
VEggleston, Ben
p1244
sg11
V2009
p1245
sg13
VBook Review
p1246
sa(dp1247
g3
VWOS:000439692800005
p1248
sg5
VThe Enemy of the Good: Supererogation and Requiring Perfection
p1249
sg7
VUTILITAS
p1250
sg9
VBenn, Claire
p1251
sg11
V2018
p1252
sg13
VArticle
p1253
sa(dp1254
g3
VWOS:000439692800003
p1255
sg5
VFrom Theory to Practice: Bentham's Reception of Helvetius
p1256
sg7
VUTILITAS
p1257
sg9
VHoesch, Matthias
p1258
sg11
V2018
p1259
sg13
VArticle
p1260
sa(dp1261
g3
VWOS:000416128100003
p1262
sg5
VScepticism about Virtue and the Five-Factor Model of Personality
p1263
sg7
VUTILITAS
p1264
sg9
VParis, Panos
p1265
sg11
V2017
p1266
sg13
VArticle
p1267
sa(dp1268
g3
VWOS:000370688100002
p1269
sg5
VMill and the Gorgias
p1270
sg7
VUTILITAS
p1271
sg9
VNordquest, David A.
p1272
sg11
V2016
p1273
sg13
VArticle
p1274
sa(dp1275
g3
VWOS:000340945100001
p1276
sg5
VTaking Stock of Utilitarianism
p1277
sg7
VUTILITAS
p1278
sg9
VCrisp, Roger
p1279
sg11
V2014
p1280
sg13
VArticle
p1281
sa(dp1282
g3
VWOS:000321058600011
p1283
sg5
VUtilitarian Philosophy and Politics: Bentham's Later Years
p1284
sg7
VUTILITAS
p1285
sg9
VNiesen, Peter
p1286
sg11
V2013
p1287
sg13
VBook Review
p1288
sa(dp1289
g3
VWOS:000308346400007
p1290
sg5
VWhat's the Matter? Review of Derek Parfit, On What Matters (vol 24, pg 300, 2012)
p1291
sg7
VUTILITAS
p1292
sg9
VLang, Gerald
p1293
sg11
V2012
p1294
sg13
VCorrection
p1295
sa(dp1296
g3
VWOS:000300437000004
p1297
sg5
VA Robust Defence of the Doctrine of Doing and Allowing
p1298
sg7
VUTILITAS
p1299
sg9
VLiu, Xiaofei
p1300
sg11
V2012
p1301
sg13
VArticle
p1302
sa(dp1303
g3
VWOS:000297602700008
p1304
sg5
VRisorgimento in Exile: Italian Emigres and the Liberal International in the Post-Napoleonic Era
p1305
sg7
VUTILITAS
p1306
sg9
VRosen, Frederick
p1307
sg11
V2011
p1308
sg13
VBook Review
p1309
sa(dp1310
g3
VWOS:000291859600007
p1311
sg5
VReasons and the Good
p1312
sg7
VUTILITAS
p1313
sg9
VDriver, Julia
p1314
sg11
V2011
p1315
sg13
VBook Review
p1316
sa(dp1317
g3
VWOS:000274712000006
p1318
sg5
VOn Sidgwick's Demise: A Reply to Professor Deigh
p1319
sg7
VUTILITAS
p1320
sg9
VSkelton, Anthony
p1321
sg11
V2010
p1322
sg13
VEditorial Material
p1323
sa(dp1324
g3
VWOS:000274712000005
p1325
sg5
VJ. S. Mill's Conception of Utility
p1326
sg7
VUTILITAS
p1327
sg9
VSaunders, Ben
p1328
sg11
V2010
p1329
sg13
VArticle
p1330
sa(dp1331
g3
VWOS:000447883400006
p1332
sg5
VUnconscious Pleasures and Pains: A Problem for Attitudinal Theories?
p1333
sg7
VUTILITAS
p1334
sg9
VFeldman, Fred
p1335
sg11
V2018
p1336
sg13
VArticle
p1337
sa(dp1338
g3
VWOS:000400958200007
p1339
sg5
VReasons Without Persons
p1340
sg7
VUTILITAS
p1341
sg9
VPodgorski, Abelard
p1342
sg11
V2017
p1343
sg13
VBook Review
p1344
sa(dp1345
g3
VWOS:000375949900002
p1346
sg5
VComparative Harm, Creation and Death
p1347
sg7
VUTILITAS
p1348
sg9
VFeit, Neil
p1349
sg11
V2016
p1350
sg13
VArticle
p1351
sa(dp1352
g3
VWOS:000350581700006
p1353
sg5
VThe Point of View of the Universe: Sidgwick and Contemporary Ethics
p1354
sg7
VUTILITAS
p1355
sg9
VMoen, Ole Martin
p1356
sg11
V2015
p1357
sg13
VBook Review
p1358
sa(dp1359
g3
VWOS:000331602600005
p1360
sg5
VBentham on Mensuration: Calculation and Moral Reasoning
p1361
sg7
VUTILITAS
p1362
sg9
VQuinn, Michael
p1363
sg11
V2014
p1364
sg13
VArticle
p1365
sa(dp1366
g3
VWOS:000316071300001
p1367
sg5
VThe Defence of Utilitarianism in Early Rawls: A Study of Methodological Development
p1368
sg7
VUTILITAS
p1369
sg9
VMakinen, Jukka
p1370
sg11
V2013
p1371
sg13
VArticle
p1372
sa(dp1373
g3
VWOS:000304305400009
p1374
sg5
VDistributive Justice and Disability: Utilitarianism against Egalitarianism (vol 23, pg 355, 2011)
p1375
sg7
VUTILITAS
p1376
sg9
VOlsaretti, Serena
p1377
sg11
V2012
p1378
sg13
VCorrection
p1379
sa(dp1380
g3
VWOS:000300437000009
p1381
sg5
VPartiality and Impartiality: Morality, Special Relationships, and the Wider World
p1382
sg7
VUTILITAS
p1383
sg9
VMartin, Rex
p1384
sg11
V2012
p1385
sg13
VBook Review
p1386
sa(dp1387
g3
VWOS:000300437000005
p1388
sg5
VWhat's so Bad about Discrimination?
p1389
sg7
VUTILITAS
p1390
sg9
VSegall, Shlomi
p1391
sg11
V2012
p1392
sg13
VArticle
p1393
sa(dp1394
g3
VWOS:000300437000002
p1395
sg5
VWhy Poverty Matters Most: Towards a Humanitarian Theory of Social Justice
p1396
sg7
VUTILITAS
p1397
sg9
VFreiman, Christopher
p1398
sg11
V2012
p1399
sg13
VArticle
p1400
sa(dp1401
g3
VWOS:000278765600007
p1402
sg5
VIn Defense of a Version of Satisficing Consequentialism
p1403
sg7
VUTILITAS
p1404
sg9
VRogers, Jason
p1405
sg11
V2010
p1406
sg13
VArticle
p1407
sa(dp1408
g3
VWOS:000270261400009
p1409
sg5
VIs the Body Special? Review of Cecile Fabre, Whose Body is it Anyway? Justice and the Integrity of the Person
p1410
sg7
VUTILITAS
p1411
sg9
VEyal, Nir
p1412
sg11
V2009
p1413
sg13
VReview
p1414
sa(dp1415
g3
VWOS:000270167700006
p1416
sg5
VThe Rejection of Scalar Consequentialism
p1417
sg7
VUTILITAS
p1418
sg9
VLawlor, Rob
p1419
sg11
V2009
p1420
sg13
VArticle
p1421
sa(dp1422
g3
VWOS:000434294500007
p1423
sg5
VThe Robust Demands of the Good: Ethics with Attachment, Virtue and Respect
p1424
sg7
VUTILITAS
p1425
sg9
VVong, Gerard
p1426
sg11
V2018
p1427
sg13
VBook Review
p1428
sa(dp1429
g3
VWOS:000409042800001
p1430
sg5
VWhat's Wrong with Differential Punishment?
p1431
sg7
VUTILITAS
p1432
sg9
VYost, Benjamin S.
p1433
sg11
V2017
p1434
sg13
VArticle
p1435
sa(dp1436
g3
VWOS:000375949900001
p1437
sg5
VPaternalism: An Analysis
p1438
sg7
VUTILITAS
p1439
sg9
VRyan, Shane
p1440
sg11
V2016
p1441
sg13
VArticle
p1442
sa(dp1443
g3
VWOS:000370688100003
p1444
sg5
VMorality, Accountability and the Wrong Kind of Reasons
p1445
sg7
VUTILITAS
p1446
sg9
VLott, Micah
p1447
sg11
V2016
p1448
sg13
VArticle
p1449
sa(dp1450
g3
VWOS:000358833600007
p1451
sg5
VAre Enabling and Allowing Harm Morally Equivalent?
p1452
sg7
VUTILITAS
p1453
sg9
VLippert-Rasmussen, Kasper
p1454
sg11
V2015
p1455
sg13
VArticle
p1456
sa(dp1457
g3
VWOS:000358833600001
p1458
sg5
VExpectations and the Limits of Legal Validity
p1459
sg7
VUTILITAS
p1460
sg9
VForcehimes, Andrew T.
p1461
sg11
V2015
p1462
sg13
VArticle
p1463
sa(dp1464
g3
VWOS:000354104600006
p1465
sg5
VHypothetical Choice, Egalitarianism and the Separateness of Persons
p1466
sg7
VUTILITAS
p1467
sg9
VHyams, Keith
p1468
sg11
V2015
p1469
sg13
VArticle
p1470
sa(dp1471
g3
VWOS:000340945100004
p1472
sg5
VRoss on Self and Others
p1473
sg7
VUTILITAS
p1474
sg9
VShaver, Robert
p1475
sg11
V2014
p1476
sg13
VArticle
p1477
sa(dp1478
g3
VWOS:000330361100001
p1479
sg5
VIndeterminacy and the Small-Improvement Argument
p1480
sg7
VUTILITAS
p1481
sg9
VGustafsson, Johan E.
p1482
sg11
V2013
p1483
sg13
VArticle
p1484
sa(dp1485
g3
VWOS:000311685500010
p1486
sg5
VReconciling Our Aims: In Search of Bases for Ethics
p1487
sg7
VUTILITAS
p1488
sg9
VMcElwee, Brian
p1489
sg11
V2012
p1490
sg13
VBook Review
p1491
sa(dp1492
g3
VWOS:000308346400001
p1493
sg5
VThe Priority View Bites the Dust?
p1494
sg7
VUTILITAS
p1495
sg9
VWilliams, Andrew
p1496
sg11
V2012
p1497
sg13
VArticle
p1498
sa(dp1499
g3
VWOS:000287977900008
p1500
sg5
VIn Defence of the Priority View: A Response to Otsuka and Voorhoeve Reply
p1501
sg7
VUTILITAS
p1502
sg9
VOtsuka, Michael
p1503
sg11
V2011
p1504
sg13
VEditorial Material
p1505
sa(dp1506
g3
VWOS:000272646600002
p1507
sg5
VOwnership and Justice for Animals
p1508
sg7
VUTILITAS
p1509
sg9
VCochrane, Alasdair
p1510
sg11
V2009
p1511
sg13
VArticle
p1512
sa(dp1513
g3
VWOS:000447883400001
p1514
sg5
VExperience Machines, Conflicting Intuitions and the Bipartite Characterization of Well-being
p1515
sg7
VUTILITAS
p1516
sg9
VStevenson, Chad M.
p1517
sg11
V2018
p1518
sg13
VArticle
p1519
sa(dp1520
g3
VWOS:000447883400004
p1521
sg5
VLuminosity Failure, Normative Guidance and the Principle "Ought-Implies-Can'
p1522
sg7
VUTILITAS
p1523
sg9
VHughes, Nick
p1524
sg11
V2018
p1525
sg13
VArticle
p1526
sa(dp1527
g3
VWOS:000447883400009
p1528
sg5
VA Philosophy for the Science of Well-Being
p1529
sg7
VUTILITAS
p1530
sg9
VKim, Richard
p1531
sg11
V2018
p1532
sg13
VBook Review
p1533
sa(dp1534
g3
VWOS:000416128100002
p1535
sg5
VWar and Global Public Reason
p1536
sg7
VUTILITAS
p1537
sg9
VWilliams, Jeremy
p1538
sg11
V2017
p1539
sg13
VArticle
p1540
sa(dp1541
g3
VWOS:000387968000006
p1542
sg5
VWhat's the Point of Self-consciousness? A Critique of Singer's Arguments against Killing (Human or Non-human) Self-conscious Animals
p1543
sg7
VUTILITAS
p1544
sg9
VZuolo, Federico
p1545
sg11
V2016
p1546
sg13
VArticle
p1547
sa(dp1548
g3
VWOS:000370688100006
p1549
sg5
VTreating Others Merely as Means: A Reply to Kerstein
p1550
sg7
VUTILITAS
p1551
sg9
VPapadaki, Lina
p1552
sg11
V2016
p1553
sg13
VArticle
p1554
sa(dp1555
g3
VWOS:000331602600004
p1556
sg5
VBorderline Cases and the Collapsing Principle
p1557
sg7
VUTILITAS
p1558
sg9
VElson, Luke
p1559
sg11
V2014
p1560
sg13
VArticle
p1561
sa(dp1562
g3
VWOS:000297602700006
p1563
sg5
VColburn on Covert Influences
p1564
sg7
VUTILITAS
p1565
sg9
VBruckner, Donald W.
p1566
sg11
V2011
p1567
sg13
VArticle
p1568
sa(dp1569
g3
VWOS:000291859600005
p1570
sg5
VFull Information, Well-Being, and Reasonable Desires
p1571
sg7
VUTILITAS
p1572
sg9
VShemmer, Yonatan
p1573
sg11
V2011
p1574
sg13
VArticle
p1575
sa(dp1576
g3
VWOS:000291859600001
p1577
sg5
VSpinning the Wheel or Tossing a Coin?
p1578
sg7
VUTILITAS
p1579
sg9
VHuseby, Robert
p1580
sg11
V2011
p1581
sg13
VArticle
p1582
sa(dp1583
g3
VWOS:000287977900009
p1584
sg5
VDo You Deserve To Be Talented?
p1585
sg7
VUTILITAS
p1586
sg9
VSpector, Ezequiel
p1587
sg11
V2011
p1588
sg13
VEditorial Material
p1589
sa(dp1590
g3
VWOS:000287977900004
p1591
sg5
VWhy Women Hug their Chains: Wollstonecraft and Adaptive Preferences
p1592
sg7
VUTILITAS
p1593
sg9
VBerges, Sandrine
p1594
sg11
V2011
p1595
sg13
VArticle
p1596
sa(dp1597
g3
VWOS:000281675300009
p1598
sg5
VJ S. Mill's Political Thought: A Bicentennial Reassessment
p1599
sg7
VUTILITAS
p1600
sg9
VClaeys, Gregory
p1601
sg11
V2010
p1602
sg13
VBook Review
p1603
sa(dp1604
g3
VWOS:000434295800005
p1605
sg5
VStill Lives for Headaches: A reply to Dorsey and Voorhoeve
p1606
sg7
VUTILITAS
p1607
sg9
VSchonherr, Julius
p1608
sg11
V2018
p1609
sg13
VArticle
p1610
sa(dp1611
g3
VWOS:000434294500006
p1612
sg5
VPermissibility and the Aggregation of Risks
p1613
sg7
VUTILITAS
p1614
sg9
VKirkpatrick, James R.
p1615
sg11
V2018
p1616
sg13
VEditorial Material
p1617
sa(dp1618
g3
VWOS:000387968000007
p1619
sg5
VThe Cosmos of Duty: Henry Sidgwick's Methods of Ethics
p1620
sg7
VUTILITAS
p1621
sg9
VPhillips, David
p1622
sg11
V2016
p1623
sg13
VBook Review
p1624
sa(dp1625
g3
VWOS:000382375100002
p1626
sg5
VOriginal Position Models, Trade-offs and Continuity
p1627
sg7
VUTILITAS
p1628
sg9
VDaskal, Steven
p1629
sg11
V2016
p1630
sg13
VArticle
p1631
sa(dp1632
g3
VWOS:000365163400005
p1633
sg5
VFairness, Benefiting by Lottery and the Chancy Satisfaction of Moral Claims
p1634
sg7
VUTILITAS
p1635
sg9
VVong, Gerard
p1636
sg11
V2015
p1637
sg13
VArticle
p1638
sa(dp1639
g3
VWOS:000354104600003
p1640
sg5
VPunishment and Discretion in Mill's Utilitarianism
p1641
sg7
VUTILITAS
p1642
sg9
VTurner, Piers Norris
p1643
sg11
V2015
p1644
sg13
VArticle
p1645
sa(dp1646
g3
VWOS:000344541800002
p1647
sg5
VOn The Ambiguous Status of Pleasure in Bentham's Theory of Fictions
p1648
sg7
VUTILITAS
p1649
sg9
VClero, Jean-Pierre
p1650
sg11
V2014
p1651
sg13
VArticle
p1652
sa(dp1653
g3
VWOS:000321058600012
p1654
sg5
VThe Pleasures of Benthamism
p1655
sg7
VUTILITAS
p1656
sg9
VCohen, Shiri
p1657
sg11
V2013
p1658
sg13
VBook Review
p1659
sa(dp1660
g3
VWOS:000321058600010
p1661
sg5
VFactory of Happiness: Liberalism, ethics and psychology in Jeremy Bentham
p1662
sg7
VUTILITAS
p1663
sg9
VBlamires, Cyprian
p1664
sg11
V2013
p1665
sg13
VBook Review
p1666
sa(dp1667
g3
VWOS:000300437000006
p1668
sg5
VThe Prospects for Sufficientarianism
p1669
sg7
VUTILITAS
p1670
sg9
VShields, Liam
p1671
sg11
V2012
p1672
sg13
VArticle
p1673
sa(dp1674
g3
VWOS:000291859600003
p1675
sg5
VThe Basic Structure and the Principles of Justice
p1676
sg7
VUTILITAS
p1677
sg9
VMiklos, Andras
p1678
sg11
V2011
p1679
sg13
VArticle
p1680
sa(dp1681
g3
VWOS:000281675300003
p1682
sg5
VAuthentic Happiness
p1683
sg7
VUTILITAS
p1684
sg9
VBognar, Greg
p1685
sg11
V2010
p1686
sg13
VArticle
p1687
sa(dp1688
g3
VWOS:000278765600010
p1689
sg5
VPleasure and the Good Life: Concerning the Nature, Varieties, and Plausibility of Hedonism
p1690
sg7
VUTILITAS
p1691
sg9
VBradley, Ben
p1692
sg11
V2010
p1693
sg13
VBook Review
p1694
sa(dp1695
g3
VWOS:000274712000004
p1696
sg5
VA Critique of Sumner's Account of Welfare
p1697
sg7
VUTILITAS
p1698
sg9
VTupa, Anton
p1699
sg11
V2010
p1700
sg13
VArticle
p1701
sa(dp1702
g3
VWOS:000439692800006
p1703
sg5
VThe Universal Scope of Positive Duties Correlative to Human Rights
p1704
sg7
VUTILITAS
p1705
sg9
VCapriati, Marinella
p1706
sg11
V2018
p1707
sg13
VArticle
p1708
sa(dp1709
g3
VWOS:000416128100001
p1710
sg5
VMill, Rawls and Cohen on Incentives and Occupational Freedom
p1711
sg7
VUTILITAS
p1712
sg9
VCasal, Paula
p1713
sg11
V2017
p1714
sg13
VArticle
p1715
sa(dp1716
g3
VWOS:000398202600002
p1717
sg5
VBeing Good by Doing Good: Goodness and the Evaluation of Persons
p1718
sg7
VUTILITAS
p1719
sg9
VSchmidt, Andreas T.
p1720
sg11
V2017
p1721
sg13
VArticle
p1722
sa(dp1723
g3
VWOS:000387968000008
p1724
sg5
VMoral Aggregation
p1725
sg7
VUTILITAS
p1726
sg9
VEriksson, Lina
p1727
sg11
V2016
p1728
sg13
VBook Review
p1729
sa(dp1730
g3
VWOS:000387968000003
p1731
sg5
VRule-Consequentialism and the Significance of Species
p1732
sg7
VUTILITAS
p1733
sg9
VGalvao, Pedro
p1734
sg11
V2016
p1735
sg13
VArticle
p1736
sa(dp1737
g3
VWOS:000354104600009
p1738
sg5
VCapital in the Twenty-First Century
p1739
sg7
VUTILITAS
p1740
sg9
VEggleston, Ben
p1741
sg11
V2015
p1742
sg13
VBook Review
p1743
sa(dp1744
g3
VWOS:000354104600001
p1745
sg5
VMoral Psychology and the Unity of Morality
p1746
sg7
VUTILITAS
p1747
sg9
VQuigley, James G.
p1748
sg11
V2015
p1749
sg13
VArticle
p1750
sa(dp1751
g3
VWOS:000304305400003
p1752
sg5
VOn Fairness and Claims
p1753
sg7
VUTILITAS
p1754
sg9
VTomlin, Patrick
p1755
sg11
V2012
p1756
sg13
VArticle
p1757
sa(dp1758
g3
VWOS:000294998600007
p1759
sg5
VThe Cautious Jealous Virtue: Hume on Justice
p1760
sg7
VUTILITAS
p1761
sg9
VTolonen, Mikko
p1762
sg11
V2011
p1763
sg13
VBook Review
p1764
sa(dp1765
g3
VWOS:000284040800005
p1766
sg5
VThe (Stabilized) Nash Bargaining Solution as a Principle of Distributive Justice
p1767
sg7
VUTILITAS
p1768
sg9
VMoehler, Michael
p1769
sg11
V2010
p1770
sg13
VArticle
p1771
sa(dp1772
g3
VWOS:000281675300006
p1773
sg5
VHierarchical Consequentialism
p1774
sg7
VUTILITAS
p1775
sg9
VSegev, Re'em
p1776
sg11
V2010
p1777
sg13
VArticle
p1778
sa(dp1779
g3
VWOS:000272646600005
p1780
sg5
VSome Difficult Intuitions for the Principle of Universality
p1781
sg7
VUTILITAS
p1782
sg9
VKershnar, Stephen
p1783
sg11
V2009
p1784
sg13
VArticle
p1785
sa(dp1786
g3
VWOS:000270261600004
p1787
sg5
VWhy Hobbes' State of Nature is Best Modeled by an Assurance Game
p1788
sg7
VUTILITAS
p1789
sg9
VMoehler, Michael
p1790
sg11
V2009
p1791
sg13
VArticle
p1792
sa(dp1793
g3
VWOS:000270261400006
p1794
sg5
VDegrees of Fairness and Proportional Chances
p1795
sg7
VUTILITAS
p1796
sg9
VCureton, Adam
p1797
sg11
V2009
p1798
sg13
VArticle
p1799
sa(dp1800
g3
VWOS:000447883400003
p1801
sg5
VScales for Scope: A New Solution to the Scope Problem for Pro-Attitude-Based Well-Being
p1802
sg7
VUTILITAS
p1803
sg9
VVon Kriegstein, Hasko
p1804
sg11
V2018
p1805
sg13
VArticle
p1806
sa(dp1807
g3
VWOS:000387968000002
p1808
sg5
VHuman Rights, Categorical Duties: A Dilemma for Instrumentalism
p1809
sg7
VUTILITAS
p1810
sg9
VZylberman, Ariel
p1811
sg11
V2016
p1812
sg13
VArticle
p1813
sa(dp1814
g3
VWOS:000365163400002
p1815
sg5
VFreezing Eggs in a Warming World
p1816
sg7
VUTILITAS
p1817
sg9
VLawlor, Rob
p1818
sg11
V2015
p1819
sg13
VArticle
p1820
sa(dp1821
g3
VWOS:000350581700003
p1822
sg5
VThe Value of the Virtues
p1823
sg7
VUTILITAS
p1824
sg9
VMcelwee, Brian
p1825
sg11
V2015
p1826
sg13
VArticle
p1827
sa(dp1828
g3
VWOS:000344541800007
p1829
sg5
VThe Domain of Reasons
p1830
sg7
VUTILITAS
p1831
sg9
VPaakkunainen, Hille
p1832
sg11
V2014
p1833
sg13
VBook Review
p1834
sa(dp1835
g3
VWOS:000337707500001
p1836
sg5
VSidgwick on Consequentialism and Deontology: A Critique
p1837
sg7
VUTILITAS
p1838
sg9
VHurka, Thomas
p1839
sg11
V2014
p1840
sg13
VArticle
p1841
sa(dp1842
g3
VWOS:000321058600005
p1843
sg5
VA Fresh Start for the Objective-List Theory of Well-Being
p1844
sg7
VUTILITAS
p1845
sg9
VFletcher, Guy
p1846
sg11
V2013
p1847
sg13
VArticle
p1848
sa(dp1849
g3
VWOS:000321058600006
p1850
sg5
VDesire Satisfactionism and Time
p1851
sg7
VUTILITAS
p1852
sg9
VSarch, Alexander
p1853
sg11
V2013
p1854
sg13
VArticle
p1855
sa(dp1856
g3
VWOS:000287977900001
p1857
sg5
VBentham and the Development of the British Critique of Colonialism
p1858
sg7
VUTILITAS
p1859
sg9
VCain, Peter J.
p1860
sg11
V2011
p1861
sg13
VArticle
p1862
sa(dp1863
g3
VWOS:000281675300005
p1864
sg5
VMoral Demands, Moral Pragmatics, and Being Good
p1865
sg7
VUTILITAS
p1866
sg9
VSmilansky, Saul
p1867
sg11
V2010
p1868
sg13
VArticle
p1869
sa(dp1870
g3
VWOS:000278765600001
p1871
sg5
VProduction, Distribution, and J. S. Mill
p1872
sg7
VUTILITAS
p1873
sg9
VVallier, Kevin
p1874
sg11
V2010
p1875
sg13
VArticle
p1876
sa(dp1877
g3
VWOS:000270261400008
p1878
sg5
VThe Wrong Kind of Solution to the Wrong Kind of Reason Problem
p1879
sg7
VUTILITAS
p1880
sg9
VOlson, Jonas
p1881
sg11
V2009
p1882
sg13
VArticle
p1883
sa(dp1884
g3
VWOS:000270261400005
p1885
sg5
VPain's Evils
p1886
sg7
VUTILITAS
p1887
sg9
VSwenson, Adam
p1888
sg11
V2009
p1889
sg13
VArticle
p1890
sa(dp1891
g3
VWOS:000270167700007
p1892
sg5
VThe Second-Person Standpoint: Morality, Respect and Accountability
p1893
sg7
VUTILITAS
p1894
sg9
VFleischacker, Sam
p1895
sg11
V2009
p1896
sg13
VBook Review
p1897
sa(dp1898
g3
VWOS:000434295800003
p1899
sg5
VPrioritarianism: Room for Desert?
p1900
sg7
VUTILITAS
p1901
sg9
VAdler, Matthew D.
p1902
sg11
V2018
p1903
sg13
VArticle
p1904
sa(dp1905
g3
VWOS:000409042800006
p1906
sg5
VThe Limits of Moral Obligation: Moral Demandingness and Ought Implies Can
p1907
sg7
VUTILITAS
p1908
sg9
VFeis, Guglielmo
p1909
sg11
V2017
p1910
sg13
VBook Review
p1911
sa(dp1912
g3
VWOS:000400958200004
p1913
sg5
VTreating Broome Fairly
p1914
sg7
VUTILITAS
p1915
sg9
VPiller, Christian
p1916
sg11
V2017
p1917
sg13
VArticle
p1918
sa(dp1919
g3
VWOS:000382375100003
p1920
sg5
VInterpersonal Comparisons of the Good: Epistemic not Impossible
p1921
sg7
VUTILITAS
p1922
sg9
VCoakley, Mathew
p1923
sg11
V2016
p1924
sg13
VArticle
p1925
sa(dp1926
g3
VWOS:000375949900005
p1927
sg5
VA Humean Constructivist Reading of J. S. Mill's Utilitarian Theory
p1928
sg7
VUTILITAS
p1929
sg9
VDrake, Nicholas
p1930
sg11
V2016
p1931
sg13
VArticle
p1932
sa(dp1933
g3
VWOS:000358833600004
p1934
sg5
VAutonomy and Settling: Rehabilitating the Relationship between Autonomy and Paternalism
p1935
sg7
VUTILITAS
p1936
sg9
VTerlazzo, Rosa
p1937
sg11
V2015
p1938
sg13
VArticle
p1939
sa(dp1940
g3
VWOS:000354104600008
p1941
sg5
VNormative Bedrock: Response-Dependence, Rationality, and Reasons
p1942
sg7
VUTILITAS
p1943
sg9
VLord, Errol
p1944
sg11
V2015
p1945
sg13
VBook Review
p1946
sa(dp1947
g3
VWOS:000344541800005
p1948
sg5
VA Reconsideration of John Stuart Mill's Account of Political Violence
p1949
sg7
VUTILITAS
p1950
sg9
VWhitham, William
p1951
sg11
V2014
p1952
sg13
VArticle
p1953
sa(dp1954
g3
VWOS:000337707500009
p1955
sg5
VSidgwickian Ethics
p1956
sg7
VUTILITAS
p1957
sg9
VGeninet, Hortense
p1958
sg11
V2014
p1959
sg13
VBook Review
p1960
sa(dp1961
g3
VWOS:000331602600003
p1962
sg5
VMoral Dimensions of Moral Hazards
p1963
sg7
VUTILITAS
p1964
sg9
VBraynen, Will
p1965
sg11
V2014
p1966
sg13
VArticle
p1967
sa(dp1968
g3
VWOS:000323728300006
p1969
sg5
VWrong Kind of Reasons and Consequences
p1970
sg7
VUTILITAS
p1971
sg9
VRowland, Richard
p1972
sg11
V2013
p1973
sg13
VArticle
p1974
sa(dp1975
g3
VWOS:000321058600004
p1976
sg5
VAggregation and the Separateness of Persons
p1977
sg7
VUTILITAS
p1978
sg9
VHirose, Iwao
p1979
sg11
V2013
p1980
sg13
VArticle
p1981
sa(dp1982
g3
VWOS:000321058600001
p1983
sg5
VProfessor J. H. Burns (1921-2012)
p1984
sg7
VUTILITAS
p1985
sg9
VRosen, Frederick
p1986
sg11
V2013
p1987
sg13
VBiographical-Item
p1988
sa(dp1989
g3
VWOS:000297602700009
p1990
sg5
VJohn Stuart Mill and the Art of Life
p1991
sg7
VUTILITAS
p1992
sg9
VLoizides, Antis
p1993
sg11
V2011
p1994
sg13
VBook Review
p1995
sa(dp1996
g3
VWOS:000287977900007
p1997
sg5
VIn Defence of the Priority View: A Response to Otsuka and Voorhoeve
p1998
sg7
VUTILITAS
p1999
sg9
VCrisp, Roger
p2000
sg11
V2011
p2001
sg13
VEditorial Material
p2002
sa(dp2003
g3
VWOS:000278765600005
p2004
sg5
VConsequentialism and Permissibility
p2005
sg7
VUTILITAS
p2006
sg9
VMcElwee, Brian
p2007
sg11
V2010
p2008
sg13
VArticle
p2009
sa(dp2010
g3
VWOS:000434294500008
p2011
sg5
VPurpose in the Universe: The Moral and Metaphysical Case for Ananthropocentric Purposivism
p2012
sg7
VUTILITAS
p2013
sg9
VEgerstrom, Kirsten
p2014
sg11
V2018
p2015
sg13
VBook Review
p2016
sa(dp2017
g3
VWOS:000434295800008
p2018
sg5
VHume: An Intellectual Biography
p2019
sg7
VUTILITAS
p2020
sg9
VHanvelt, Marc
p2021
sg11
V2018
p2022
sg13
VBook Review
p2023
sa(dp2024
g3
VWOS:000400958200003
p2025
sg5
VA Reconsideration of the Harsanyi-Sen-Weymark Debate on Utilitarianism
p2026
sg7
VUTILITAS
p2027
sg9
VGreaves, Hilary
p2028
sg11
V2017
p2029
sg13
VArticle
p2030
sa(dp2031
g3
VWOS:000358833600008
p2032
sg5
VEconomic Justice and Liberty: The Social Philosophy in John Stuart Mill's Utilitarianism
p2033
sg7
VUTILITAS
p2034
sg9
VDonner, Wendy
p2035
sg11
V2015
p2036
sg13
VBook Review
p2037
sa(dp2038
g3
VWOS:000344541800006
p2039
sg5
VOn the Equivalence of Trolleys and Transplants: The Lack of Intrinsic Difference between 'Collateral Damage' and Intended Harm
p2040
sg7
VUTILITAS
p2041
sg9
VNye, Howard
p2042
sg11
V2014
p2043
sg13
VArticle
p2044
sa(dp2045
g3
VWOS:000337707500002
p2046
sg5
VAgainst the Yuck Factor: On the Ideal Role of Disgust in Society
p2047
sg7
VUTILITAS
p2048
sg9
VKelly, Daniel
p2049
sg11
V2014
p2050
sg13
VArticle
p2051
sa(dp2052
g3
VWOS:000331602600008
p2053
sg5
VThe Righteous Mind: Why Good People are Dividedby Politics and Religion
p2054
sg7
VUTILITAS
p2055
sg9
VMiller, Dale E.
p2056
sg11
V2014
p2057
sg13
VBook Review
p2058
sa(dp2059
g3
VWOS:000331602600002
p2060
sg5
VNon-Identity Matters, Sometimes
p2061
sg7
VUTILITAS
p2062
sg9
VWeinberg, Justin
p2063
sg11
V2014
p2064
sg13
VArticle
p2065
sa(dp2066
g3
VWOS:000330361100005
p2067
sg5
VJ. S. Mill: Moral, Social and Political Thought
p2068
sg7
VUTILITAS
p2069
sg9
VTurner, Piers Norris
p2070
sg11
V2013
p2071
sg13
VBook Review
p2072
sa(dp2073
g3
VWOS:000323728300005
p2074
sg5
VThe Right Version of 'the Right Kind of Solution to the Wrong Kind of Reason Problem'
p2075
sg7
VUTILITAS
p2076
sg9
VSamuelsson, Lars
p2077
sg11
V2013
p2078
sg13
VArticle
p2079
sa(dp2080
g3
VWOS:000316071300007
p2081
sg5
VJustice, Institutions, and Luck: The Site, Ground, and Scope of Equality
p2082
sg7
VUTILITAS
p2083
sg9
VHalliday, Daniel
p2084
sg11
V2013
p2085
sg13
VBook Review
p2086
sa(dp2087
g3
VWOS:000300437000001
p2088
sg5
VBenthamite Radicalism and its Scots Presbyterian Contexts
p2089
sg7
VUTILITAS
p2090
sg9
VWallace, Valerie
p2091
sg11
V2012
p2092
sg13
VArticle
p2093
sa(dp2094
g3
VWOS:000284040800004
p2095
sg5
VCan Consequentialists Honour the Special Moral Status of Persons?
p2096
sg7
VUTILITAS
p2097
sg9
VPeterson, Martin
p2098
sg11
V2010
p2099
sg13
VArticle
p2100
sa(dp2101
g3
VWOS:000278765600011
p2102
sg5
VIntricate Ethics: Rights, Responsibilities, and Permissible Harms
p2103
sg7
VUTILITAS
p2104
sg9
VGert, Bernard
p2105
sg11
V2010
p2106
sg13
VBook Review
p2107
sa(dp2108
g3
VWOS:000272646600007
p2109
sg5
VOn Three Alleged Theories of Rational Behavior
p2110
sg7
VUTILITAS
p2111
sg9
VRachels, Stuart
p2112
sg11
V2009
p2113
sg13
VArticle
p2114
sa(dp2115
g3
VWOS:000270261600010
p2116
sg5
VOn Feldman's Theory of Happiness
p2117
sg7
VUTILITAS
p2118
sg9
VBlackson, Thomas
p2119
sg11
V2009
p2120
sg13
VArticle
p2121
sa(dp2122
g3
VWOS:000270261600007
p2123
sg5
VUtilitarianism and Psychological Realism
p2124
sg7
VUTILITAS
p2125
sg9
VRietti, Sophie
p2126
sg11
V2009
p2127
sg13
VArticle
p2128
sa(dp2129
g3
VWOS:000270261600003
p2130
sg5
VOn the Possibility of Kantian Retributivism
p2131
sg7
VUTILITAS
p2132
sg9
VLanda, Dimitri
p2133
sg11
V2009
p2134
sg13
VArticle
p2135
sa(dp2136
g3
VWOS:000434294500002
p2137
sg5
VThe Problem with Yuppie Ethics
p2138
sg7
VUTILITAS
p2139
sg9
VGabriel, Iason
p2140
sg11
V2018
p2141
sg13
VArticle
p2142
sa(dp2143
g3
VWOS:000434294500004
p2144
sg5
VGuidance, Obligations and Ability: A Close Look at the Action Guidance Argument for Ought-Implies-Can
p2145
sg7
VUTILITAS
p2146
sg9
VHughes, Nick
p2147
sg11
V2018
p2148
sg13
VArticle
p2149
sa(dp2150
g3
VWOS:000416128100004
p2151
sg5
VPreventing Optimific Wrongings
p2152
sg7
VUTILITAS
p2153
sg9
VSinclair, Thomas
p2154
sg11
V2017
p2155
sg13
VArticle
p2156
sa(dp2157
g3
VWOS:000409042800002
p2158
sg5
VTransitivity, Moral Latitude, and Supererogation
p2159
sg7
VUTILITAS
p2160
sg9
VPortmore, Douglas W.
p2161
sg11
V2017
p2162
sg13
VArticle
p2163
sa(dp2164
g3
VWOS:000400958200005
p2165
sg5
VHow Much is Rule-Consequentialism Really Willing to Give Up to Save the Future of Humanity?
p2166
sg7
VUTILITAS
p2167
sg9
VKaczmarek, Patrick
p2168
sg11
V2017
p2169
sg13
VArticle
p2170
sa(dp2171
g3
VWOS:000398202600009
p2172
sg5
VHuman Interests or Ethics for Physicalists
p2173
sg7
VUTILITAS
p2174
sg9
VMcNaughton, David
p2175
sg11
V2017
p2176
sg13
VBook Review
p2177
sa(dp2178
g3
VWOS:000398202600006
p2179
sg5
VAnton's Game: Deontological Decision Theory for an Iterated Decision Problem
p2180
sg7
VUTILITAS
p2181
sg9
VLazar, Seth
p2182
sg11
V2017
p2183
sg13
VArticle
p2184
sa(dp2185
g3
VWOS:000354104600002
p2186
sg5
VHarm and Causation
p2187
sg7
VUTILITAS
p2188
sg9
VNorthcott, Robert
p2189
sg11
V2015
p2190
sg13
VArticle
p2191
sa(dp2192
g3
VWOS:000350581700005
p2193
sg5
VUtilitarianism for a Broken World
p2194
sg7
VUTILITAS
p2195
sg9
VMulgan, Tim
p2196
sg11
V2015
p2197
sg13
VArticle
p2198
sa(dp2199
g3
VWOS:000321058600009
p2200
sg5
VThe Paradox of Moral Complaint: A Reply to Shaham
p2201
sg7
VUTILITAS
p2202
sg9
VSmilansky, Saul
p2203
sg11
V2013
p2204
sg13
VEditorial Material
p2205
sa(dp2206
g3
VWOS:000311685500006
p2207
sg5
VThe Order of Public Reason: A Theory of Freedom and Morality in a Diverse and Bounded World
p2208
sg7
VUTILITAS
p2209
sg9
VWendt, Fabian
p2210
sg11
V2012
p2211
sg13
VBook Review
p2212
sa(dp2213
g3
VWOS:000308346400006
p2214
sg5
VAnother Defence of the Priority View
p2215
sg7
VUTILITAS
p2216
sg9
VParfit, Derek
p2217
sg11
V2012
p2218
sg13
VArticle
p2219
sa(dp2220
g3
VWOS:000304305400005
p2221
sg5
VThe Moral Status of Combatants during Military Humanitarian Intervention
p2222
sg7
VUTILITAS
p2223
sg9
VLeveringhaus, Alex
p2224
sg11
V2012
p2225
sg13
VArticle
p2226
sa(dp2227
g3
VWOS:000297602700005
p2228
sg5
VWishful Thinking in Moral Theorizing: Comment on Enoch
p2229
sg7
VUTILITAS
p2230
sg9
VGreve, Rob Van Someren
p2231
sg11
V2011
p2232
sg13
VEditorial Material
p2233
sa(dp2234
g3
VWOS:000297602700003
p2235
sg5
VAbsent Desires
p2236
sg7
VUTILITAS
p2237
sg9
VHandfield, Toby
p2238
sg11
V2011
p2239
sg13
VArticle
p2240
sa(dp2241
g3
VWOS:000294998600006
p2242
sg5
VIs There a Paradox of Moral Complaint?
p2243
sg7
VUTILITAS
p2244
sg9
VShaham, Talia
p2245
sg11
V2011
p2246
sg13
VArticle
p2247
sa(dp2248
g3
VWOS:000294998600009
p2249
sg5
VJohn Stuart Mill - Thought and Influence: The Saint of Rationalism
p2250
sg7
VUTILITAS
p2251
sg9
VGrollios, Vasilis
p2252
sg11
V2011
p2253
sg13
VBook Review
p2254
sa(dp2255
g3
VWOS:000291859600009
p2256
sg5
VEssays on the History of Moral Philosophy
p2257
sg7
VUTILITAS
p2258
sg9
VMorgan, Michael L.
p2259
sg11
V2011
p2260
sg13
VBook Review
p2261
sa(dp2262
g3
VWOS:000274712000007
p2263
sg5
VSome Further Thoughts on Sidgwick's Epistemology
p2264
sg7
VUTILITAS
p2265
sg9
VDeigh, John
p2266
sg11
V2010
p2267
sg13
VEditorial Material
p2268
sa(dp2269
g3
VWOS:000272646600001
p2270
sg5
VA Conflict in Common-Sense Moral Psychology
p2271
sg7
VUTILITAS
p2272
sg9
VZimmerman, Aaron Z.
p2273
sg11
V2009
p2274
sg13
VArticle
p2275
sa(dp2276
g3
VWOS:000270261400004
p2277
sg5
VImaginative Motivation
p2278
sg7
VUTILITAS
p2279
sg9
VKroon, Frederick
p2280
sg11
V2009
p2281
sg13
VArticle
p2282
sa(dp2283
g3
VWOS:000434294500003
p2284
sg5
VPrichard's Arguments against Ideal Utilitarianism
p2285
sg7
VUTILITAS
p2286
sg9
VShaver, Robert
p2287
sg11
V2018
p2288
sg13
VArticle
p2289
sa(dp2290
g3
VWOS:000434294500005
p2291
sg5
VJohn Gay and the Birth of Utilitarianism
p2292
sg7
VUTILITAS
p2293
sg9
VLustila, Getty L.
p2294
sg11
V2018
p2295
sg13
VArticle
p2296
sa(dp2297
g3
VWOS:000409042800004
p2298
sg5
VRecalibrating Defensive Killing: Liability, Mere Permissibility, and the Problem of Multiple Threats
p2299
sg7
VUTILITAS
p2300
sg9
VChehtman, Alejandro
p2301
sg11
V2017
p2302
sg13
VArticle
p2303
sa(dp2304
g3
VWOS:000382375100006
p2305
sg5
VFairness and the Strengths of Agents' Claims
p2306
sg7
VUTILITAS
p2307
sg9
VSharadin, Nathaniel
p2308
sg11
V2016
p2309
sg13
VArticle
p2310
sa(dp2311
g3
VWOS:000375949900003
p2312
sg5
VAgainst Securitism, the New Breed of Actualism in Consequentialist Thought
p2313
sg7
VUTILITAS
p2314
sg9
VVessel, Jean-Paul
p2315
sg11
V2016
p2316
sg13
VArticle
p2317
sa(dp2318
g3
VWOS:000370688100005
p2319
sg5
VEthical Dilemmas of Sociability
p2320
sg7
VUTILITAS
p2321
sg9
VBrownlee, Kimberley
p2322
sg11
V2016
p2323
sg13
VArticle
p2324
sa(dp2325
g3
VWOS:000350581700004
p2326
sg5
VBroome's Theory of Fairness and the Problem of Quantifying the Strengths of Claims
p2327
sg7
VUTILITAS
p2328
sg9
VKirkpatrick, James R.
p2329
sg11
V2015
p2330
sg13
VArticle
p2331
sa(dp2332
g3
VWOS:000331602600001
p2333
sg5
VRawls, Reciprocity and the Barely Reasonable
p2334
sg7
VUTILITAS
p2335
sg9
VMcmahon, Christopher
p2336
sg11
V2014
p2337
sg13
VArticle
p2338
sa(dp2339
g3
VWOS:000323728300008
p2340
sg5
VHooker on Rule-Consequentialism and Virtue
p2341
sg7
VUTILITAS
p2342
sg9
VMiller, Dale E.
p2343
sg11
V2013
p2344
sg13
VArticle
p2345
sa(dp2346
g3
VWOS:000321058600007
p2347
sg5
VThe Common Structure of Kantianism and Act-Utilitarianism
p2348
sg7
VUTILITAS
p2349
sg9
VWoodard, Christopher
p2350
sg11
V2013
p2351
sg13
VArticle
p2352
sa(dp2353
g3
VWOS:000311685500008
p2354
sg5
VBeyond Consequentialism
p2355
sg7
VUTILITAS
p2356
sg9
VReath, Andrews
p2357
sg11
V2012
p2358
sg13
VBook Review
p2359
sa(dp2360
g3
VWOS:000311685500007
p2361
sg5
VCommonsense Consequentialism: Wherein Morality Meets Rationality
p2362
sg7
VUTILITAS
p2363
sg9
VVessel, Jean-Paul
p2364
sg11
V2012
p2365
sg13
VBook Review
p2366
sa(dp2367
g3
VWOS:000287977900002
p2368
sg5
VSugden's Critique of the Capability Approach
p2369
sg7
VUTILITAS
p2370
sg9
VQizilbash, Mozaffar
p2371
sg11
V2011
p2372
sg13
VArticle
p2373
sa(dp2374
g3
VWOS:000284040800002
p2375
sg5
VDistributive Justice and Freedom: Cohen on Money and Labour
p2376
sg7
VUTILITAS
p2377
sg9
VFabre, Cecile
p2378
sg11
V2010
p2379
sg13
VArticle
p2380
sa(dp2381
g3
VWOS:000281675300001
p2382
sg5
VMoral Aspirations and Ideals
p2383
sg7
VUTILITAS
p2384
sg9
VBrownlee, Kimberley
p2385
sg11
V2010
p2386
sg13
VArticle
p2387
sa(dp2388
g3
VWOS:000281675300010
p2389
sg5
VMill's On Liberty: A Critical Guide
p2390
sg7
VUTILITAS
p2391
sg9
VTurner, Brandon P.
p2392
sg11
V2010
p2393
sg13
VBook Review
p2394
sa(dp2395
g3
VWOS:000272646600010
p2396
sg5
VNatural Justice
p2397
sg7
VUTILITAS
p2398
sg9
VWiderquist, Karl
p2399
sg11
V2009
p2400
sg13
VBook Review
p2401
sa(dp2402
g3
VWOS:000270261600008
p2403
sg5
VRule-Consequentialism and Irrelevant Others
p2404
sg7
VUTILITAS
p2405
sg9
VPortmore, Douglas W.
p2406
sg11
V2009
p2407
sg13
VArticle
p2408
sa(dp2409
g3
VWOS:000270261600002
p2410
sg5
VMeeting Need
p2411
sg7
VUTILITAS
p2412
sg9
VHassoun, Nicole
p2413
sg11
V2009
p2414
sg13
VArticle
p2415
sa(dp2416
g3
VWOS:000270261400010
p2417
sg5
VAgainst Body Exceptionalism: A Reply to Eyal
p2418
sg7
VUTILITAS
p2419
sg9
VFabre, Cecile
p2420
sg11
V2009
p2421
sg13
VEditorial Material
p2422
sa(dp2423
g3
VWOS:000270167700001
p2424
sg5
VPrivate Revenge and its Relation to Punishment
p2425
sg7
VUTILITAS
p2426
sg9
VRosebury, Brian
p2427
sg11
V2009
p2428
sg13
VArticle
p2429
sa.