(lp1
(dp2
S'uid'
p3
VWOS:000352334200008
p4
sS'title'
p5
VThe Law and Ethics of Medicine: Essays on the Inviolability of Human Life
p6
sS'journal'
p7
VJOURNAL OF MORAL PHILOSOPHY
p8
sS'author'
p9
VTollefsen, Christopher
p10
sS'year'
p11
V2015
p12
sS'doctype'
p13
VBook Review
p14
sa(dp15
g3
VWOS:000348280700005
p16
sg5
VCrime and Punishment: A Concise Moral Critique
p17
sg7
VJOURNAL OF MORAL PHILOSOPHY
p18
sg9
VLee, Youngjae
p19
sg11
V2015
p20
sg13
VBook Review
p21
sa(dp22
g3
VWOS:000342601900008
p23
sg5
VRelative Justice: Cultural Diversity Free Will, and Moral Responsibility
p24
sg7
VJOURNAL OF MORAL PHILOSOPHY
p25
sg9
VCoates, D. Justin
p26
sg11
V2014
p27
sg13
VBook Review
p28
sa(dp29
g3
VWOS:000328877800005
p30
sg5
VThe Ethics of War and Peace: An Introduction
p31
sg7
VJOURNAL OF MORAL PHILOSOPHY
p32
sg9
VParry, Jonathan
p33
sg11
V2013
p34
sg13
VBook Review
p35
sa(dp36
g3
VWOS:000316921800001
p37
sg5
VParticularism in Aristotle's Nicomachean Ethics
p38
sg7
VJOURNAL OF MORAL PHILOSOPHY
p39
sg9
VLeibowitz, Uri D.
p40
sg11
V2013
p41
sg13
VArticle
p42
sa(dp43
g3
VWOS:000316921800011
p44
sg5
VPartiality and Impartiality: Morality, Special Relationships, and The Wider World
p45
sg7
VJOURNAL OF MORAL PHILOSOPHY
p46
sg9
VLi, Yong
p47
sg11
V2013
p48
sg13
VBook Review
p49
sa(dp50
g3
VWOS:000307243600007
p51
sg5
VOxford Studies in Metaethics, vol 5
p52
sg7
VJOURNAL OF MORAL PHILOSOPHY
p53
sg9
VCholbi, Michael
p54
sg11
V2012
p55
sg13
VBook Review
p56
sa(dp57
g3
VWOS:000297812300005
p58
sg5
VDividing Harm
p59
sg7
VJOURNAL OF MORAL PHILOSOPHY
p60
sg9
VOverland, Gerhard
p61
sg11
V2011
p62
sg13
VArticle
p63
sa(dp64
g3
VWOS:000290934600007
p65
sg5
VWell-being and Death
p66
sg7
VJOURNAL OF MORAL PHILOSOPHY
p67
sg9
VTaylor, James Stacey
p68
sg11
V2010
p69
sg13
VBook Review
p70
sa(dp71
g3
VWOS:000209005400012
p72
sg5
VEthics and Foreign Intervention
p73
sg7
VJOURNAL OF MORAL PHILOSOPHY
p74
sg9
VSzende, Jennifer
p75
sg11
V2006
p76
sg13
VBook Review
p77
sa(dp78
g3
VWOS:000435862700009
p79
sg5
VJustice Through Apologies: Remorse, Reform and Punishment
p80
sg7
VJOURNAL OF MORAL PHILOSOPHY
p81
sg9
VWinter, Stephen
p82
sg11
V2018
p83
sg13
VBook Review
p84
sa(dp85
g3
VWOS:000395810400008
p86
sg5
VDeath and the Afterlife
p87
sg7
VJOURNAL OF MORAL PHILOSOPHY
p88
sg9
VLuper, Steven
p89
sg11
V2017
p90
sg13
VBook Review
p91
sa(dp92
g3
VWOS:000359477900004
p93
sg5
VRethinking the Person-Affecting Principle
p94
sg7
VJOURNAL OF MORAL PHILOSOPHY
p95
sg9
VRoss, Jacob
p96
sg11
V2015
p97
sg13
VArticle
p98
sa(dp99
g3
VWOS:000345494500004
p100
sg5
VExpressivism and Mind-Dependence Distinct Existences
p101
sg7
VJOURNAL OF MORAL PHILOSOPHY
p102
sg9
VKoehler, Sebastian
p103
sg11
V2014
p104
sg13
VArticle
p105
sa(dp106
g3
VWOS:000209005300009
p107
sg5
VThe Moral Demands of Affluence
p108
sg7
VJOURNAL OF MORAL PHILOSOPHY
p109
sg9
VHellsten, Sirkku
p110
sg11
V2005
p111
sg13
VBook Review
p112
sa(dp113
g3
VWOS:000209005100009
p114
sg5
VAffirmative Action and Racial Preferences: A Debate
p115
sg7
VJOURNAL OF MORAL PHILOSOPHY
p116
sg9
VZack, Naomi
p117
sg11
V2005
p118
sg13
VBook Review
p119
sa(dp120
g3
VWOS:000319853400007
p121
sg5
VOn What Matters, vol 1
p122
sg7
VJOURNAL OF MORAL PHILOSOPHY
p123
sg9
VAnomaly, Jonny
p124
sg11
V2013
p125
sg13
VBook Review
p126
sa(dp127
g3
VWOS:000316921800002
p128
sg5
VMust Metaethical Realism Make a Semantic Claim?
p129
sg7
VJOURNAL OF MORAL PHILOSOPHY
p130
sg9
VKahane, Guy
p131
sg11
V2013
p132
sg13
VArticle
p133
sa(dp134
g3
VWOS:000300545600012
p135
sg5
VMoral Reflection
p136
sg7
VJOURNAL OF MORAL PHILOSOPHY
p137
sg9
VBaker, Jennifer
p138
sg11
V2012
p139
sg13
VBook Review
p140
sa(dp141
g3
VWOS:000297812300013
p142
sg5
VConversations on Ethics
p143
sg7
VJOURNAL OF MORAL PHILOSOPHY
p144
sg9
VGarthoff, Jon
p145
sg11
V2011
p146
sg13
VBook Review
p147
sa(dp148
g3
VWOS:000296865300008
p149
sg5
VCan Wars Be Fought Justly? The Necessity Condition Put to the Test
p150
sg7
VJOURNAL OF MORAL PHILOSOPHY
p151
sg9
VStatman, Daniel
p152
sg11
V2011
p153
sg13
VArticle
p154
sa(dp155
g3
VWOS:000207935200003
p156
sg5
VNatural Separateness: Why Parfit's Reductionist Account of Persons Fails to Support Consequentialism
p157
sg7
VJOURNAL OF MORAL PHILOSOPHY
p158
sg9
VChristie, Tim W.
p159
sg11
V2009
p160
sg13
VArticle
p161
sa(dp162
g3
VWOS:000209005400014
p163
sg5
VDworkin and his Critics
p164
sg7
VJOURNAL OF MORAL PHILOSOPHY
p165
sg9
VWatkins, Jeremy
p166
sg11
V2006
p167
sg13
VBook Review
p168
sa(dp169
g3
VWOS:000209005100004
p170
sg5
VLegal Reasons: Between Universalism and Particularism
p171
sg7
VJOURNAL OF MORAL PHILOSOPHY
p172
sg9
VRedondo, Maria Cristina
p173
sg11
V2005
p174
sg13
VArticle
p175
sa(dp176
g3
VWOS:000209005300004
p177
sg5
VPoverty and the Moral Significance of Contribution
p178
sg7
VJOURNAL OF MORAL PHILOSOPHY
p179
sg9
VOverland, Gerhard
p180
sg11
V2005
p181
sg13
VArticle
p182
sa(dp183
g3
VWOS:000395812200013
p184
sg5
VThe Limits of Kindness
p185
sg7
VJOURNAL OF MORAL PHILOSOPHY
p186
sg9
VBoonin, David
p187
sg11
V2017
p188
sg13
VBook Review
p189
sa(dp190
g3
VWOS:000389010400006
p191
sg5
VHow We Hope: A Moral Psychology
p192
sg7
VJOURNAL OF MORAL PHILOSOPHY
p193
sg9
VCobb, Aaron D.
p194
sg11
V2016
p195
sg13
VBook Review
p196
sa(dp197
g3
VWOS:000368153000008
p198
sg5
VLuck, Value and Commitment: Themes from the Ethics of Bernard Williams
p199
sg7
VJOURNAL OF MORAL PHILOSOPHY
p200
sg9
VArkonovich, Steven
p201
sg11
V2016
p202
sg13
VBook Review
p203
sa(dp204
g3
VWOS:000359477900011
p205
sg5
VForgiveness and Love
p206
sg7
VJOURNAL OF MORAL PHILOSOPHY
p207
sg9
VRoberts, Robert C.
p208
sg11
V2015
p209
sg13
VBook Review
p210
sa(dp211
g3
VWOS:000339468100007
p212
sg5
VResponses
p213
sg7
VJOURNAL OF MORAL PHILOSOPHY
p214
sg9
VKamm, Frances
p215
sg11
V2014
p216
sg13
VArticle
p217
sa(dp218
g3
VWOS:000339468100001
p219
sg5
VSummary of Ethics for Enemies
p220
sg7
VJOURNAL OF MORAL PHILOSOPHY
p221
sg9
VKamm, Frances
p222
sg11
V2014
p223
sg13
VArticle
p224
sa(dp225
g3
VWOS:000331239700010
p226
sg5
VJS Mill: Moral, Social and Political Thought
p227
sg7
VJOURNAL OF MORAL PHILOSOPHY
p228
sg9
VSchofield, Philip
p229
sg11
V2014
p230
sg13
VBook Review
p231
sa(dp232
g3
VWOS:000331239700002
p233
sg5
VExplaining Moral Knowledge
p234
sg7
VJOURNAL OF MORAL PHILOSOPHY
p235
sg9
VLeibowitz, Uri D.
p236
sg11
V2014
p237
sg13
VArticle
p238
sa(dp239
g3
VWOS:000296865300003
p240
sg5
VAllowing the Poor to Share the Earth
p241
sg7
VJOURNAL OF MORAL PHILOSOPHY
p242
sg9
VPogge, Thomas
p243
sg11
V2011
p244
sg13
VArticle
p245
sa(dp246
g3
VWOS:000290935200001
p247
sg5
VThe Hedonist's Dilemma
p248
sg7
VJOURNAL OF MORAL PHILOSOPHY
p249
sg9
VDorsey, Dale
p250
sg11
V2011
p251
sg13
VArticle
p252
sa(dp253
g3
VWOS:000207935400005
p254
sg5
VThe 'Banality of Good'?
p255
sg7
VJOURNAL OF MORAL PHILOSOPHY
p256
sg9
VScarre, Geoffrey
p257
sg11
V2009
p258
sg13
VArticle
p259
sa(dp260
g3
VWOS:000209005400008
p261
sg5
VOne World: The Ethics of Globalization
p262
sg7
VJOURNAL OF MORAL PHILOSOPHY
p263
sg9
VChatterjee, Deen K.
p264
sg11
V2006
p265
sg13
VBook Review
p266
sa(dp267
g3
VWOS:000209005400015
p268
sg5
VThe Practice of Liberal Pluralism
p269
sg7
VJOURNAL OF MORAL PHILOSOPHY
p270
sg9
VYoung, Shaun P.
p271
sg11
V2006
p272
sg13
VBook Review
p273
sa(dp274
g3
VWOS:000209005300001
p275
sg5
VUntitled
p276
sg7
VJOURNAL OF MORAL PHILOSOPHY
p277
sg9
VBrooks, Thom
p278
sg11
V2005
p279
sg13
VEditorial Material
p280
sa(dp281
g3
VWOS:000209005500012
p282
sg5
VAn Introduction to Mill's Utilitarian Ethics
p283
sg7
VJOURNAL OF MORAL PHILOSOPHY
p284
sg9
VTen, C. L.
p285
sg11
V2006
p286
sg13
VBook Review
p287
sa(dp288
g3
VWOS:000209005200010
p289
sg5
VAfter Evil: Responding to Wrongdoing
p290
sg7
VJOURNAL OF MORAL PHILOSOPHY
p291
sg9
VGovier, Trudy
p292
sg11
V2005
p293
sg13
VBook Review
p294
sa(dp295
g3
VWOS:000430274300007
p296
sg5
VNothingness and the Meaning of Life: Philosophical Approaches to Ultimate Meaning Through Nothing and Reflexivity
p297
sg7
VJOURNAL OF MORAL PHILOSOPHY
p298
sg9
VBennett-Hunter, Guy
p299
sg11
V2018
p300
sg13
VBook Review
p301
sa(dp302
g3
VWOS:000385476500011
p303
sg5
VIntegrity and the Virtues of Reason: Leading a Convincing Life
p304
sg7
VJOURNAL OF MORAL PHILOSOPHY
p305
sg9
VCox, Damian
p306
sg11
V2016
p307
sg13
VBook Review
p308
sa(dp309
g3
VWOS:000372353900006
p310
sg5
VBuilding Better Beings: A Theory of Moral Responsibility
p311
sg7
VJOURNAL OF MORAL PHILOSOPHY
p312
sg9
VCapes, Justin A.
p313
sg11
V2016
p314
sg13
VBook Review
p315
sa(dp316
g3
VWOS:000361467400008
p317
sg5
VBeyond Communciation. A Critical Study of Axel Honneth's Social Philosophy.
p318
sg7
VJOURNAL OF MORAL PHILOSOPHY
p319
sg9
VLaitinen, Arto
p320
sg11
V2015
p321
sg13
VBook Review
p322
sa(dp323
g3
VWOS:000359477900002
p324
sg5
VThe Quality of Gooditude
p325
sg7
VJOURNAL OF MORAL PHILOSOPHY
p326
sg9
VMunoz-Darde, Veronique
p327
sg11
V2015
p328
sg13
VArticle
p329
sa(dp330
g3
VWOS:000357027500006
p331
sg5
VFinding Oneself in the Other
p332
sg7
VJOURNAL OF MORAL PHILOSOPHY
p333
sg9
VFurendal, Markus
p334
sg11
V2015
p335
sg13
VBook Review
p336
sa(dp337
g3
VWOS:000357027500001
p338
sg5
VPro-Tanto Obligations and Ceteris-Paribus Rules
p339
sg7
VJOURNAL OF MORAL PHILOSOPHY
p340
sg9
VFrederick, Danny
p341
sg11
V2015
p342
sg13
VArticle
p343
sa(dp344
g3
VWOS:000334142500011
p345
sg5
VArguing about Justice: Essays for Philippe Van Parijs
p346
sg7
VJOURNAL OF MORAL PHILOSOPHY
p347
sg9
VDaskal, Steven
p348
sg11
V2014
p349
sg13
VBook Review
p350
sa(dp351
g3
VWOS:000331239700004
p352
sg5
VAgainst Moral Fictionalism
p353
sg7
VJOURNAL OF MORAL PHILOSOPHY
p354
sg9
VHusi, Stan
p355
sg11
V2014
p356
sg13
VArticle
p357
sa(dp358
g3
VWOS:000325041300009
p359
sg5
VNietzsche's On the Genealogy of Morality: A Critical Guide
p360
sg7
VJOURNAL OF MORAL PHILOSOPHY
p361
sg9
VAlfano, Mark
p362
sg11
V2013
p363
sg13
VBook Review
p364
sa(dp365
g3
VWOS:000315127800008
p366
sg5
VThomas Pogge and His Critics
p367
sg7
VJOURNAL OF MORAL PHILOSOPHY
p368
sg9
VNili, Shmuel
p369
sg11
V2013
p370
sg13
VBook Review
p371
sa(dp372
g3
VWOS:000300545600004
p373
sg5
VIntentions and Discrimination in Hiring
p374
sg7
VJOURNAL OF MORAL PHILOSOPHY
p375
sg9
VLippert-Rasmussen, Kasper
p376
sg11
V2012
p377
sg13
VArticle
p378
sa(dp379
g3
VWOS:000207935100005
p380
sg5
VThe Fact of Diversity and Reasonable Pluralism
p381
sg7
VJOURNAL OF MORAL PHILOSOPHY
p382
sg9
VLynch, Sterling
p383
sg11
V2009
p384
sg13
VArticle
p385
sa(dp386
g3
VWOS:000290935100006
p387
sg5
VWhen Consent Doesn't Work: A Rights-Based Case for Limits to Consent's Capacity to Legitimise
p388
sg7
VJOURNAL OF MORAL PHILOSOPHY
p389
sg9
VHyams, Keith
p390
sg11
V2011
p391
sg13
VArticle
p392
sa(dp393
g3
VWOS:000209005100012
p394
sg5
VRights and Reason: An Introduction to the Philosophy of Rights
p395
sg7
VJOURNAL OF MORAL PHILOSOPHY
p396
sg9
VViens, Adrian M.
p397
sg11
V2005
p398
sg13
VBook Review
p399
sa(dp400
g3
VWOS:000209005100007
p401
sg5
VAn Introduction to Contemporary Metaethics
p402
sg7
VJOURNAL OF MORAL PHILOSOPHY
p403
sg9
VHalley, Karina
p404
sg11
V2005
p405
sg13
VBook Review
p406
sa(dp407
g3
VWOS:000435862700007
p408
sg5
VThe Right to be Loved
p409
sg7
VJOURNAL OF MORAL PHILOSOPHY
p410
sg9
VShields, Liam
p411
sg11
V2018
p412
sg13
VBook Review
p413
sa(dp414
g3
VWOS:000424088200003
p415
sg5
VTwo Ways to Transfer a Bodily Right
p416
sg7
VJOURNAL OF MORAL PHILOSOPHY
p417
sg9
VLiberto, Hallie
p418
sg11
V2018
p419
sg13
VArticle
p420
sa(dp421
g3
VWOS:000389010400002
p422
sg5
VBiological Parenting as a Human Right
p423
sg7
VJOURNAL OF MORAL PHILOSOPHY
p424
sg9
VLiao, S. Matthew
p425
sg11
V2016
p426
sg13
VArticle
p427
sa(dp428
g3
VWOS:000378815700009
p429
sg5
VOn Emotions: Philosophical Essays
p430
sg7
VJOURNAL OF MORAL PHILOSOPHY
p431
sg9
VTodd, Cain
p432
sg11
V2016
p433
sg13
VBook Review
p434
sa(dp435
g3
VWOS:000368153000005
p436
sg5
VTaking Morality Seriously
p437
sg7
VJOURNAL OF MORAL PHILOSOPHY
p438
sg9
VBjornsson, Gunnar
p439
sg11
V2016
p440
sg13
VReview
p441
sa(dp442
g3
VWOS:000365066300007
p443
sg5
VEthics and the Golden Rule
p444
sg7
VJOURNAL OF MORAL PHILOSOPHY
p445
sg9
VJordan, Matthew Carey
p446
sg11
V2015
p447
sg13
VBook Review
p448
sa(dp449
g3
VWOS:000361467400002
p450
sg5
VThe Place of Psychoanalysis in the History of Ethics
p451
sg7
VJOURNAL OF MORAL PHILOSOPHY
p452
sg9
VHarcourt, Edward
p453
sg11
V2015
p454
sg13
VArticle
p455
sa(dp456
g3
VWOS:000352334200003
p457
sg5
VWhen Justice Demands Inequality
p458
sg7
VJOURNAL OF MORAL PHILOSOPHY
p459
sg9
VThrasher, John
p460
sg11
V2015
p461
sg13
VArticle
p462
sa(dp463
g3
VWOS:000322682000020
p464
sg5
VForgiveness
p465
sg7
VJOURNAL OF MORAL PHILOSOPHY
p466
sg9
VScarre, Geoffrey
p467
sg11
V2013
p468
sg13
VBook Review
p469
sa(dp470
g3
VWOS:000310046700009
p471
sg5
VThe Human Condition
p472
sg7
VJOURNAL OF MORAL PHILOSOPHY
p473
sg9
VRaibley, Jason R.
p474
sg11
V2012
p475
sg13
VBook Review
p476
sa(dp477
g3
VWOS:000303102200010
p478
sg5
VOn Compromises and Rotten Compromises
p479
sg7
VJOURNAL OF MORAL PHILOSOPHY
p480
sg9
VJensen, Mark N.
p481
sg11
V2012
p482
sg13
VBook Review
p483
sa(dp484
g3
VWOS:000303102200004
p485
sg5
VMoral Responsibility and Consciousness
p486
sg7
VJOURNAL OF MORAL PHILOSOPHY
p487
sg9
VKing, Matt
p488
sg11
V2012
p489
sg13
VArticle
p490
sa(dp491
g3
VWOS:000207935100010
p492
sg5
VLevelling the Playing Field: The Idea of Equal Opportunity and its Place in Egalitarian Thought
p493
sg7
VJOURNAL OF MORAL PHILOSOPHY
p494
sg9
VOlsaretti, Serena
p495
sg11
V2009
p496
sg13
VBook Review
p497
sa(dp498
g3
VWOS:000290914100010
p499
sg5
VWhose Body is it Anyway? Justice and the Integrity of the Person
p500
sg7
VJOURNAL OF MORAL PHILOSOPHY
p501
sg9
VParvin, Phil
p502
sg11
V2010
p503
sg13
VBook Review
p504
sa(dp505
g3
VWOS:000290913600007
p506
sg5
VThinking about Normativity: Ralph Wedgwood on 'Ought'
p507
sg7
VJOURNAL OF MORAL PHILOSOPHY
p508
sg9
Vde Muijnck, Wim
p509
sg11
V2010
p510
sg13
VReview
p511
sa(dp512
g3
VWOS:000209005200005
p513
sg5
VVirtue for Pluralists
p514
sg7
VJOURNAL OF MORAL PHILOSOPHY
p515
sg9
VSabl, Andrew
p516
sg11
V2005
p517
sg13
VArticle
p518
sa(dp519
g3
VWOS:000424088200004
p520
sg5
VThe Coherence of Public Reason
p521
sg7
VJOURNAL OF MORAL PHILOSOPHY
p522
sg9
VLister, Andrew
p523
sg11
V2018
p524
sg13
VArticle
p525
sa(dp526
g3
VWOS:000424088200001
p527
sg5
VDistributive Justice and Distributed Obligations
p528
sg7
VJOURNAL OF MORAL PHILOSOPHY
p529
sg9
VEdmundson, William A.
p530
sg11
V2018
p531
sg13
VArticle
p532
sa(dp533
g3
VWOS:000414571300004
p534
sg5
VClimate Change, Individual Emissions, and Foreseeing Harm
p535
sg7
VJOURNAL OF MORAL PHILOSOPHY
p536
sg9
VVance, Chad
p537
sg11
V2017
p538
sg13
VArticle
p539
sa(dp540
g3
VWOS:000409208800010
p541
sg5
VThe Handbook of Virtue Ethics
p542
sg7
VJOURNAL OF MORAL PHILOSOPHY
p543
sg9
VBoyd, Craig A.
p544
sg11
V2017
p545
sg13
VBook Review
p546
sa(dp547
g3
VWOS:000342601900007
p548
sg5
VAgainst Absolute Goodness
p549
sg7
VJOURNAL OF MORAL PHILOSOPHY
p550
sg9
VLemos, Noah
p551
sg11
V2014
p552
sg13
VBook Review
p553
sa(dp554
g3
VWOS:000342601900005
p555
sg5
VThe Origin and Future of Political Liberalism
p556
sg7
VJOURNAL OF MORAL PHILOSOPHY
p557
sg9
VVallier, Kevin
p558
sg11
V2014
p559
sg13
VReview
p560
sa(dp561
g3
VWOS:000339468100004
p562
sg5
VKamm on Intention and Proportionality in War
p563
sg7
VJOURNAL OF MORAL PHILOSOPHY
p564
sg9
VHurka, Thomas
p565
sg11
V2014
p566
sg13
VArticle
p567
sa(dp568
g3
VWOS:000334142500001
p569
sg5
VSelf-Cultivation and Moral Choice
p570
sg7
VJOURNAL OF MORAL PHILOSOPHY
p571
sg9
VMaskivker, Julia
p572
sg11
V2014
p573
sg13
VArticle
p574
sa(dp575
g3
VWOS:000328877800010
p576
sg5
VThe Family: A Liberal Defence
p577
sg7
VJOURNAL OF MORAL PHILOSOPHY
p578
sg9
VHannan, Sarah
p579
sg11
V2013
p580
sg13
VBook Review
p581
sa(dp582
g3
VWOS:000315127800005
p583
sg5
VWeighing Reasons
p584
sg7
VJOURNAL OF MORAL PHILOSOPHY
p585
sg9
VKearns, Stephen
p586
sg11
V2013
p587
sg13
VArticle
p588
sa(dp589
g3
VWOS:000310046700008
p590
sg5
VOn Courage
p591
sg7
VJOURNAL OF MORAL PHILOSOPHY
p592
sg9
VMihut, Cristian
p593
sg11
V2012
p594
sg13
VBook Review
p595
sa(dp596
g3
VWOS:000300545600001
p597
sg5
VEquality and Non-discrimination in Hiring - Introduction
p598
sg7
VJOURNAL OF MORAL PHILOSOPHY
p599
sg9
VGosseries, Axel
p600
sg11
V2012
p601
sg13
VArticle
p602
sa(dp603
g3
VWOS:000290934300006
p604
sg5
VMoral Status, Speciesism, and Liao's Genetic Account
p605
sg7
VJOURNAL OF MORAL PHILOSOPHY
p606
sg9
VGrau, Christopher
p607
sg11
V2010
p608
sg13
VEditorial Material
p609
sa(dp610
g3
VWOS:000290913600004
p611
sg5
VAssociative Duties and Global Justice
p612
sg7
VJOURNAL OF MORAL PHILOSOPHY
p613
sg9
VSeglow, Jonathan
p614
sg11
V2010
p615
sg13
VArticle
p616
sa(dp617
g3
VWOS:000290913600005
p618
sg5
VConstructivism and Practical Reason: On Intersubjectivity, Abstraction, and Judgment
p619
sg7
VJOURNAL OF MORAL PHILOSOPHY
p620
sg9
VRonzoni, Miriam
p621
sg11
V2010
p622
sg13
VArticle
p623
sa(dp624
g3
VWOS:000209005400005
p625
sg5
VMore on Blameworthiness and Alternative Possibilities
p626
sg7
VJOURNAL OF MORAL PHILOSOPHY
p627
sg9
VGoddu, G. C.
p628
sg11
V2006
p629
sg13
VArticle
p630
sa(dp631
g3
VWOS:000430274300001
p632
sg5
VCan't Complain
p633
sg7
VJOURNAL OF MORAL PHILOSOPHY
p634
sg9
VNorlock, Kathryn J.
p635
sg11
V2018
p636
sg13
VArticle
p637
sa(dp638
g3
VWOS:000417692900001
p639
sg5
VIntroduction to Symposium on New Work on Character
p640
sg7
VJOURNAL OF MORAL PHILOSOPHY
p641
sg9
VMiller, Christian B.
p642
sg11
V2017
p643
sg13
VEditorial Material
p644
sa(dp645
g3
VWOS:000417692900003
p646
sg5
VRole Modeling and Reasons Developmental and Normative Grounds of Moral Virtues
p647
sg7
VJOURNAL OF MORAL PHILOSOPHY
p648
sg9
VAudi, Robert
p649
sg11
V2017
p650
sg13
VArticle
p651
sa(dp652
g3
VWOS:000409208800011
p653
sg5
VHow We Fight: Ethics in War
p654
sg7
VJOURNAL OF MORAL PHILOSOPHY
p655
sg9
VCartagena, Nathan L.
p656
sg11
V2017
p657
sg13
VBook Review
p658
sa(dp659
g3
VWOS:000378815700010
p660
sg5
VLying, Misleading, and What is Said: An Exploration in Philosophy of Language and in Ethics
p661
sg7
VJOURNAL OF MORAL PHILOSOPHY
p662
sg9
VMichaelson, Eliot
p663
sg11
V2016
p664
sg13
VBook Review
p665
sa(dp666
g3
VWOS:000376431800006
p667
sg5
VMoral Perception
p668
sg7
VJOURNAL OF MORAL PHILOSOPHY
p669
sg9
VIngram, Stephen
p670
sg11
V2016
p671
sg13
VBook Review
p672
sa(dp673
g3
VWOS:000368153000002
p674
sg5
VThe Justification of Associative Duties
p675
sg7
VJOURNAL OF MORAL PHILOSOPHY
p676
sg9
VLazar, Seth
p677
sg11
V2016
p678
sg13
VArticle
p679
sa(dp680
g3
VWOS:000359477900008
p681
sg5
VRawlsian Political Analysis: Rethinking the Microfoundations of Social Science
p682
sg7
VJOURNAL OF MORAL PHILOSOPHY
p683
sg9
VLindblom, Lars
p684
sg11
V2015
p685
sg13
VBook Review
p686
sa(dp687
g3
VWOS:000352334200001
p688
sg5
VThe Global Poor as Agents of Justice
p689
sg7
VJOURNAL OF MORAL PHILOSOPHY
p690
sg9
VDeveaux, Monique
p691
sg11
V2015
p692
sg13
VArticle
p693
sa(dp694
g3
VWOS:000339468100002
p695
sg5
VTorture - Does Timing Matter?
p696
sg7
VJOURNAL OF MORAL PHILOSOPHY
p697
sg9
VHare, Caspar
p698
sg11
V2014
p699
sg13
VArticle
p700
sa(dp701
g3
VWOS:000319853400002
p702
sg5
VWhat Is Political Philosophy?
p703
sg7
VJOURNAL OF MORAL PHILOSOPHY
p704
sg9
VLarmore, Charles
p705
sg11
V2013
p706
sg13
VArticle
p707
sa(dp708
g3
VWOS:000307243600002
p709
sg5
VPolitical and Naturalistic Conceptions of Human Rights: A False Polemic?
p710
sg7
VJOURNAL OF MORAL PHILOSOPHY
p711
sg9
VLiao, S. Matthew
p712
sg11
V2012
p713
sg13
VArticle
p714
sa(dp715
g3
VWOS:000300545600005
p716
sg5
VScanlon on Permissibility and Double Effect
p717
sg7
VJOURNAL OF MORAL PHILOSOPHY
p718
sg9
VElster, Jakob
p719
sg11
V2012
p720
sg13
VArticle
p721
sa(dp722
g3
VWOS:000297812300009
p723
sg5
VDrawn to the Good? Brewer on Dialectical Activity
p724
sg7
VJOURNAL OF MORAL PHILOSOPHY
p725
sg9
VBesser-Jones, Lorraine
p726
sg11
V2011
p727
sg13
VReview
p728
sa(dp729
g3
VWOS:000296865300011
p730
sg5
VDemocratic Legitimacy
p731
sg7
VJOURNAL OF MORAL PHILOSOPHY
p732
sg9
VSaunders, Ben
p733
sg11
V2011
p734
sg13
VBook Review
p735
sa(dp736
g3
VWOS:000209005400004
p737
sg5
VStandards, Advice, and Practical Reason
p738
sg7
VJOURNAL OF MORAL PHILOSOPHY
p739
sg9
VAndreou, Chrisoula
p740
sg11
V2006
p741
sg13
VArticle
p742
sa(dp743
g3
VWOS:000209005600012
p744
sg5
VMaking Babies: Is There a Right to Have Children?
p745
sg7
VJOURNAL OF MORAL PHILOSOPHY
p746
sg9
VGoering, Sara
p747
sg11
V2006
p748
sg13
VBook Review
p749
sa(dp750
g3
VWOS:000430274300006
p751
sg5
VKant's Theory of Emotion: Emotional Universalism
p752
sg7
VJOURNAL OF MORAL PHILOSOPHY
p753
sg9
VGressis, Robert
p754
sg11
V2018
p755
sg13
VBook Review
p756
sa(dp757
g3
VWOS:000414571300006
p758
sg5
VFamily Values. The Ethics of Parent-Child Relationships
p759
sg7
VJOURNAL OF MORAL PHILOSOPHY
p760
sg9
VZwarthoed, Danielle
p761
sg11
V2017
p762
sg13
VBook Review
p763
sa(dp764
g3
VWOS:000404072400001
p765
sg5
VFair Trade: What Does It Mean and Why Does It Matter?
p766
sg7
VJOURNAL OF MORAL PHILOSOPHY
p767
sg9
VMiller, David
p768
sg11
V2017
p769
sg13
VArticle
p770
sa(dp771
g3
VWOS:000395812200006
p772
sg5
VMoral Realism
p773
sg7
VJOURNAL OF MORAL PHILOSOPHY
p774
sg9
VStrandberg, Caj
p775
sg11
V2017
p776
sg13
VBook Review
p777
sa(dp778
g3
VWOS:000389010400011
p779
sg5
VA Companion to Rawls
p780
sg7
VJOURNAL OF MORAL PHILOSOPHY
p781
sg9
VWong, Baldwin B. W.
p782
sg11
V2016
p783
sg13
VBook Review
p784
sa(dp785
g3
VWOS:000376431800003
p786
sg5
VDrunk and in the Mood: Affect and Judgment
p787
sg7
VJOURNAL OF MORAL PHILOSOPHY
p788
sg9
VMoller, Dan
p789
sg11
V2016
p790
sg13
VArticle
p791
sa(dp792
g3
VWOS:000372353900010
p793
sg5
VHard Feelings: The Moral Psychology of Contempt
p794
sg7
VJOURNAL OF MORAL PHILOSOPHY
p795
sg9
VVanderhoek, Jonathan
p796
sg11
V2016
p797
sg13
VBook Review
p798
sa(dp799
g3
VWOS:000352334200004
p800
sg5
VDisclosure and Consent to Medical Research Participation
p801
sg7
VJOURNAL OF MORAL PHILOSOPHY
p802
sg9
VBromwich, Danielle
p803
sg11
V2015
p804
sg13
VArticle
p805
sa(dp806
g3
VWOS:000348280700008
p807
sg5
VTerrorism, Ticking Time-Bombs and Torture: A Philosophical Analysis
p808
sg7
VJOURNAL OF MORAL PHILOSOPHY
p809
sg9
VMiller, Seumas
p810
sg11
V2015
p811
sg13
VBook Review
p812
sa(dp813
g3
VWOS:000348280700003
p814
sg5
VBetween Domestic and Global Justice
p815
sg7
VJOURNAL OF MORAL PHILOSOPHY
p816
sg9
VNili, Shmuel
p817
sg11
V2015
p818
sg13
VArticle
p819
sa(dp820
g3
VWOS:000339468100003
p821
sg5
VOpportunistic Terrorism
p822
sg7
VJOURNAL OF MORAL PHILOSOPHY
p823
sg9
VUniacke, Suzanne
p824
sg11
V2014
p825
sg13
VArticle
p826
sa(dp827
g3
VWOS:000322682000001
p828
sg5
VSymposium on the Political Philosophy of T. M. Scanlon Introduction
p829
sg7
VJOURNAL OF MORAL PHILOSOPHY
p830
sg9
VO'Neill, Martin
p831
sg11
V2013
p832
sg13
VEditorial Material
p833
sa(dp834
g3
VWOS:000322682000006
p835
sg5
VConstructing a Contractualist Egalitarianism: Equality after Scanlon
p836
sg7
VJOURNAL OF MORAL PHILOSOPHY
p837
sg9
VO'Neill, Martin
p838
sg11
V2013
p839
sg13
VArticle
p840
sa(dp841
g3
VWOS:000307243600008
p842
sg5
VRejecting Rights
p843
sg7
VJOURNAL OF MORAL PHILOSOPHY
p844
sg9
VHessler, Kristen
p845
sg11
V2012
p846
sg13
VBook Review
p847
sa(dp848
g3
VWOS:000303102200002
p849
sg5
VExpressivist Explanations
p850
sg7
VJOURNAL OF MORAL PHILOSOPHY
p851
sg9
VSinclair, Neil
p852
sg11
V2012
p853
sg13
VArticle
p854
sa(dp855
g3
VWOS:000297812300010
p856
sg5
VKierkegaard
p857
sg7
VJOURNAL OF MORAL PHILOSOPHY
p858
sg9
VManis, R. Zachary
p859
sg11
V2011
p860
sg13
VBook Review
p861
sa(dp862
g3
VWOS:000207935400004
p863
sg5
VEgalitarian Justice and Valuational Judgment
p864
sg7
VJOURNAL OF MORAL PHILOSOPHY
p865
sg9
VKnight, Carl
p866
sg11
V2009
p867
sg13
VArticle
p868
sa(dp869
g3
VWOS:000207935400001
p870
sg5
VPersons as Objects of Love
p871
sg7
VJOURNAL OF MORAL PHILOSOPHY
p872
sg9
VLandrum, Ty
p873
sg11
V2009
p874
sg13
VArticle
p875
sa(dp876
g3
VWOS:000447673300003
p877
sg5
VWhat Kind of Perspectivism?
p878
sg7
VJOURNAL OF MORAL PHILOSOPHY
p879
sg9
VKiesewetter, Benjamin
p880
sg11
V2018
p881
sg13
VArticle
p882
sa(dp883
g3
VWOS:000430274300004
p884
sg5
VA Problem for Global Egalitarianism
p885
sg7
VJOURNAL OF MORAL PHILOSOPHY
p886
sg9
VHodgson, Louis-Philippe
p887
sg11
V2018
p888
sg13
VArticle
p889
sa(dp890
g3
VWOS:000417692900004
p891
sg5
VIntellectual Perseverance
p892
sg7
VJOURNAL OF MORAL PHILOSOPHY
p893
sg9
VBattaly, Heather
p894
sg11
V2017
p895
sg13
VArticle
p896
sa(dp897
g3
VWOS:000409208800007
p898
sg5
VEudaimonic Ethics: The Philosophy and Psychology of Living Well
p899
sg7
VJOURNAL OF MORAL PHILOSOPHY
p900
sg9
VSpino, Joseph
p901
sg11
V2017
p902
sg13
VBook Review
p903
sa(dp904
g3
VWOS:000378815700007
p905
sg5
VThe Cambridge Companion to Virtue Ethics
p906
sg7
VJOURNAL OF MORAL PHILOSOPHY
p907
sg9
VBlincoe, Adam
p908
sg11
V2016
p909
sg13
VBook Review
p910
sa(dp911
g3
VWOS:000352334200009
p912
sg5
VPersonhood, Ethics, and Animal Cognition: Situating Animals in Hare's Two-Level Utilitarianism
p913
sg7
VJOURNAL OF MORAL PHILOSOPHY
p914
sg9
VKadlac, Adam
p915
sg11
V2015
p916
sg13
VBook Review
p917
sa(dp918
g3
VWOS:000322682000015
p919
sg5
VCreating Capabilities: The Human Development Approach
p920
sg7
VJOURNAL OF MORAL PHILOSOPHY
p921
sg9
VAhlberg, Jaime
p922
sg11
V2013
p923
sg13
VBook Review
p924
sa(dp925
g3
VWOS:000322682000011
p926
sg5
VHarmful Choices: Scanlon and Voorhoeve on Substantive Responsibility Reply
p927
sg7
VJOURNAL OF MORAL PHILOSOPHY
p928
sg9
VScanlon, T. M.
p929
sg11
V2013
p930
sg13
VEditorial Material
p931
sa(dp932
g3
VWOS:000315127800003
p933
sg5
VAn Internalist Dilemma-and an Externalist Solution
p934
sg7
VJOURNAL OF MORAL PHILOSOPHY
p935
sg9
VStrandberg, Caj
p936
sg11
V2013
p937
sg13
VArticle
p938
sa(dp939
g3
VWOS:000297812300006
p940
sg5
VEgalitarianism Reconsidered
p941
sg7
VJOURNAL OF MORAL PHILOSOPHY
p942
sg9
VHausman, Daniel M.
p943
sg11
V2011
p944
sg13
VArticle
p945
sa(dp946
g3
VWOS:000296865300013
p947
sg5
VMill
p948
sg7
VJOURNAL OF MORAL PHILOSOPHY
p949
sg9
VWest, Henry R.
p950
sg11
V2011
p951
sg13
VBook Review
p952
sa(dp953
g3
VWOS:000207935100003
p954
sg5
VAristotelean Virtue and the Interpersonal Aspect of Ethical Character
p955
sg7
VJOURNAL OF MORAL PHILOSOPHY
p956
sg9
VMerritt, Maria W.
p957
sg11
V2009
p958
sg13
VArticle
p959
sa(dp960
g3
VWOS:000207935400002
p961
sg5
VRenewing Moral Intuitionism
p962
sg7
VJOURNAL OF MORAL PHILOSOPHY
p963
sg9
VTropman, Elizabeth
p964
sg11
V2009
p965
sg13
VArticle
p966
sa(dp967
g3
VWOS:000209005400013
p968
sg5
VAn Introduction to Rights
p969
sg7
VJOURNAL OF MORAL PHILOSOPHY
p970
sg9
VFabre, Cecile
p971
sg11
V2006
p972
sg13
VBook Review
p973
sa(dp974
g3
VWOS:000209005300003
p975
sg5
VPoverty Relief, Global Institutions, and the Problem of Compliance
p976
sg7
VJOURNAL OF MORAL PHILOSOPHY
p977
sg9
VFuller, Lisa L.
p978
sg11
V2005
p979
sg13
VArticle
p980
sa(dp981
g3
VWOS:000209005500010
p982
sg5
VReason and Value: Themes from the Moral Philosophy of Joseph Raz
p983
sg7
VJOURNAL OF MORAL PHILOSOPHY
p984
sg9
VSheinman, Hanoch
p985
sg11
V2006
p986
sg13
VBook Review
p987
sa(dp988
g3
VWOS:000207935300001
p989
sg5
VIntransitive Ethics
p990
sg7
VJOURNAL OF MORAL PHILOSOPHY
p991
sg9
VFriedman, Alex
p992
sg11
V2009
p993
sg13
VArticle
p994
sa(dp995
g3
VWOS:000209005100003
p996
sg5
VThe Integration of Immigrants
p997
sg7
VJOURNAL OF MORAL PHILOSOPHY
p998
sg9
VCarens, Joseph H.
p999
sg11
V2005
p1000
sg13
VArticle
p1001
sa(dp1002
g3
VWOS:000430274300008
p1003
sg5
VTheory vs. Anti-Theory in Ethics: A Misconceived Conflict
p1004
sg7
VJOURNAL OF MORAL PHILOSOPHY
p1005
sg9
VKaspar, David
p1006
sg11
V2018
p1007
sg13
VBook Review
p1008
sa(dp1009
g3
VWOS:000414571300010
p1010
sg5
VPoverty, Agency, and Human Rights
p1011
sg7
VJOURNAL OF MORAL PHILOSOPHY
p1012
sg9
VSpring, Jeffrey
p1013
sg11
V2017
p1014
sg13
VBook Review
p1015
sa(dp1016
g3
VWOS:000395810400007
p1017
sg5
VOxford Studies in Metaethics
p1018
sg7
VJOURNAL OF MORAL PHILOSOPHY
p1019
sg9
VChonabayashi, Ryo
p1020
sg11
V2017
p1021
sg13
VBook Review
p1022
sa(dp1023
g3
VWOS:000389010400005
p1024
sg5
VDependent Children, Gratitude, and Respect
p1025
sg7
VJOURNAL OF MORAL PHILOSOPHY
p1026
sg9
VMullin, Amy
p1027
sg11
V2016
p1028
sg13
VArticle
p1029
sa(dp1030
g3
VWOS:000372353900003
p1031
sg5
VThe Mystery of Moral Perception
p1032
sg7
VJOURNAL OF MORAL PHILOSOPHY
p1033
sg9
VCrow, Daniel
p1034
sg11
V2016
p1035
sg13
VArticle
p1036
sa(dp1037
g3
VWOS:000357027500005
p1038
sg5
VTrade-offs, Transitivity, and Temkin
p1039
sg7
VJOURNAL OF MORAL PHILOSOPHY
p1040
sg9
VDorsey, Dale
p1041
sg11
V2015
p1042
sg13
VReview
p1043
sa(dp1044
g3
VWOS:000348280700006
p1045
sg5
VThe Structures of the Criminal Law
p1046
sg7
VJOURNAL OF MORAL PHILOSOPHY
p1047
sg9
VGreen, Christopher R.
p1048
sg11
V2015
p1049
sg13
VBook Review
p1050
sa(dp1051
g3
VWOS:000339468100005
p1052
sg5
VProportionality and Just Cause A Comment on Kamm
p1053
sg7
VJOURNAL OF MORAL PHILOSOPHY
p1054
sg9
VMcMahan, Jeff
p1055
sg11
V2014
p1056
sg13
VArticle
p1057
sa(dp1058
g3
VWOS:000335937600001
p1059
sg5
VAutonomy and History How a Desire Becomes One's Own
p1060
sg7
VJOURNAL OF MORAL PHILOSOPHY
p1061
sg9
VWeimer, Steven
p1062
sg11
V2014
p1063
sg13
VArticle
p1064
sa(dp1065
g3
VWOS:000331239700007
p1066
sg5
VGlobalizing Justice: The Ethics of Poverty and Power
p1067
sg7
VJOURNAL OF MORAL PHILOSOPHY
p1068
sg9
VBuckley, Michael
p1069
sg11
V2014
p1070
sg13
VBook Review
p1071
sa(dp1072
g3
VWOS:000328877800011
p1073
sg5
VEthics and the Quest for Wisdom
p1074
sg7
VJOURNAL OF MORAL PHILOSOPHY
p1075
sg9
VMoseley, Daniel D.
p1076
sg11
V2013
p1077
sg13
VBook Review
p1078
sa(dp1079
g3
VWOS:000322682000004
p1080
sg5
VScanlon on Social and Material Inequality
p1081
sg7
VJOURNAL OF MORAL PHILOSOPHY
p1082
sg9
VWolff, Jonathan
p1083
sg11
V2013
p1084
sg13
VArticle
p1085
sa(dp1086
g3
VWOS:000319853400009
p1087
sg5
VDarwin, God and the Meaning of Life: How Evolutionary Theory Undermines Everything You Thought You Knew
p1088
sg7
VJOURNAL OF MORAL PHILOSOPHY
p1089
sg9
VWaghorn, Nicholas
p1090
sg11
V2013
p1091
sg13
VBook Review
p1092
sa(dp1093
g3
VWOS:000303102200007
p1094
sg5
VThe Genetic Account of Moral Status: A Defense
p1095
sg7
VJOURNAL OF MORAL PHILOSOPHY
p1096
sg9
VLiao, S. Matthew
p1097
sg11
V2012
p1098
sg13
VEditorial Material
p1099
sa(dp1100
g3
VWOS:000300545600002
p1101
sg5
VEquality, Justice and Legitimacy in Selection
p1102
sg7
VJOURNAL OF MORAL PHILOSOPHY
p1103
sg9
VClayton, Matthew
p1104
sg11
V2012
p1105
sg13
VArticle
p1106
sa(dp1107
g3
VWOS:000207935200005
p1108
sg5
VLocke on Punishment, Property and Moral Knowledge
p1109
sg7
VJOURNAL OF MORAL PHILOSOPHY
p1110
sg9
VWard, Lee
p1111
sg11
V2009
p1112
sg13
VArticle
p1113
sa(dp1114
g3
VWOS:000290934600001
p1115
sg5
VExpressive Exclusion: A Defense
p1116
sg7
VJOURNAL OF MORAL PHILOSOPHY
p1117
sg9
VBedi, Sonu
p1118
sg11
V2010
p1119
sg13
VArticle
p1120
sa(dp1121
g3
VWOS:000290934600003
p1122
sg5
VPunishing the Guilty, Not Punishing the Innocent
p1123
sg7
VJOURNAL OF MORAL PHILOSOPHY
p1124
sg9
VLippke, Richard L.
p1125
sg11
V2010
p1126
sg13
VArticle
p1127
sa(dp1128
g3
VWOS:000209005600009
p1129
sg5
VClassical Utilitarianism from Hume to Mill
p1130
sg7
VJOURNAL OF MORAL PHILOSOPHY
p1131
sg9
VNicholson, Peter
p1132
sg11
V2006
p1133
sg13
VBook Review
p1134
sa(dp1135
g3
VWOS:000209005200002
p1136
sg5
VA Utilitarian Justification of Desert in Distributive Justice
p1137
sg7
VJOURNAL OF MORAL PHILOSOPHY
p1138
sg9
VKristjansson, Kristjan
p1139
sg11
V2005
p1140
sg13
VArticle
p1141
sa(dp1142
g3
VWOS:000424088200009
p1143
sg5
VOxford Studies in Metaethics, vol 9
p1144
sg7
VJOURNAL OF MORAL PHILOSOPHY
p1145
sg9
VFuqua, Jonathan
p1146
sg11
V2018
p1147
sg13
VBook Review
p1148
sa(dp1149
g3
VWOS:000414571300009
p1150
sg5
VSocial Ontology: Collective Intentionality and Group Agents
p1151
sg7
VJOURNAL OF MORAL PHILOSOPHY
p1152
sg9
VHarp, Randall
p1153
sg11
V2017
p1154
sg13
VBook Review
p1155
sa(dp1156
g3
VWOS:000414571300002
p1157
sg5
VFair Play and Wrongful Benefits
p1158
sg7
VJOURNAL OF MORAL PHILOSOPHY
p1159
sg9
VPasternak, Avia
p1160
sg11
V2017
p1161
sg13
VArticle
p1162
sa(dp1163
g3
VWOS:000409208800006
p1164
sg5
VBlame: Its Nature and Norms
p1165
sg7
VJOURNAL OF MORAL PHILOSOPHY
p1166
sg9
VMcKiernan, Amy L.
p1167
sg11
V2017
p1168
sg13
VBook Review
p1169
sa(dp1170
g3
VWOS:000404072400004
p1171
sg5
VResponsibility and the Demands of Morality
p1172
sg7
VJOURNAL OF MORAL PHILOSOPHY
p1173
sg9
VWhite, Stephen J.
p1174
sg11
V2017
p1175
sg13
VArticle
p1176
sa(dp1177
g3
VWOS:000395812200010
p1178
sg5
VCharacter as Moral Fiction
p1179
sg7
VJOURNAL OF MORAL PHILOSOPHY
p1180
sg9
VPettigrove, Glen
p1181
sg11
V2017
p1182
sg13
VBook Review
p1183
sa(dp1184
g3
VWOS:000389010400007
p1185
sg5
VLaw, Virtue, and Justice
p1186
sg7
VJOURNAL OF MORAL PHILOSOPHY
p1187
sg9
VCruze, Jason
p1188
sg11
V2016
p1189
sg13
VBook Review
p1190
sa(dp1191
g3
VWOS:000385476500008
p1192
sg5
VGlobal Ethics: An Introduction
p1193
sg7
VJOURNAL OF MORAL PHILOSOPHY
p1194
sg9
VChatterjee, Deen
p1195
sg11
V2016
p1196
sg13
VBook Review
p1197
sa(dp1198
g3
VWOS:000376431800004
p1199
sg5
VParticularism Doesn't Flatten
p1200
sg7
VJOURNAL OF MORAL PHILOSOPHY
p1201
sg9
VHicks, Amelia
p1202
sg11
V2016
p1203
sg13
VArticle
p1204
sa(dp1205
g3
VWOS:000365066300003
p1206
sg5
VWhom Should We Enhance? The Problem of Altering Potential
p1207
sg7
VJOURNAL OF MORAL PHILOSOPHY
p1208
sg9
VGordon-Solmon, Kerah
p1209
sg11
V2015
p1210
sg13
VArticle
p1211
sa(dp1212
g3
VWOS:000335937600004
p1213
sg5
VThe Personal and the Fitting
p1214
sg7
VJOURNAL OF MORAL PHILOSOPHY
p1215
sg9
VOlson, Jonas
p1216
sg11
V2014
p1217
sg13
VReview
p1218
sa(dp1219
g3
VWOS:000334142500012
p1220
sg5
VDrawing Morals: Essays in Ethical Theory
p1221
sg7
VJOURNAL OF MORAL PHILOSOPHY
p1222
sg9
VByron, Michael
p1223
sg11
V2014
p1224
sg13
VBook Review
p1225
sa(dp1226
g3
VWOS:000319853400008
p1227
sg5
VKant's Metaphysics of Morals: A Critical Guide
p1228
sg7
VJOURNAL OF MORAL PHILOSOPHY
p1229
sg9
VHoskins, Zachary
p1230
sg11
V2013
p1231
sg13
VBook Review
p1232
sa(dp1233
g3
VWOS:000315127800011
p1234
sg5
VWar and Moral Dissonance
p1235
sg7
VJOURNAL OF MORAL PHILOSOPHY
p1236
sg9
VBazargan, Saba
p1237
sg11
V2013
p1238
sg13
VBook Review
p1239
sa(dp1240
g3
VWOS:000296865300001
p1241
sg5
VGlobal Taxes on Natural Resources
p1242
sg7
VJOURNAL OF MORAL PHILOSOPHY
p1243
sg9
VCasal, Paula
p1244
sg11
V2011
p1245
sg13
VArticle
p1246
sa(dp1247
g3
VWOS:000290935200008
p1248
sg5
VRousseau's Theodicy of Self-Love: Evil, Rationality, and the Drive for Recognition
p1249
sg7
VJOURNAL OF MORAL PHILOSOPHY
p1250
sg9
VBird-Pollan, Stefan
p1251
sg11
V2011
p1252
sg13
VBook Review
p1253
sa(dp1254
g3
VWOS:000290935200010
p1255
sg5
VAristotle's Dialogue with Socrates: On the Nicomachean Ethics
p1256
sg7
VJOURNAL OF MORAL PHILOSOPHY
p1257
sg9
VMcNeill, David
p1258
sg11
V2011
p1259
sg13
VBook Review
p1260
sa(dp1261
g3
VWOS:000290934300005
p1262
sg5
VCognitive Biases and Moral Luck
p1263
sg7
VJOURNAL OF MORAL PHILOSOPHY
p1264
sg9
VEnoch, David
p1265
sg11
V2010
p1266
sg13
VArticle
p1267
sa(dp1268
g3
VWOS:000290935100007
p1269
sg5
VUnwitting Behavior and Responsibility
p1270
sg7
VJOURNAL OF MORAL PHILOSOPHY
p1271
sg9
VTalbert, Matthew
p1272
sg11
V2011
p1273
sg13
VReview
p1274
sa(dp1275
g3
VWOS:000209005200008
p1276
sg5
VFacts, Values, and Norms: Essays toward a Morality of Consequence
p1277
sg7
VJOURNAL OF MORAL PHILOSOPHY
p1278
sg9
VBrown, Stephen R.
p1279
sg11
V2005
p1280
sg13
VBook Review
p1281
sa(dp1282
g3
VWOS:000209005300005
p1283
sg5
VThomas Pogge's Global Resources Dividend: A Critique and an Alternative
p1284
sg7
VJOURNAL OF MORAL PHILOSOPHY
p1285
sg9
VHayward, Tim
p1286
sg11
V2005
p1287
sg13
VArticle
p1288
sa(dp1289
g3
VWOS:000417692900009
p1290
sg5
VCharacter and Moral Psychology
p1291
sg7
VJOURNAL OF MORAL PHILOSOPHY
p1292
sg9
VHarcourt, Edward
p1293
sg11
V2017
p1294
sg13
VBook Review
p1295
sa(dp1296
g3
VWOS:000417692900007
p1297
sg5
VThe Limits of Moral Obligation: Moral Demandingness and Ought Implies Can
p1298
sg7
VJOURNAL OF MORAL PHILOSOPHY
p1299
sg9
VArcher, Alfred
p1300
sg11
V2017
p1301
sg13
VBook Review
p1302
sa(dp1303
g3
VWOS:000385476500004
p1304
sg5
VNatural and Social Inequality Disability and Fair Equality of Opportunity
p1305
sg7
VJOURNAL OF MORAL PHILOSOPHY
p1306
sg9
VAas, Sean
p1307
sg11
V2016
p1308
sg13
VArticle
p1309
sa(dp1310
g3
VWOS:000378815700006
p1311
sg5
VThe Problem of Political Authority: An Examination of the Right to Coerce and the Duty to Obey
p1312
sg7
VJOURNAL OF MORAL PHILOSOPHY
p1313
sg9
VKing, Chris
p1314
sg11
V2016
p1315
sg13
VBook Review
p1316
sa(dp1317
g3
VWOS:000372353900005
p1318
sg5
VCan Minimal Autonomy Legitimate Coercive Institutions?
p1319
sg7
VJOURNAL OF MORAL PHILOSOPHY
p1320
sg9
VDietsch, Peter
p1321
sg11
V2016
p1322
sg13
VReview
p1323
sa(dp1324
g3
VWOS:000365066300010
p1325
sg5
VForgiveness and Retribution: Responding to Wrongdoing
p1326
sg7
VJOURNAL OF MORAL PHILOSOPHY
p1327
sg9
VTirrell, Lynne
p1328
sg11
V2015
p1329
sg13
VBook Review
p1330
sa(dp1331
g3
VWOS:000352334200005
p1332
sg5
VDefending Shame
p1333
sg7
VJOURNAL OF MORAL PHILOSOPHY
p1334
sg9
VFitzGerald, Chloe
p1335
sg11
V2015
p1336
sg13
VReview
p1337
sa(dp1338
g3
VWOS:000209005300011
p1339
sg5
VThe Dark Sides of Virtue: Reassessing International Humanitarianism
p1340
sg7
VJOURNAL OF MORAL PHILOSOPHY
p1341
sg9
VHellsten, Sirkku
p1342
sg11
V2005
p1343
sg13
VBook Review
p1344
sa(dp1345
g3
VWOS:000334142500003
p1346
sg5
VKant's Formula of the Universal Law of Nature Reconsidered A Critique of the Practical Interpretation
p1347
sg7
VJOURNAL OF MORAL PHILOSOPHY
p1348
sg9
VRivera-Castro, Faviola
p1349
sg11
V2014
p1350
sg13
VArticle
p1351
sa(dp1352
g3
VWOS:000319853400006
p1353
sg5
VThe Deliberative Impulse: Motivating Discourse in Divided Societies
p1354
sg7
VJOURNAL OF MORAL PHILOSOPHY
p1355
sg9
VRondel, David
p1356
sg11
V2013
p1357
sg13
VBook Review
p1358
sa(dp1359
g3
VWOS:000307243600004
p1360
sg5
VMoral Entanglements: Ad Hoc Intimacies and Ancillary Duties of Care
p1361
sg7
VJOURNAL OF MORAL PHILOSOPHY
p1362
sg9
VRichardson, Henry S.
p1363
sg11
V2012
p1364
sg13
VArticle
p1365
sa(dp1366
g3
VWOS:000300545600008
p1367
sg5
VLuck Egalitarianism: Equality, Responsibility and Justice
p1368
sg7
VJOURNAL OF MORAL PHILOSOPHY
p1369
sg9
VLister, Matthew
p1370
sg11
V2012
p1371
sg13
VBook Review
p1372
sa(dp1373
g3
VWOS:000296865300004
p1374
sg5
VRejoinder to Pogge and Steiner
p1375
sg7
VJOURNAL OF MORAL PHILOSOPHY
p1376
sg9
VCasal, Paula
p1377
sg11
V2011
p1378
sg13
VArticle
p1379
sa(dp1380
g3
VWOS:000290935200005
p1381
sg5
VEmotion, Value, and the Ambiguous Honor of a Handbook
p1382
sg7
VJOURNAL OF MORAL PHILOSOPHY
p1383
sg9
VDebes, Remy
p1384
sg11
V2011
p1385
sg13
VReview
p1386
sa(dp1387
g3
VWOS:000290913600003
p1388
sg5
VDoes Humanity Share a Common Moral Faculty?
p1389
sg7
VJOURNAL OF MORAL PHILOSOPHY
p1390
sg9
VSmith, M. B. E.
p1391
sg11
V2010
p1392
sg13
VArticle
p1393
sa(dp1394
g3
VWOS:000207935300004
p1395
sg5
VFitting Attitudes, Wrong Kinds of Reasons, and Mind-Independent Goodness
p1396
sg7
VJOURNAL OF MORAL PHILOSOPHY
p1397
sg9
VWhite, Heath
p1398
sg11
V2009
p1399
sg13
VArticle
p1400
sa(dp1401
g3
VWOS:000290935100001
p1402
sg5
VUntitled
p1403
sg7
VJOURNAL OF MORAL PHILOSOPHY
p1404
sg9
VBrooks, Thom
p1405
sg11
V2011
p1406
sg13
VEditorial Material
p1407
sa(dp1408
g3
VWOS:000209005600008
p1409
sg5
VThinking How to Live
p1410
sg7
VJOURNAL OF MORAL PHILOSOPHY
p1411
sg9
VLenman, James
p1412
sg11
V2006
p1413
sg13
VBook Review
p1414
sa(dp1415
g3
VWOS:000209005200011
p1416
sg5
VJustice, Legitimacy and Self-Determination: Moral Foundations for International Law
p1417
sg7
VJOURNAL OF MORAL PHILOSOPHY
p1418
sg9
VKelly, Duncan
p1419
sg11
V2005
p1420
sg13
VBook Review
p1421
sa(dp1422
g3
VWOS:000209005200001
p1423
sg5
VSelf-defence among Innocent People
p1424
sg7
VJOURNAL OF MORAL PHILOSOPHY
p1425
sg9
VOverland, Gerhard
p1426
sg11
V2005
p1427
sg13
VArticle
p1428
sa(dp1429
g3
VWOS:000447673800003
p1430
sg5
VNarrative and Meaning in Life
p1431
sg7
VJOURNAL OF MORAL PHILOSOPHY
p1432
sg9
Vde Bres, Helena
p1433
sg11
V2018
p1434
sg13
VArticle
p1435
sa(dp1436
g3
VWOS:000447673800008
p1437
sg5
VOxford Studies in Agency and Responsibility, vol 3
p1438
sg7
VJOURNAL OF MORAL PHILOSOPHY
p1439
sg9
VMurray, Samuel
p1440
sg11
V2018
p1441
sg13
VBook Review
p1442
sa(dp1443
g3
VWOS:000395812200004
p1444
sg5
VSome Varieties of Humility Worth Wanting
p1445
sg7
VJOURNAL OF MORAL PHILOSOPHY
p1446
sg9
VNadelhoffer, Thomas
p1447
sg11
V2017
p1448
sg13
VArticle
p1449
sa(dp1450
g3
VWOS:000368153000007
p1451
sg5
VContractualism and the Foundations of Morality
p1452
sg7
VJOURNAL OF MORAL PHILOSOPHY
p1453
sg9
VWestphal, Kenneth R.
p1454
sg11
V2016
p1455
sg13
VBook Review
p1456
sa(dp1457
g3
VWOS:000365066300009
p1458
sg5
VThe Ethics of Need: Agency, Dignity, and Obligation
p1459
sg7
VJOURNAL OF MORAL PHILOSOPHY
p1460
sg9
VDillon, Robin S.
p1461
sg11
V2015
p1462
sg13
VBook Review
p1463
sa(dp1464
g3
VWOS:000359477900010
p1465
sg5
VShaping the Normative Landscape
p1466
sg7
VJOURNAL OF MORAL PHILOSOPHY
p1467
sg9
VHealey, Richard
p1468
sg11
V2015
p1469
sg13
VBook Review
p1470
sa(dp1471
g3
VWOS:000352334200007
p1472
sg5
VThe Emotions: A Philosophical Introduction
p1473
sg7
VJOURNAL OF MORAL PHILOSOPHY
p1474
sg9
VPelser, Adam C.
p1475
sg11
V2015
p1476
sg13
VBook Review
p1477
sa(dp1478
g3
VWOS:000334142500010
p1479
sg5
VPhilosophical Interventions: Reviews 1986-2011
p1480
sg7
VJOURNAL OF MORAL PHILOSOPHY
p1481
sg9
Vde Bres, Helena
p1482
sg11
V2014
p1483
sg13
VBook Review
p1484
sa(dp1485
g3
VWOS:000334142500002
p1486
sg5
VAgents, Patients, and Obligatory Self-Benefit
p1487
sg7
VJOURNAL OF MORAL PHILOSOPHY
p1488
sg9
VCholbi, Michael
p1489
sg11
V2014
p1490
sg13
VArticle
p1491
sa(dp1492
g3
VWOS:000297812300011
p1493
sg5
VVirtue as Social Intelligence: An Empirically Grounded Theory
p1494
sg7
VJOURNAL OF MORAL PHILOSOPHY
p1495
sg9
VLlobera, Ignasi
p1496
sg11
V2011
p1497
sg13
VBook Review
p1498
sa(dp1499
g3
VWOS:000207935200004
p1500
sg5
VHarm, Rights, and Liberty: Towards a Non-Normative Reading of Mill's Liberty Principle
p1501
sg7
VJOURNAL OF MORAL PHILOSOPHY
p1502
sg9
VMulnix, M. J.
p1503
sg11
V2009
p1504
sg13
VArticle
p1505
sa(dp1506
g3
VWOS:000290934300004
p1507
sg5
VMotivating Cosmopolitanism? A Skeptical View
p1508
sg7
VJOURNAL OF MORAL PHILOSOPHY
p1509
sg9
VLenard, Patti Tamara
p1510
sg11
V2010
p1511
sg13
VArticle
p1512
sa(dp1513
g3
VWOS:000290914100008
p1514
sg5
VJustice and Legitimacy in Upbringing
p1515
sg7
VJOURNAL OF MORAL PHILOSOPHY
p1516
sg9
VColburn, Ben
p1517
sg11
V2010
p1518
sg13
VBook Review
p1519
sa(dp1520
g3
VWOS:000290914100005
p1521
sg5
VMoral Rationalism and the Normative Status of Desiderative Coherence
p1522
sg7
VJOURNAL OF MORAL PHILOSOPHY
p1523
sg9
VMarino, Patricia
p1524
sg11
V2010
p1525
sg13
VArticle
p1526
sa(dp1527
g3
VWOS:000207935300002
p1528
sg5
VPartiality and Weighing Harm to Non-Combatants
p1529
sg7
VJOURNAL OF MORAL PHILOSOPHY
p1530
sg9
VLefkowitz, David
p1531
sg11
V2009
p1532
sg13
VArticle
p1533
sa(dp1534
g3
VWOS:000290935100009
p1535
sg5
VThe Ethics of Emmanuel Levinas
p1536
sg7
VJOURNAL OF MORAL PHILOSOPHY
p1537
sg9
VCosgrave, Bernard
p1538
sg11
V2011
p1539
sg13
VBook Review
p1540
sa(dp1541
g3
VWOS:000290934600008
p1542
sg5
VEthics and Qualities of Life
p1543
sg7
VJOURNAL OF MORAL PHILOSOPHY
p1544
sg9
VChao, Roger
p1545
sg11
V2010
p1546
sg13
VBook Review
p1547
sa(dp1548
g3
VWOS:000209005400017
p1549
sg5
VEthics Without Principles
p1550
sg7
VJOURNAL OF MORAL PHILOSOPHY
p1551
sg9
VCelikates, Robin
p1552
sg11
V2006
p1553
sg13
VBook Review
p1554
sa(dp1555
g3
VWOS:000209005500003
p1556
sg5
VVirtue Epistemology and Moral Luck
p1557
sg7
VJOURNAL OF MORAL PHILOSOPHY
p1558
sg9
VSilcox, Mark
p1559
sg11
V2006
p1560
sg13
VArticle
p1561
sa(dp1562
g3
VWOS:000447673800005
p1563
sg5
VWell-Being: Happiness in a Worthwhile Life
p1564
sg7
VJOURNAL OF MORAL PHILOSOPHY
p1565
sg9
VKim, Richard
p1566
sg11
V2018
p1567
sg13
VBook Review
p1568
sa(dp1569
g3
VWOS:000430274300003
p1570
sg5
VMoral Perception without (Prior) Moral Knowledge
p1571
sg7
VJOURNAL OF MORAL PHILOSOPHY
p1572
sg9
VWerner, Preston J.
p1573
sg11
V2018
p1574
sg13
VArticle
p1575
sa(dp1576
g3
VWOS:000424088200006
p1577
sg5
VOmissions: Agency, Metaphysics and Responsibility
p1578
sg7
VJOURNAL OF MORAL PHILOSOPHY
p1579
sg9
VGoldschmidt, Tyron
p1580
sg11
V2018
p1581
sg13
VBook Review
p1582
sa(dp1583
g3
VWOS:000417692900008
p1584
sg5
VThe Heart of Human Rights
p1585
sg7
VJOURNAL OF MORAL PHILOSOPHY
p1586
sg9
VSzende, Jennifer
p1587
sg11
V2017
p1588
sg13
VBook Review
p1589
sa(dp1590
g3
VWOS:000395812200001
p1591
sg5
VSelf-Defence Against Multiple Threats
p1592
sg7
VJOURNAL OF MORAL PHILOSOPHY
p1593
sg9
VGordon-Solmon, Kerah
p1594
sg11
V2017
p1595
sg13
VArticle
p1596
sa(dp1597
g3
VWOS:000395810400005
p1598
sg5
VThickness and Evaluation
p1599
sg7
VJOURNAL OF MORAL PHILOSOPHY
p1600
sg9
VEklund, Matti
p1601
sg11
V2017
p1602
sg13
VReview
p1603
sa(dp1604
g3
VWOS:000395810400001
p1605
sg5
VAgency and Moral Status
p1606
sg7
VJOURNAL OF MORAL PHILOSOPHY
p1607
sg9
VSebo, Jeff
p1608
sg11
V2017
p1609
sg13
VArticle
p1610
sa(dp1611
g3
VWOS:000372353900002
p1612
sg5
VHow Association Matters for Distributive Justice
p1613
sg7
VJOURNAL OF MORAL PHILOSOPHY
p1614
sg9
Vde Bres, Helena
p1615
sg11
V2016
p1616
sg13
VArticle
p1617
sa(dp1618
g3
VWOS:000361467400007
p1619
sg5
VContemporary Confucian Political Philosophy: Toward Progressive Confucianism
p1620
sg7
VJOURNAL OF MORAL PHILOSOPHY
p1621
sg9
VJenco, Leigh
p1622
sg11
V2015
p1623
sg13
VBook Review
p1624
sa(dp1625
g3
VWOS:000359477900012
p1626
sg5
VReason, Tradition, and the Good: MacIntyre's Tradition-Constituted Reason and Frankfurt-School Critical Theory
p1627
sg7
VJOURNAL OF MORAL PHILOSOPHY
p1628
sg9
VDavenport, John J.
p1629
sg11
V2015
p1630
sg13
VBook Review
p1631
sa(dp1632
g3
VWOS:000345494500006
p1633
sg5
VFree Market Fairness
p1634
sg7
VJOURNAL OF MORAL PHILOSOPHY
p1635
sg9
VHankins, Keith
p1636
sg11
V2014
p1637
sg13
VBook Review
p1638
sa(dp1639
g3
VWOS:000342601900002
p1640
sg5
VConscious Propositional Attitudes and Moral Responsibility
p1641
sg7
VJOURNAL OF MORAL PHILOSOPHY
p1642
sg9
VPeters, Uwe
p1643
sg11
V2014
p1644
sg13
VArticle
p1645
sa(dp1646
g3
VWOS:000339468100008
p1647
sg5
VGod and Moral Law
p1648
sg7
VJOURNAL OF MORAL PHILOSOPHY
p1649
sg9
VJordan, Matthew Carey
p1650
sg11
V2014
p1651
sg13
VBook Review
p1652
sa(dp1653
g3
VWOS:000335937600009
p1654
sg5
VPluralism and Liberal Politics
p1655
sg7
VJOURNAL OF MORAL PHILOSOPHY
p1656
sg9
VSmith, Andrew F.
p1657
sg11
V2014
p1658
sg13
VBook Review
p1659
sa(dp1660
g3
VWOS:000328877800003
p1661
sg5
VOn the Possibility of Corporate Apologies
p1662
sg7
VJOURNAL OF MORAL PHILOSOPHY
p1663
sg9
VCohen, Andrew I.
p1664
sg11
V2013
p1665
sg13
VArticle
p1666
sa(dp1667
g3
VWOS:000322682000010
p1668
sg5
VHarmful Choices: Scanlon and Voorhoeve on Substantive Responsibility
p1669
sg7
VJOURNAL OF MORAL PHILOSOPHY
p1670
sg9
VStemplowska, Zofia
p1671
sg11
V2013
p1672
sg13
VArticle
p1673
sa(dp1674
g3
VWOS:000315127800006
p1675
sg5
VSubordination and Objectification
p1676
sg7
VJOURNAL OF MORAL PHILOSOPHY
p1677
sg9
VMaitra, Ishani
p1678
sg11
V2013
p1679
sg13
VReview
p1680
sa(dp1681
g3
VWOS:000296865300012
p1682
sg5
VMorality Without God?
p1683
sg7
VJOURNAL OF MORAL PHILOSOPHY
p1684
sg9
VHare, John
p1685
sg11
V2011
p1686
sg13
VBook Review
p1687
sa(dp1688
g3
VWOS:000207935200009
p1689
sg5
VWittgenstein and Ethical Inquiry: A Defence of Ethics as Clarification
p1690
sg7
VJOURNAL OF MORAL PHILOSOPHY
p1691
sg9
VRaatzsch, Richard
p1692
sg11
V2009
p1693
sg13
VBook Review
p1694
sa(dp1695
g3
VWOS:000290914100007
p1696
sg5
VHegel and the Philosophy of Food
p1697
sg7
VJOURNAL OF MORAL PHILOSOPHY
p1698
sg9
VMartin, Wayne
p1699
sg11
V2010
p1700
sg13
VArticle
p1701
sa(dp1702
g3
VWOS:000209005500009
p1703
sg5
VEssays on Kant's Anthropology
p1704
sg7
VJOURNAL OF MORAL PHILOSOPHY
p1705
sg9
VGarcia, Ernesto V.
p1706
sg11
V2006
p1707
sg13
VBook Review
p1708
sa(dp1709
g3
VWOS:000447673800007
p1710
sg5
VPassions and Projections: Themes from the Philosophy of Simon Blackburn
p1711
sg7
VJOURNAL OF MORAL PHILOSOPHY
p1712
sg9
VGolub, Camil
p1713
sg11
V2018
p1714
sg13
VBook Review
p1715
sa(dp1716
g3
VWOS:000435862700005
p1717
sg5
VConsensus, Convergence, Restraint, and Religion
p1718
sg7
VJOURNAL OF MORAL PHILOSOPHY
p1719
sg9
VBillingham, Paul
p1720
sg11
V2018
p1721
sg13
VArticle
p1722
sa(dp1723
g3
VWOS:000424088200005
p1724
sg5
VSelf-Knowledge and Its Limits
p1725
sg7
VJOURNAL OF MORAL PHILOSOPHY
p1726
sg9
VSchwenkler, John
p1727
sg11
V2018
p1728
sg13
VReview
p1729
sa(dp1730
g3
VWOS:000378815700001
p1731
sg5
VPrecis of Moral Error Theory: History, Critique, Defence
p1732
sg7
VJOURNAL OF MORAL PHILOSOPHY
p1733
sg9
VOlson, Jonas
p1734
sg11
V2016
p1735
sg13
VArticle
p1736
sa(dp1737
g3
VWOS:000376431800009
p1738
sg5
VAnarchy and Legal Order: Law and Politics for a Stateless Society
p1739
sg7
VJOURNAL OF MORAL PHILOSOPHY
p1740
sg9
VMcLaughlin, Paul
p1741
sg11
V2016
p1742
sg13
VBook Review
p1743
sa(dp1744
g3
VWOS:000361467400001
p1745
sg5
VKorsgaard v. Gewirth on Universalization: Why Gewirthians are Kantians and Kantians Ought to be Gewirthians
p1746
sg7
VJOURNAL OF MORAL PHILOSOPHY
p1747
sg9
VBeyleveld, Deryck
p1748
sg11
V2015
p1749
sg13
VArticle
p1750
sa(dp1751
g3
VWOS:000209005300008
p1752
sg5
VThe Ethics of Assistance: Morality and the Distant Needy
p1753
sg7
VJOURNAL OF MORAL PHILOSOPHY
p1754
sg9
VHellsten, Sirkku
p1755
sg11
V2005
p1756
sg13
VBook Review
p1757
sa(dp1758
g3
VWOS:000339468100010
p1759
sg5
VThe Impossibility of Perfection: Aristotle, Feminism, and the Complexities of Ethics
p1760
sg7
VJOURNAL OF MORAL PHILOSOPHY
p1761
sg9
VWilson, Alan T.
p1762
sg11
V2014
p1763
sg13
VBook Review
p1764
sa(dp1765
g3
VWOS:000331239700009
p1766
sg5
VOxford Studies in Metaethics
p1767
sg7
VJOURNAL OF MORAL PHILOSOPHY
p1768
sg9
VShpall, Sam
p1769
sg11
V2014
p1770
sg13
VBook Review
p1771
sa(dp1772
g3
VWOS:000322682000021
p1773
sg5
VBeyond Consequentialism
p1774
sg7
VJOURNAL OF MORAL PHILOSOPHY
p1775
sg9
VDriver, Julia
p1776
sg11
V2013
p1777
sg13
VBook Review
p1778
sa(dp1779
g3
VWOS:000322682000012
p1780
sg5
VThe Unromantic Rousseauian: Scanlon on Justice, Value Coherence and Freedom
p1781
sg7
VJOURNAL OF MORAL PHILOSOPHY
p1782
sg9
VHussain, Waheed
p1783
sg11
V2013
p1784
sg13
VArticle
p1785
sa(dp1786
g3
VWOS:000322682000002
p1787
sg5
VRights and What We Owe to Each Other
p1788
sg7
VJOURNAL OF MORAL PHILOSOPHY
p1789
sg9
VWenar, Leif
p1790
sg11
V2013
p1791
sg13
VArticle
p1792
sa(dp1793
g3
VWOS:000319853400004
p1794
sg5
VA Difficulty Concerning Compensation
p1795
sg7
VJOURNAL OF MORAL PHILOSOPHY
p1796
sg9
VSmilansky, Saul
p1797
sg11
V2013
p1798
sg13
VArticle
p1799
sa(dp1800
g3
VWOS:000316921800003
p1801
sg5
VIntentional Side-Effects of Action
p1802
sg7
VJOURNAL OF MORAL PHILOSOPHY
p1803
sg9
VScaife, Robin
p1804
sg11
V2013
p1805
sg13
VArticle
p1806
sa(dp1807
g3
VWOS:000303102200012
p1808
sg5
VHow We Get Along
p1809
sg7
VJOURNAL OF MORAL PHILOSOPHY
p1810
sg9
VGaitan, Antonio
p1811
sg11
V2012
p1812
sg13
VBook Review
p1813
sa(dp1814
g3
VWOS:000303102200005
p1815
sg5
VGroup Rights and Group Agency
p1816
sg7
VJOURNAL OF MORAL PHILOSOPHY
p1817
sg9
VPreda, Adina
p1818
sg11
V2012
p1819
sg13
VArticle
p1820
sa(dp1821
g3
VWOS:000297812300008
p1822
sg5
VIs Forgiveness the Deliberate Refusal to Punish?
p1823
sg7
VJOURNAL OF MORAL PHILOSOPHY
p1824
sg9
VWarmke, Brandon
p1825
sg11
V2011
p1826
sg13
VEditorial Material
p1827
sa(dp1828
g3
VWOS:000290913600009
p1829
sg5
VDisadvantage
p1830
sg7
VJOURNAL OF MORAL PHILOSOPHY
p1831
sg9
VGheaus, Anca
p1832
sg11
V2010
p1833
sg13
VBook Review
p1834
sa(dp1835
g3
VWOS:000207935400007
p1836
sg5
VThe Founding Act of Modern Ethical Life: Hegel's Critique of Kant's Moral and Political Philosophy
p1837
sg7
VJOURNAL OF MORAL PHILOSOPHY
p1838
sg9
VBird-Pollan, Stefan
p1839
sg11
V2009
p1840
sg13
VBook Review
p1841
sa(dp1842
g3
VWOS:000207935300003
p1843
sg5
VLuck Egalitarianism, Permissible Inequalities, and Moral Hazard
p1844
sg7
VJOURNAL OF MORAL PHILOSOPHY
p1845
sg9
VLang, Gerald
p1846
sg11
V2009
p1847
sg13
VArticle
p1848
sa(dp1849
g3
VWOS:000209005400018
p1850
sg5
VFoucault and the Art of Ethics
p1851
sg7
VJOURNAL OF MORAL PHILOSOPHY
p1852
sg9
VHofmeyr, Benda
p1853
sg11
V2006
p1854
sg13
VBook Review
p1855
sa(dp1856
g3
VWOS:000447673300010
p1857
sg5
VMeans, Ends, and Persons: The Meaning & Psychological Dimensions of Kant's Humanity Formula
p1858
sg7
VJOURNAL OF MORAL PHILOSOPHY
p1859
sg9
VCastro, Susan V. H.
p1860
sg11
V2018
p1861
sg13
VBook Review
p1862
sa(dp1863
g3
VWOS:000447673800011
p1864
sg5
VWhat Can Philosophy Contribute to Ethics?
p1865
sg7
VJOURNAL OF MORAL PHILOSOPHY
p1866
sg9
VArvan, Marcus
p1867
sg11
V2018
p1868
sg13
VBook Review
p1869
sa(dp1870
g3
VWOS:000435862700001
p1871
sg5
VMoral Testimony and Moral Understanding
p1872
sg7
VJOURNAL OF MORAL PHILOSOPHY
p1873
sg9
VMcShane, Paddy Jane
p1874
sg11
V2018
p1875
sg13
VArticle
p1876
sa(dp1877
g3
VWOS:000430274300012
p1878
sg5
VEquality and Opportunity
p1879
sg7
VJOURNAL OF MORAL PHILOSOPHY
p1880
sg9
VPreda, Adina
p1881
sg11
V2018
p1882
sg13
VBook Review
p1883
sa(dp1884
g3
VWOS:000430274300009
p1885
sg5
VAdvances in Experimental Moral Psychology
p1886
sg7
VJOURNAL OF MORAL PHILOSOPHY
p1887
sg9
VMorris, Stephen G.
p1888
sg11
V2018
p1889
sg13
VBook Review
p1890
sa(dp1891
g3
VWOS:000424088200007
p1892
sg5
VThe Minority Body: A Theory of Disability
p1893
sg7
VJOURNAL OF MORAL PHILOSOPHY
p1894
sg9
VBegon, Jessica
p1895
sg11
V2018
p1896
sg13
VBook Review
p1897
sa(dp1898
g3
VWOS:000417692900011
p1899
sg5
VAllowing for Exceptions: A Theory of Defences and Defeasibility in Law
p1900
sg7
VJOURNAL OF MORAL PHILOSOPHY
p1901
sg9
VRigoni, Adam
p1902
sg11
V2017
p1903
sg13
VBook Review
p1904
sa(dp1905
g3
VWOS:000417692900002
p1906
sg5
VEmotions, Character, and Associationist Psychology
p1907
sg7
VJOURNAL OF MORAL PHILOSOPHY
p1908
sg9
VRoberts, Robert C.
p1909
sg11
V2017
p1910
sg13
VArticle
p1911
sa(dp1912
g3
VWOS:000389010400001
p1913
sg5
VNew Developments in Family Ethics: An Introduction
p1914
sg7
VJOURNAL OF MORAL PHILOSOPHY
p1915
sg9
VBetzler, Monika
p1916
sg11
V2016
p1917
sg13
VArticle
p1918
sa(dp1919
g3
VWOS:000385476500005
p1920
sg5
VReasoning: A Social Picture
p1921
sg7
VJOURNAL OF MORAL PHILOSOPHY
p1922
sg9
VBagnoli, Carla
p1923
sg11
V2016
p1924
sg13
VBook Review
p1925
sa(dp1926
g3
VWOS:000385476500006
p1927
sg5
VThe Moral Foundation of Economic Behavior
p1928
sg7
VJOURNAL OF MORAL PHILOSOPHY
p1929
sg9
VHinchman, Edward S.
p1930
sg11
V2016
p1931
sg13
VBook Review
p1932
sa(dp1933
g3
VWOS:000385476500012
p1934
sg5
VMoral Character: An Empirical Theory
p1935
sg7
VJOURNAL OF MORAL PHILOSOPHY
p1936
sg9
VBesser, Lorraine L.
p1937
sg11
V2016
p1938
sg13
VBook Review
p1939
sa(dp1940
g3
VWOS:000368153000004
p1941
sg5
V'Recover it From the Facts as We Know Them' Practice-dependence's Predecessors
p1942
sg7
VJOURNAL OF MORAL PHILOSOPHY
p1943
sg9
VJubb, Robert
p1944
sg11
V2016
p1945
sg13
VArticle
p1946
sa(dp1947
g3
VWOS:000348280700002
p1948
sg5
VDisgust, Moral Disgust, and Morality
p1949
sg7
VJOURNAL OF MORAL PHILOSOPHY
p1950
sg9
VGert, Joshua
p1951
sg11
V2015
p1952
sg13
VArticle
p1953
sa(dp1954
g3
VWOS:000303102200013
p1955
sg5
VReasons and Intentions
p1956
sg7
VJOURNAL OF MORAL PHILOSOPHY
p1957
sg9
VBuckareff, Andrei A.
p1958
sg11
V2012
p1959
sg13
VBook Review
p1960
sa(dp1961
g3
VWOS:000290935200009
p1962
sg5
VAssisted Suicide and Euthanasia: A Natural Law Ethics Approach
p1963
sg7
VJOURNAL OF MORAL PHILOSOPHY
p1964
sg9
VRamis-Barcelo, Rafael
p1965
sg11
V2011
p1966
sg13
VBook Review
p1967
sa(dp1968
g3
VWOS:000290934300001
p1969
sg5
VDoes Value Pluralism Entail Liberalism?
p1970
sg7
VJOURNAL OF MORAL PHILOSOPHY
p1971
sg9
VTalisse, Robert B.
p1972
sg11
V2010
p1973
sg13
VArticle
p1974
sa(dp1975
g3
VWOS:000290914100006
p1976
sg5
VDefining Terrorism for Public Policy Purposes: The Group-Target Definition
p1977
sg7
VJOURNAL OF MORAL PHILOSOPHY
p1978
sg9
VReitan, Eric
p1979
sg11
V2010
p1980
sg13
VArticle
p1981
sa(dp1982
g3
VWOS:000290935100008
p1983
sg5
VMulticultural Odysseys: Navigating the New International Politics of Diversity
p1984
sg7
VJOURNAL OF MORAL PHILOSOPHY
p1985
sg9
VCrites, Joshua S.
p1986
sg11
V2011
p1987
sg13
VBook Review
p1988
sa(dp1989
g3
VWOS:000209005400001
p1990
sg5
VThe Evolution of Rawls's Justification of Political Compliance: Part 1 of The Problem of Political Compliance in Rawls's Theories of Justice
p1991
sg7
VJOURNAL OF MORAL PHILOSOPHY
p1992
sg9
VCarter, Alan
p1993
sg11
V2006
p1994
sg13
VArticle
p1995
sa(dp1996
g3
VWOS:000209005600002
p1997
sg5
VImprisonable Offenses
p1998
sg7
VJOURNAL OF MORAL PHILOSOPHY
p1999
sg9
VLippke, Richard L.
p2000
sg11
V2006
p2001
sg13
VArticle
p2002
sa(dp2003
g3
VWOS:000209005500005
p2004
sg5
VThe Power Not to Be (What We Are): The Politics and Ethics of Self-creation in Foucault
p2005
sg7
VJOURNAL OF MORAL PHILOSOPHY
p2006
sg9
VHofmeyr, Benda
p2007
sg11
V2006
p2008
sg13
VArticle
p2009
sa(dp2010
g3
VWOS:000209005400003
p2011
sg5
VA Paradox of Sovereignty in Rousseau's Social Contract
p2012
sg7
VJOURNAL OF MORAL PHILOSOPHY
p2013
sg9
VSimpson, Matthew
p2014
sg11
V2006
p2015
sg13
VArticle
p2016
sa(dp2017
g3
VWOS:000447673800006
p2018
sg5
VVictims' Stories and the Advancement of Human Rights
p2019
sg7
VJOURNAL OF MORAL PHILOSOPHY
p2020
sg9
VMcGill, Emily
p2021
sg11
V2018
p2022
sg13
VBook Review
p2023
sa(dp2024
g3
VWOS:000424088200002
p2025
sg5
VPersons or Property - Freedom and the Legal Status of Animals
p2026
sg7
VJOURNAL OF MORAL PHILOSOPHY
p2027
sg9
VSchmidt, Andreas T.
p2028
sg11
V2018
p2029
sg13
VArticle
p2030
sa(dp2031
g3
VWOS:000409208800012
p2032
sg5
VOn Loyalty and Loyalties: The Contours of a Problematic Virtue
p2033
sg7
VJOURNAL OF MORAL PHILOSOPHY
p2034
sg9
VCornwell, Nathan
p2035
sg11
V2017
p2036
sg13
VBook Review
p2037
sa(dp2038
g3
VWOS:000395812200002
p2039
sg5
VPlaying Fair and Following the Rules
p2040
sg7
VJOURNAL OF MORAL PHILOSOPHY
p2041
sg9
VTosi, Justin
p2042
sg11
V2017
p2043
sg13
VArticle
p2044
sa(dp2045
g3
VWOS:000395810400002
p2046
sg5
VReplaceable Lawyers and Guilty Defendants
p2047
sg7
VJOURNAL OF MORAL PHILOSOPHY
p2048
sg9
VTalbot, Brian
p2049
sg11
V2017
p2050
sg13
VArticle
p2051
sa(dp2052
g3
VWOS:000389010400010
p2053
sg5
VPunishment
p2054
sg7
VJOURNAL OF MORAL PHILOSOPHY
p2055
sg9
VPlaxton, Michael
p2056
sg11
V2016
p2057
sg13
VBook Review
p2058
sa(dp2059
g3
VWOS:000345494500012
p2060
sg5
VThe Ajax Dilemma: Justice, Fairness and Rewards
p2061
sg7
VJOURNAL OF MORAL PHILOSOPHY
p2062
sg9
VMarshall, Sandra
p2063
sg11
V2014
p2064
sg13
VBook Review
p2065
sa(dp2066
g3
VWOS:000342601900009
p2067
sg5
VOxford Studies in Normative Ethics, vol 1
p2068
sg7
VJOURNAL OF MORAL PHILOSOPHY
p2069
sg9
VBirondo, Noell
p2070
sg11
V2014
p2071
sg13
VBook Review
p2072
sa(dp2073
g3
VWOS:000342601900004
p2074
sg5
VMinding the Gap: Bernard Williams and David Hume on Living an Ethical Life
p2075
sg7
VJOURNAL OF MORAL PHILOSOPHY
p2076
sg9
VSagar, Paul
p2077
sg11
V2014
p2078
sg13
VArticle
p2079
sa(dp2080
g3
VWOS:000339468100009
p2081
sg5
VDeep Control: Essays on Free Will and Value
p2082
sg7
VJOURNAL OF MORAL PHILOSOPHY
p2083
sg9
VShabo, Seth
p2084
sg11
V2014
p2085
sg13
VBook Review
p2086
sa(dp2087
g3
VWOS:000325041300003
p2088
sg5
VPolitical Liberalism, Constructivism, and Global Justice
p2089
sg7
VJOURNAL OF MORAL PHILOSOPHY
p2090
sg9
VKaufman, Alexander
p2091
sg11
V2013
p2092
sg13
VArticle
p2093
sa(dp2094
g3
VWOS:000322682000018
p2095
sg5
VYuck! The Nature and Moral Significance of Disgust
p2096
sg7
VJOURNAL OF MORAL PHILOSOPHY
p2097
sg9
VQuigley, James G.
p2098
sg11
V2013
p2099
sg13
VBook Review
p2100
sa(dp2101
g3
VWOS:000316921800004
p2102
sg5
VWilliams' False Dilemma: How to Give Categorically Binding Impartial Reasons to Real Agents
p2103
sg7
VJOURNAL OF MORAL PHILOSOPHY
p2104
sg9
VBeyleveld, Deryck
p2105
sg11
V2013
p2106
sg13
VArticle
p2107
sa(dp2108
g3
VWOS:000310046700005
p2109
sg5
VAgents, Impartiality, and the Priority of Claims over Duties: Diagnosing Why Thomson Still Gets the Trolley Problem Wrong by Appeal to the "Mechanics of Claims"
p2110
sg7
VJOURNAL OF MORAL PHILOSOPHY
p2111
sg9
VWalen, Alec
p2112
sg11
V2012
p2113
sg13
VArticle
p2114
sa(dp2115
g3
VWOS:000310046700004
p2116
sg5
VThe Ethics of Reasoning from Conjecture
p2117
sg7
VJOURNAL OF MORAL PHILOSOPHY
p2118
sg9
VSchwartzman, Micah
p2119
sg11
V2012
p2120
sg13
VArticle
p2121
sa(dp2122
g3
VWOS:000303102200008
p2123
sg5
VCosmopolitanism with Room for Nationalism
p2124
sg7
VJOURNAL OF MORAL PHILOSOPHY
p2125
sg9
VLee, Win-Chiat
p2126
sg11
V2012
p2127
sg13
VReview
p2128
sa(dp2129
g3
VWOS:000300545600006
p2130
sg5
VOn Forgiveness and the Deliberate Refusal to Punish: Reiterating the Differences
p2131
sg7
VJOURNAL OF MORAL PHILOSOPHY
p2132
sg9
VZaibert, Leo
p2133
sg11
V2012
p2134
sg13
VArticle
p2135
sa(dp2136
g3
VWOS:000207935200006
p2137
sg5
VDiscussion Reply to Rosebury
p2138
sg7
VJOURNAL OF MORAL PHILOSOPHY
p2139
sg9
VSilcox, Mark
p2140
sg11
V2009
p2141
sg13
VEditorial Material
p2142
sa(dp2143
g3
VWOS:000207935100007
p2144
sg5
VReply to Silcox on Moral Luck Discussion
p2145
sg7
VJOURNAL OF MORAL PHILOSOPHY
p2146
sg9
VRosebury, Brian
p2147
sg11
V2009
p2148
sg13
VEditorial Material
p2149
sa(dp2150
g3
VWOS:000290934300010
p2151
sg5
VFree Riding
p2152
sg7
VJOURNAL OF MORAL PHILOSOPHY
p2153
sg9
VMurray, Dale
p2154
sg11
V2010
p2155
sg13
VBook Review
p2156
sa(dp2157
g3
VWOS:000290935100011
p2158
sg5
VMaking Amends: Atonement in Law, Morality and Politics
p2159
sg7
VJOURNAL OF MORAL PHILOSOPHY
p2160
sg9
VBennett, Christopher
p2161
sg11
V2011
p2162
sg13
VBook Review
p2163
sa(dp2164
g3
VWOS:000447673300004
p2165
sg5
VIn Defense of Prospectivism about Moral Obligation: A Reply to My Meticulous Critics
p2166
sg7
VJOURNAL OF MORAL PHILOSOPHY
p2167
sg9
VZimmerman, Michael
p2168
sg11
V2018
p2169
sg13
VEditorial Material
p2170
sa(dp2171
g3
VWOS:000409208800009
p2172
sg5
VBorn Free and Equal? A philosophical inquiry into the nature of discrimination
p2173
sg7
VJOURNAL OF MORAL PHILOSOPHY
p2174
sg9
VTomlin, Patrick
p2175
sg11
V2017
p2176
sg13
VBook Review
p2177
sa(dp2178
g3
VWOS:000409208800004
p2179
sg5
VClimate Ethics: Justifying a Positive Social Time Preference
p2180
sg7
VJOURNAL OF MORAL PHILOSOPHY
p2181
sg9
VHeath, Joseph
p2182
sg11
V2017
p2183
sg13
VArticle
p2184
sa(dp2185
g3
VWOS:000389010400008
p2186
sg5
VThe Dimensions of Consequentialism: Ethics, Equality and Risk
p2187
sg7
VJOURNAL OF MORAL PHILOSOPHY
p2188
sg9
VPortmore, Douglas W.
p2189
sg11
V2016
p2190
sg13
VBook Review
p2191
sa(dp2192
g3
VWOS:000385476500009
p2193
sg5
VAgainst Autonomy:Justifying Coercive Paternalism
p2194
sg7
VJOURNAL OF MORAL PHILOSOPHY
p2195
sg9
VSneddon, Andrew
p2196
sg11
V2016
p2197
sg13
VBook Review
p2198
sa(dp2199
g3
VWOS:000385476500001
p2200
sg5
VMoral Deliberation and Ad Hominem Fallacies
p2201
sg7
VJOURNAL OF MORAL PHILOSOPHY
p2202
sg9
VLeibowitz, Uri D.
p2203
sg11
V2016
p2204
sg13
VArticle
p2205
sa(dp2206
g3
VWOS:000378815700013
p2207
sg5
VAdorno's Practical Philosophy: Living Less Wrongly
p2208
sg7
VJOURNAL OF MORAL PHILOSOPHY
p2209
sg9
VShuster, Martin
p2210
sg11
V2016
p2211
sg13
VBook Review
p2212
sa(dp2213
g3
VWOS:000376431800007
p2214
sg5
VNietzsche, Naturalism, and Normativity
p2215
sg7
VJOURNAL OF MORAL PHILOSOPHY
p2216
sg9
VDunkle, Ian D.
p2217
sg11
V2016
p2218
sg13
VBook Review
p2219
sa(dp2220
g3
VWOS:000376431800002
p2221
sg5
VMoral Perception and the Contents of Experience
p2222
sg7
VJOURNAL OF MORAL PHILOSOPHY
p2223
sg9
VWerner, Preston J.
p2224
sg11
V2016
p2225
sg13
VArticle
p2226
sa(dp2227
g3
VWOS:000372353900009
p2228
sg5
VNormative Bedrock: Response-Dependence, Rationality, & Reasons
p2229
sg7
VJOURNAL OF MORAL PHILOSOPHY
p2230
sg9
VWald, Benjamin
p2231
sg11
V2016
p2232
sg13
VBook Review
p2233
sa(dp2234
g3
VWOS:000365066300002
p2235
sg5
VWhose Problem Is Non-Identity?
p2236
sg7
VJOURNAL OF MORAL PHILOSOPHY
p2237
sg9
VHurley, Paul
p2238
sg11
V2015
p2239
sg13
VArticle
p2240
sa(dp2241
g3
VWOS:000365066300001
p2242
sg5
VDoing, Allowing, and the Moral Relevance of the Past
p2243
sg7
VJOURNAL OF MORAL PHILOSOPHY
p2244
sg9
VHanna, Jason
p2245
sg11
V2015
p2246
sg13
VArticle
p2247
sa(dp2248
g3
VWOS:000352334200006
p2249
sg5
VRational Causation
p2250
sg7
VJOURNAL OF MORAL PHILOSOPHY
p2251
sg9
VSchwenkler, John
p2252
sg11
V2015
p2253
sg13
VBook Review
p2254
sa(dp2255
g3
VWOS:000345494500001
p2256
sg5
VA Case for Ethical Veganism Intuitive and Methodological Considerations
p2257
sg7
VJOURNAL OF MORAL PHILOSOPHY
p2258
sg9
VMcPherson, Tristram
p2259
sg11
V2014
p2260
sg13
VArticle
p2261
sa(dp2262
g3
VWOS:000335937600005
p2263
sg5
VOn the Intrinsic Value of Everything
p2264
sg7
VJOURNAL OF MORAL PHILOSOPHY
p2265
sg9
VBader, Ralf M.
p2266
sg11
V2014
p2267
sg13
VBook Review
p2268
sa(dp2269
g3
VWOS:000334142500006
p2270
sg5
VGlobal justice and Due Process
p2271
sg7
VJOURNAL OF MORAL PHILOSOPHY
p2272
sg9
VMurphy, Colleen
p2273
sg11
V2014
p2274
sg13
VBook Review
p2275
sa(dp2276
g3
VWOS:000325041300008
p2277
sg5
VCivil Society in Liberal Democracy
p2278
sg7
VJOURNAL OF MORAL PHILOSOPHY
p2279
sg9
VMcGraw, Bryan T.
p2280
sg11
V2013
p2281
sg13
VBook Review
p2282
sa(dp2283
g3
VWOS:000325041300004
p2284
sg5
VTerritorial Rights, Political Association, and Immigration
p2285
sg7
VJOURNAL OF MORAL PHILOSOPHY
p2286
sg9
VLaegaard, Sune
p2287
sg11
V2013
p2288
sg13
VArticle
p2289
sa(dp2290
g3
VWOS:000300545600010
p2291
sg5
VAutonomy and Liberalism
p2292
sg7
VJOURNAL OF MORAL PHILOSOPHY
p2293
sg9
VChristman, John
p2294
sg11
V2012
p2295
sg13
VBook Review
p2296
sa(dp2297
g3
VWOS:000290934600004
p2298
sg5
VA Kantian Defense of Prudential Suicide
p2299
sg7
VJOURNAL OF MORAL PHILOSOPHY
p2300
sg9
VCholbi, Michael
p2301
sg11
V2010
p2302
sg13
VArticle
p2303
sa(dp2304
g3
VWOS:000209005400009
p2305
sg5
VWorld Poverty and Human Rights
p2306
sg7
VJOURNAL OF MORAL PHILOSOPHY
p2307
sg9
VLippert-Rasmussen, Kasper
p2308
sg11
V2006
p2309
sg13
VBook Review
p2310
sa(dp2311
g3
VWOS:000209005400007
p2312
sg5
VJustice Without Borders: Cosmopolitanism, Nationalism and Patriotism
p2313
sg7
VJOURNAL OF MORAL PHILOSOPHY
p2314
sg9
VHoward, Michael W.
p2315
sg11
V2006
p2316
sg13
VBook Review
p2317
sa(dp2318
g3
VWOS:000209005300006
p2319
sg5
VThe Difference Principle, Equality of Opportunity, and Cosmopolitan Justice
p2320
sg7
VJOURNAL OF MORAL PHILOSOPHY
p2321
sg9
VBrock, Gillian
p2322
sg11
V2005
p2323
sg13
VArticle
p2324
sa(dp2325
g3
VWOS:000447673300001
p2326
sg5
VSome Critical Comments on Zimmerman's Ignorance and Moral Obligation
p2327
sg7
VJOURNAL OF MORAL PHILOSOPHY
p2328
sg9
VBykvist, Krister
p2329
sg11
V2018
p2330
sg13
VArticle
p2331
sa(dp2332
g3
VWOS:000447673300008
p2333
sg5
VThe Stubborn System of Moral Responsibility
p2334
sg7
VJOURNAL OF MORAL PHILOSOPHY
p2335
sg9
VFlummer, Matthew
p2336
sg11
V2018
p2337
sg13
VBook Review
p2338
sa(dp2339
g3
VWOS:000447673800004
p2340
sg5
VIn Defense of a Category-Based System for Unification Admissions
p2341
sg7
VJOURNAL OF MORAL PHILOSOPHY
p2342
sg9
VLindauer, Matthew
p2343
sg11
V2018
p2344
sg13
VArticle
p2345
sa(dp2346
g3
VWOS:000430274300002
p2347
sg5
VHow Wrong is Paternalism?
p2348
sg7
VJOURNAL OF MORAL PHILOSOPHY
p2349
sg9
VBirks, David
p2350
sg11
V2018
p2351
sg13
VArticle
p2352
sa(dp2353
g3
VWOS:000414571300005
p2354
sg5
VWell-Being and Fair Distribution: Beyond Cost-Benefit Analysis
p2355
sg7
VJOURNAL OF MORAL PHILOSOPHY
p2356
sg9
VBrown, Campbell
p2357
sg11
V2017
p2358
sg13
VBook Review
p2359
sa(dp2360
g3
VWOS:000395810400006
p2361
sg5
VConstructivism in Ethics
p2362
sg7
VJOURNAL OF MORAL PHILOSOPHY
p2363
sg9
VGiannini, Heidi Chamberlin
p2364
sg11
V2017
p2365
sg13
VBook Review
p2366
sa(dp2367
g3
VWOS:000385476500010
p2368
sg5
VKantianism, Liberalism, and Feminism: Resisting Oppression
p2369
sg7
VJOURNAL OF MORAL PHILOSOPHY
p2370
sg9
VWilliamson, Diane
p2371
sg11
V2016
p2372
sg13
VBook Review
p2373
sa(dp2374
g3
VWOS:000365066300004
p2375
sg5
VWhat Properly Belongs to Me Kant on Giving to Beggars
p2376
sg7
VJOURNAL OF MORAL PHILOSOPHY
p2377
sg9
VAllais, Lucy
p2378
sg11
V2015
p2379
sg13
VArticle
p2380
sa(dp2381
g3
VWOS:000359477900006
p2382
sg5
VRethinking Rethinking the Good
p2383
sg7
VJOURNAL OF MORAL PHILOSOPHY
p2384
sg9
VTemkin, Larry S.
p2385
sg11
V2015
p2386
sg13
VArticle
p2387
sa(dp2388
g3
VWOS:000357027500009
p2389
sg5
VEthics: An Overview
p2390
sg7
VJOURNAL OF MORAL PHILOSOPHY
p2391
sg9
VPeterson, Claire Brown
p2392
sg11
V2015
p2393
sg13
VBook Review
p2394
sa(dp2395
g3
VWOS:000345494500007
p2396
sg5
VNatural Law, Economics, and the Common Good
p2397
sg7
VJOURNAL OF MORAL PHILOSOPHY
p2398
sg9
VRehg, William
p2399
sg11
V2014
p2400
sg13
VBook Review
p2401
sa(dp2402
g3
VWOS:000345494500011
p2403
sg5
VMoralism: A Study of a Vice
p2404
sg7
VJOURNAL OF MORAL PHILOSOPHY
p2405
sg9
VWise, Jonathan Sands
p2406
sg11
V2014
p2407
sg13
VBook Review
p2408
sa(dp2409
g3
VWOS:000345494500002
p2410
sg5
VWhy Ethics is Hard
p2411
sg7
VJOURNAL OF MORAL PHILOSOPHY
p2412
sg9
VChappell, Timothy
p2413
sg11
V2014
p2414
sg13
VArticle
p2415
sa(dp2416
g3
VWOS:000339468100011
p2417
sg5
VRecidivist Punishments: The Philosopher's View
p2418
sg7
VJOURNAL OF MORAL PHILOSOPHY
p2419
sg9
VHoskins, Zachary
p2420
sg11
V2014
p2421
sg13
VBook Review
p2422
sa(dp2423
g3
VWOS:000325041300002
p2424
sg5
VEpistemic Foundations of Political Liberalism
p2425
sg7
VJOURNAL OF MORAL PHILOSOPHY
p2426
sg9
VPeter, Fabienne
p2427
sg11
V2013
p2428
sg13
VArticle
p2429
sa(dp2430
g3
VWOS:000307243600003
p2431
sg5
VHave Elephant Seals Refuted Aristotle? Nature, Function, and Moral Goodness
p2432
sg7
VJOURNAL OF MORAL PHILOSOPHY
p2433
sg9
VLott, Micah
p2434
sg11
V2012
p2435
sg13
VArticle
p2436
sa(dp2437
g3
VWOS:000307243600010
p2438
sg5
VSympathizing with the Enemy: Reconciliation, Transitional Justice, Negotiation
p2439
sg7
VJOURNAL OF MORAL PHILOSOPHY
p2440
sg9
VPettigrove, Glen
p2441
sg11
V2012
p2442
sg13
VBook Review
p2443
sa(dp2444
g3
VWOS:000290934300002
p2445
sg5
VA Horse in the Basement Nietzschean Reflections on Political Philosophy
p2446
sg7
VJOURNAL OF MORAL PHILOSOPHY
p2447
sg9
VBittner, Ruediger
p2448
sg11
V2010
p2449
sg13
VArticle
p2450
sa(dp2451
g3
VWOS:000290914100002
p2452
sg5
VThe Basis of Human Moral Status
p2453
sg7
VJOURNAL OF MORAL PHILOSOPHY
p2454
sg9
VLiao, S. Matthew
p2455
sg11
V2010
p2456
sg13
VArticle
p2457
sa(dp2458
g3
VWOS:000290935100010
p2459
sg5
VA Pragmatist Philosophy of Democracy
p2460
sg7
VJOURNAL OF MORAL PHILOSOPHY
p2461
sg9
VForstenzer, Joshua
p2462
sg11
V2011
p2463
sg13
VBook Review
p2464
sa(dp2465
g3
VWOS:000290935100004
p2466
sg5
VSecurity, Knowledge and Well-being
p2467
sg7
VJOURNAL OF MORAL PHILOSOPHY
p2468
sg9
VJohn, Stephen
p2469
sg11
V2011
p2470
sg13
VArticle
p2471
sa(dp2472
g3
VWOS:000209005100001
p2473
sg5
VUntitled
p2474
sg7
VJOURNAL OF MORAL PHILOSOPHY
p2475
sg9
VBrooks, Thom
p2476
sg11
V2005
p2477
sg13
VEditorial Material
p2478
sa(dp2479
g3
VWOS:000209005200003
p2480
sg5
VExpressivism, Deflationism and Correspondence
p2481
sg7
VJOURNAL OF MORAL PHILOSOPHY
p2482
sg9
VMarino, Patricia
p2483
sg11
V2005
p2484
sg13
VArticle
p2485
sa(dp2486
g3
VWOS:000435862700008
p2487
sg5
VRational and Social Agency: The Philosophy of Michael Bratman
p2488
sg7
VJOURNAL OF MORAL PHILOSOPHY
p2489
sg9
VBrent, Michael
p2490
sg11
V2018
p2491
sg13
VBook Review
p2492
sa(dp2493
g3
VWOS:000417692900010
p2494
sg5
VAquinas and the Nicomachean Ethics
p2495
sg7
VJOURNAL OF MORAL PHILOSOPHY
p2496
sg9
VCleveland, W. Scott
p2497
sg11
V2017
p2498
sg13
VBook Review
p2499
sa(dp2500
g3
VWOS:000409208800005
p2501
sg5
VThe Metaphysics and Ethics of Relativism
p2502
sg7
VJOURNAL OF MORAL PHILOSOPHY
p2503
sg9
VMachuca, Diego E.
p2504
sg11
V2017
p2505
sg13
VBook Review
p2506
sa(dp2507
g3
VWOS:000389010400003
p2508
sg5
VPreferring a Genetically-Related Child
p2509
sg7
VJOURNAL OF MORAL PHILOSOPHY
p2510
sg9
VRulli, Tina
p2511
sg11
V2016
p2512
sg13
VArticle
p2513
sa(dp2514
g3
VWOS:000376431800008
p2515
sg5
VKnowing Right From Wrong
p2516
sg7
VJOURNAL OF MORAL PHILOSOPHY
p2517
sg9
VSchofield, Paul
p2518
sg11
V2016
p2519
sg13
VBook Review
p2520
sa(dp2521
g3
VWOS:000372353900001
p2522
sg5
VRelational Contractualism and Future Persons
p2523
sg7
VJOURNAL OF MORAL PHILOSOPHY
p2524
sg9
VGibb, Michael
p2525
sg11
V2016
p2526
sg13
VArticle
p2527
sa(dp2528
g3
VWOS:000365066300008
p2529
sg5
VSidgwickian Ethics
p2530
sg7
VJOURNAL OF MORAL PHILOSOPHY
p2531
sg9
VSkelton, Anthony
p2532
sg11
V2015
p2533
sg13
VBook Review
p2534
sa(dp2535
g3
VWOS:000352334200010
p2536
sg5
VAfter War Ends: A Philosophical Perspective
p2537
sg7
VJOURNAL OF MORAL PHILOSOPHY
p2538
sg9
VLee, Steven
p2539
sg11
V2015
p2540
sg13
VBook Review
p2541
sa(dp2542
g3
VWOS:000334142500004
p2543
sg5
VLocke's Political Society Some Problems of Terminology in Two Treatises of Government
p2544
sg7
VJOURNAL OF MORAL PHILOSOPHY
p2545
sg9
VDavis, Michael
p2546
sg11
V2014
p2547
sg13
VArticle
p2548
sa(dp2549
g3
VWOS:000331239700006
p2550
sg5
VVirtue and Politics: Alasdair MacIntyre's Revolutionary Aristotelianism
p2551
sg7
VJOURNAL OF MORAL PHILOSOPHY
p2552
sg9
VKandiyali, Jan
p2553
sg11
V2014
p2554
sg13
VBook Review
p2555
sa(dp2556
g3
VWOS:000328877800006
p2557
sg5
VNew Waves in Metaethics
p2558
sg7
VJOURNAL OF MORAL PHILOSOPHY
p2559
sg9
VMerli, David
p2560
sg11
V2013
p2561
sg13
VBook Review
p2562
sa(dp2563
g3
VWOS:000328877800002
p2564
sg5
VUnderstanding Kant's Duty of Respect as a Duty of Virtue
p2565
sg7
VJOURNAL OF MORAL PHILOSOPHY
p2566
sg9
VFahmy, Melissa Seymour
p2567
sg11
V2013
p2568
sg13
VArticle
p2569
sa(dp2570
g3
VWOS:000325041300001
p2571
sg5
VRawlsian Perfectionism
p2572
sg7
VJOURNAL OF MORAL PHILOSOPHY
p2573
sg9
VWall, Steven
p2574
sg11
V2013
p2575
sg13
VArticle
p2576
sa(dp2577
g3
VWOS:000319853400010
p2578
sg5
VThe Routledge Companion to Ethics
p2579
sg7
VJOURNAL OF MORAL PHILOSOPHY
p2580
sg9
VMcNaughton, David
p2581
sg11
V2013
p2582
sg13
VBook Review
p2583
sa(dp2584
g3
VWOS:000316921800007
p2585
sg5
VNoncognitivism in Ethics
p2586
sg7
VJOURNAL OF MORAL PHILOSOPHY
p2587
sg9
VBoisvert, Daniel R.
p2588
sg11
V2013
p2589
sg13
VBook Review
p2590
sa(dp2591
g3
VWOS:000303102200011
p2592
sg5
VThe Blackwell Guide to Kant's Ethics
p2593
sg7
VJOURNAL OF MORAL PHILOSOPHY
p2594
sg9
VGressis, Robert
p2595
sg11
V2012
p2596
sg13
VBook Review
p2597
sa(dp2598
g3
VWOS:000297812300004
p2599
sg5
VSelf-Defence and the Principle of Non-Combatant Immunity
p2600
sg7
VJOURNAL OF MORAL PHILOSOPHY
p2601
sg9
VFrowe, Helen
p2602
sg11
V2011
p2603
sg13
VArticle
p2604
sa(dp2605
g3
VWOS:000296865300006
p2606
sg5
VShould We Replace Disabled Newborn Infants?
p2607
sg7
VJOURNAL OF MORAL PHILOSOPHY
p2608
sg9
VWilkinson, Dominic
p2609
sg11
V2011
p2610
sg13
VArticle
p2611
sa(dp2612
g3
VWOS:000296865300005
p2613
sg5
VAgainst Public Reason Liberalism's Accessibility Requirement
p2614
sg7
VJOURNAL OF MORAL PHILOSOPHY
p2615
sg9
VVallier, Kevin
p2616
sg11
V2011
p2617
sg13
VArticle
p2618
sa(dp2619
g3
VWOS:000207935100006
p2620
sg5
VJust Threats
p2621
sg7
VJOURNAL OF MORAL PHILOSOPHY
p2622
sg9
VEylon, Yuval
p2623
sg11
V2009
p2624
sg13
VArticle
p2625
sa(dp2626
g3
VWOS:000207935400008
p2627
sg5
VA Theory of Virtue: Excellence in Being for the Good
p2628
sg7
VJOURNAL OF MORAL PHILOSOPHY
p2629
sg9
VJeffrey, Justin
p2630
sg11
V2009
p2631
sg13
VBook Review
p2632
sa(dp2633
g3
VWOS:000209005100005
p2634
sg5
VKeeping Our Distance in Compassion-Based Social Relations
p2635
sg7
VJOURNAL OF MORAL PHILOSOPHY
p2636
sg9
VSmith, Steven R.
p2637
sg11
V2005
p2638
sg13
VArticle
p2639
sa(dp2640
g3
VWOS:000447673300006
p2641
sg5
VCausation and Free Will
p2642
sg7
VJOURNAL OF MORAL PHILOSOPHY
p2643
sg9
VCyr, Taylor W.
p2644
sg11
V2018
p2645
sg13
VBook Review
p2646
sa(dp2647
g3
VWOS:000447673800009
p2648
sg5
VMetaethics From a First Person Point of View: An Introduction to Moral Philosophy
p2649
sg7
VJOURNAL OF MORAL PHILOSOPHY
p2650
sg9
VMiller, Alexander
p2651
sg11
V2018
p2652
sg13
VBook Review
p2653
sa(dp2654
g3
VWOS:000424088200008
p2655
sg5
VNeurobiology and the Development of Human Morality: Evolution, Culture, and Wisdom
p2656
sg7
VJOURNAL OF MORAL PHILOSOPHY
p2657
sg9
VStonestreet, Erica Lucast
p2658
sg11
V2018
p2659
sg13
VBook Review
p2660
sa(dp2661
g3
VWOS:000414571300001
p2662
sg5
VTwo Conceptions of Justice
p2663
sg7
VJOURNAL OF MORAL PHILOSOPHY
p2664
sg9
VKlocksiem, Justin
p2665
sg11
V2017
p2666
sg13
VArticle
p2667
sa(dp2668
g3
VWOS:000404072400006
p2669
sg5
VLecture on Ethics
p2670
sg7
VJOURNAL OF MORAL PHILOSOPHY
p2671
sg9
VDe Mesel, Benjamin
p2672
sg11
V2017
p2673
sg13
VBook Review
p2674
sa(dp2675
g3
VWOS:000395812200011
p2676
sg5
VA Defense of Dignity: Creating Life, Destroying Life, and Protecting the Rights of Conscience
p2677
sg7
VJOURNAL OF MORAL PHILOSOPHY
p2678
sg9
VPrusak, Bernard G.
p2679
sg11
V2017
p2680
sg13
VBook Review
p2681
sa(dp2682
g3
VWOS:000378815700012
p2683
sg5
VUnderstanding Moral Obligation: Kant, Hegel, Kierkegaard
p2684
sg7
VJOURNAL OF MORAL PHILOSOPHY
p2685
sg9
VMudd, Sasha
p2686
sg11
V2016
p2687
sg13
VBook Review
p2688
sa(dp2689
g3
VWOS:000372353900008
p2690
sg5
VConstitutional Fragments
p2691
sg7
VJOURNAL OF MORAL PHILOSOPHY
p2692
sg9
VGoldoni, Marco
p2693
sg11
V2016
p2694
sg13
VBook Review
p2695
sa(dp2696
g3
VWOS:000357027500002
p2697
sg5
VLove and (Polygamous) Marriage? A Liberal Case Against Polygamy
p2698
sg7
VJOURNAL OF MORAL PHILOSOPHY
p2699
sg9
VCrookston, Emily M.
p2700
sg11
V2015
p2701
sg13
VArticle
p2702
sa(dp2703
g3
VWOS:000342601900003
p2704
sg5
VThe Failure of Hooker's Argument for Rule Consequentialism
p2705
sg7
VJOURNAL OF MORAL PHILOSOPHY
p2706
sg9
VLevy, Sanford
p2707
sg11
V2014
p2708
sg13
VArticle
p2709
sa(dp2710
g3
VWOS:000331239700001
p2711
sg5
VObligating Reasons, Moral Laws, and Moral Dispositions
p2712
sg7
VJOURNAL OF MORAL PHILOSOPHY
p2713
sg9
VRobinson, Luke
p2714
sg11
V2014
p2715
sg13
VArticle
p2716
sa(dp2717
g3
VWOS:000328877800008
p2718
sg5
VReconstructing Rawls: The Kantian Foundations of Justice as Fairness
p2719
sg7
VJOURNAL OF MORAL PHILOSOPHY
p2720
sg9
VVoice, Paul
p2721
sg11
V2013
p2722
sg13
VBook Review
p2723
sa(dp2724
g3
VWOS:000316921800009
p2725
sg5
VEssays on Anscombe's Intention
p2726
sg7
VJOURNAL OF MORAL PHILOSOPHY
p2727
sg9
VSchwenkler, John
p2728
sg11
V2013
p2729
sg13
VBook Review
p2730
sa(dp2731
g3
VWOS:000303102200006
p2732
sg5
VA Role for Consciousness After All
p2733
sg7
VJOURNAL OF MORAL PHILOSOPHY
p2734
sg9
VLevy, Neil
p2735
sg11
V2012
p2736
sg13
VEditorial Material
p2737
sa(dp2738
g3
VWOS:000303102200001
p2739
sg5
VUntitled
p2740
sg7
VJOURNAL OF MORAL PHILOSOPHY
p2741
sg9
VBrooks, Thom
p2742
sg11
V2012
p2743
sg13
VEditorial Material
p2744
sa(dp2745
g3
VWOS:000296865300010
p2746
sg5
VHealth, Luck, and Justice
p2747
sg7
VJOURNAL OF MORAL PHILOSOPHY
p2748
sg9
VWilkinson, T. M.
p2749
sg11
V2011
p2750
sg13
VBook Review
p2751
sa(dp2752
g3
VWOS:000290935200002
p2753
sg5
VHarmful Beneficence
p2754
sg7
VJOURNAL OF MORAL PHILOSOPHY
p2755
sg9
VRivera, Lisa
p2756
sg11
V2011
p2757
sg13
VArticle
p2758
sa(dp2759
g3
VWOS:000290934300003
p2760
sg5
VConditional Threats
p2761
sg7
VJOURNAL OF MORAL PHILOSOPHY
p2762
sg9
VOverland, Gerhard
p2763
sg11
V2010
p2764
sg13
VArticle
p2765
sa(dp2766
g3
VWOS:000290914100009
p2767
sg5
VJustice, Democracy and Reasonable Agreement
p2768
sg7
VJOURNAL OF MORAL PHILOSOPHY
p2769
sg9
VWollner, Gabriel
p2770
sg11
V2010
p2771
sg13
VBook Review
p2772
sa(dp2773
g3
VWOS:000290935100005
p2774
sg5
VConsistency in the Armed Enforcement of Human Rights: A Moral Necessity?
p2775
sg7
VJOURNAL OF MORAL PHILOSOPHY
p2776
sg9
VDobos, Ned
p2777
sg11
V2011
p2778
sg13
VArticle
p2779
sa(dp2780
g3
VWOS:000290935100002
p2781
sg5
VFree Trade, Poverty, and Inequality
p2782
sg7
VJOURNAL OF MORAL PHILOSOPHY
p2783
sg9
VHassoun, Nicole
p2784
sg11
V2011
p2785
sg13
VArticle
p2786
sa(dp2787
g3
VWOS:000209005600011
p2788
sg5
VHiding from Humanity: Disgust, Shame, and the Law
p2789
sg7
VJOURNAL OF MORAL PHILOSOPHY
p2790
sg9
VRodogno, Raffaele
p2791
sg11
V2006
p2792
sg13
VBook Review
p2793
sa(dp2794
g3
VWOS:000209005500002
p2795
sg5
VRadical Evil in the Lockean State: The Neglect of the Political Emotions
p2796
sg7
VJOURNAL OF MORAL PHILOSOPHY
p2797
sg9
VNussbaum, Martha C.
p2798
sg11
V2006
p2799
sg13
VArticle
p2800
sa(dp2801
g3
VWOS:000389010400012
p2802
sg5
VAutonomy
p2803
sg7
VJOURNAL OF MORAL PHILOSOPHY
p2804
sg9
VCohen, Andrew Jason
p2805
sg11
V2016
p2806
sg13
VBook Review
p2807
sa(dp2808
g3
VWOS:000385476500002
p2809
sg5
VBenefiting from Wrongdoing and Sustaining Wrongful Harm
p2810
sg7
VJOURNAL OF MORAL PHILOSOPHY
p2811
sg9
VBarry, Christian
p2812
sg11
V2016
p2813
sg13
VArticle
p2814
sa(dp2815
g3
VWOS:000378815700011
p2816
sg5
VEvil and Moral Psychology
p2817
sg7
VJOURNAL OF MORAL PHILOSOPHY
p2818
sg9
VFormosa, Paul
p2819
sg11
V2016
p2820
sg13
VBook Review
p2821
sa(dp2822
g3
VWOS:000378815700003
p2823
sg5
VWhy Jonas Olson Cannot Believe the Error Theory Either
p2824
sg7
VJOURNAL OF MORAL PHILOSOPHY
p2825
sg9
VStreumer, Bart
p2826
sg11
V2016
p2827
sg13
VArticle
p2828
sa(dp2829
g3
VWOS:000368153000003
p2830
sg5
VHandguns, Moral Rights, and Physical Security
p2831
sg7
VJOURNAL OF MORAL PHILOSOPHY
p2832
sg9
VDeGrazia, David
p2833
sg11
V2016
p2834
sg13
VArticle
p2835
sa(dp2836
g3
VWOS:000361467400009
p2837
sg5
VPunishment, Participatory Democracy, & the Jury
p2838
sg7
VJOURNAL OF MORAL PHILOSOPHY
p2839
sg9
VMcKeever, Sean
p2840
sg11
V2015
p2841
sg13
VBook Review
p2842
sa(dp2843
g3
VWOS:000359477900001
p2844
sg5
VSymposium on Larry Temkin's Rethinking the Good: Moral Ideals and the Nature of Practical Reasoning
p2845
sg7
VJOURNAL OF MORAL PHILOSOPHY
p2846
sg9
VTemkin, Larry S.
p2847
sg11
V2015
p2848
sg13
VArticle
p2849
sa(dp2850
g3
VWOS:000348280700001
p2851
sg5
VThe Equivocal Use of Power in Nietzsche's Failed Anti-Egalitarianism
p2852
sg7
VJOURNAL OF MORAL PHILOSOPHY
p2853
sg9
VMiyasaki, Donovan
p2854
sg11
V2015
p2855
sg13
VArticle
p2856
sa(dp2857
g3
VWOS:000345494500010
p2858
sg5
VFriendship
p2859
sg7
VJOURNAL OF MORAL PHILOSOPHY
p2860
sg9
VLynch, Sandra
p2861
sg11
V2014
p2862
sg13
VBook Review
p2863
sa(dp2864
g3
VWOS:000209005500006
p2865
sg5
VThe Collapse of the Fact/Value Dichotomy and Other Essays
p2866
sg7
VJOURNAL OF MORAL PHILOSOPHY
p2867
sg9
VHookway, Christopher
p2868
sg11
V2006
p2869
sg13
VBook Review
p2870
sa(dp2871
g3
VWOS:000209005200013
p2872
sg5
VThird Way Discourse: European Ideologies in the Twentieth Century
p2873
sg7
VJOURNAL OF MORAL PHILOSOPHY
p2874
sg9
VSandry, Alan
p2875
sg11
V2005
p2876
sg13
VBook Review
p2877
sa(dp2878
g3
VWOS:000328877800012
p2879
sg5
VEthics and Public Policy: A Philosophical Inquiry
p2880
sg7
VJOURNAL OF MORAL PHILOSOPHY
p2881
sg9
VValdman, Mikhail
p2882
sg11
V2013
p2883
sg13
VBook Review
p2884
sa(dp2885
g3
VWOS:000316921800005
p2886
sg5
VA Moral Theory of Political Reconciliation
p2887
sg7
VJOURNAL OF MORAL PHILOSOPHY
p2888
sg9
VPhilpott, Daniel
p2889
sg11
V2013
p2890
sg13
VBook Review
p2891
sa(dp2892
g3
VWOS:000310046700001
p2893
sg5
VUntitled
p2894
sg7
VJOURNAL OF MORAL PHILOSOPHY
p2895
sg9
VBrooks, Thom
p2896
sg11
V2012
p2897
sg13
VEditorial Material
p2898
sa(dp2899
g3
VWOS:000303102200003
p2900
sg5
VA Critique of Scanlon on Double Effect
p2901
sg7
VJOURNAL OF MORAL PHILOSOPHY
p2902
sg9
VStuchlik, Joshua
p2903
sg11
V2012
p2904
sg13
VArticle
p2905
sa(dp2906
g3
VWOS:000300545600007
p2907
sg5
VLegal Theory, Law, and Normativity
p2908
sg7
VJOURNAL OF MORAL PHILOSOPHY
p2909
sg9
VKahn, Leonard
p2910
sg11
V2012
p2911
sg13
VReview
p2912
sa(dp2913
g3
VWOS:000297812300012
p2914
sg5
VThe Idea of Human Rights
p2915
sg7
VJOURNAL OF MORAL PHILOSOPHY
p2916
sg9
VSzende, Jennifer
p2917
sg11
V2011
p2918
sg13
VBook Review
p2919
sa(dp2920
g3
VWOS:000297812300014
p2921
sg5
VLove, Friendship, & the Self: Intimacy, Identification, & the Social Nature of Persons
p2922
sg7
VJOURNAL OF MORAL PHILOSOPHY
p2923
sg9
VZagura, Anabella
p2924
sg11
V2011
p2925
sg13
VBook Review
p2926
sa(dp2927
g3
VWOS:000296865300007
p2928
sg5
VAutonomy, History, and the Origins of Our Desires
p2929
sg7
VJOURNAL OF MORAL PHILOSOPHY
p2930
sg9
VValdman, Mikhail
p2931
sg11
V2011
p2932
sg13
VArticle
p2933
sa(dp2934
g3
VWOS:000207935100002
p2935
sg5
VConsequentialism and Side Constraints
p2936
sg7
VJOURNAL OF MORAL PHILOSOPHY
p2937
sg9
VNolan, Daniel
p2938
sg11
V2009
p2939
sg13
VArticle
p2940
sa(dp2941
g3
VWOS:000207935100001
p2942
sg5
VUntitled
p2943
sg7
VJOURNAL OF MORAL PHILOSOPHY
p2944
sg9
VBrooks, Thom
p2945
sg11
V2009
p2946
sg13
VEditorial Material
p2947
sa(dp2948
g3
VWOS:000207935400006
p2949
sg5
VThe Ideality of Law
p2950
sg7
VJOURNAL OF MORAL PHILOSOPHY
p2951
sg9
VCoyle, Sean
p2952
sg11
V2009
p2953
sg13
VReview
p2954
sa(dp2955
g3
VWOS:000209005600004
p2956
sg5
VCorrective Justice and Reputation
p2957
sg7
VJOURNAL OF MORAL PHILOSOPHY
p2958
sg9
VScarre, Geoffrey
p2959
sg11
V2006
p2960
sg13
VArticle
p2961
sa(dp2962
g3
VWOS:000209005600007
p2963
sg5
VRetribution and Organic Unities
p2964
sg7
VJOURNAL OF MORAL PHILOSOPHY
p2965
sg9
VClark, Michael
p2966
sg11
V2006
p2967
sg13
VArticle
p2968
sa(dp2969
g3
VWOS:000447673800001
p2970
sg5
VMaking Non-Transitive Betterness Behave
p2971
sg7
VJOURNAL OF MORAL PHILOSOPHY
p2972
sg9
VVong, Gerard
p2973
sg11
V2018
p2974
sg13
VArticle
p2975
sa(dp2976
g3
VWOS:000430274300010
p2977
sg5
VThe Cosmos of Duty: Henry Sidgwick's Methods of Ethics
p2978
sg7
VJOURNAL OF MORAL PHILOSOPHY
p2979
sg9
VPaytas, Tyler
p2980
sg11
V2018
p2981
sg13
VBook Review
p2982
sa(dp2983
g3
VWOS:000414571300008
p2984
sg5
VNaturalizing Epistemic Virtue
p2985
sg7
VJOURNAL OF MORAL PHILOSOPHY
p2986
sg9
VBoult, Cameron
p2987
sg11
V2017
p2988
sg13
VBook Review
p2989
sa(dp2990
g3
VWOS:000409208800002
p2991
sg5
VThe Significance of Habit
p2992
sg7
VJOURNAL OF MORAL PHILOSOPHY
p2993
sg9
VMatthews, Steve
p2994
sg11
V2017
p2995
sg13
VArticle
p2996
sa(dp2997
g3
VWOS:000404072400007
p2998
sg5
VTerrorism: A Philosophical Investigation
p2999
sg7
VJOURNAL OF MORAL PHILOSOPHY
p3000
sg9
VReitan, Eric
p3001
sg11
V2017
p3002
sg13
VBook Review
p3003
sa(dp3004
g3
VWOS:000395810400010
p3005
sg5
VFree Will, Agency, and Meaning in Life
p3006
sg7
VJOURNAL OF MORAL PHILOSOPHY
p3007
sg9
VRocheleau-Houle, David
p3008
sg11
V2017
p3009
sg13
VBook Review
p3010
sa(dp3011
g3
VWOS:000378815700008
p3012
sg5
VNarrative Identity, Autonomy, and Morality: From Frankfurt and MacIntyre to Kierkegaard
p3013
sg7
VJOURNAL OF MORAL PHILOSOPHY
p3014
sg9
VTaylor, James S.
p3015
sg11
V2016
p3016
sg13
VBook Review
p3017
sa(dp3018
g3
VWOS:000372353900007
p3019
sg5
VGlobal Justice and International Affairs
p3020
sg7
VJOURNAL OF MORAL PHILOSOPHY
p3021
sg9
VCulp, Julian
p3022
sg11
V2016
p3023
sg13
VBook Review
p3024
sa(dp3025
g3
VWOS:000368153000009
p3026
sg5
VConscience and Conviction: The Case for Civil Disobedience
p3027
sg7
VJOURNAL OF MORAL PHILOSOPHY
p3028
sg9
VWicclair, Mark
p3029
sg11
V2016
p3030
sg13
VBook Review
p3031
sa(dp3032
g3
VWOS:000345494500008
p3033
sg5
VEmpathy: Philosophical and Psychological Perspectives
p3034
sg7
VJOURNAL OF MORAL PHILOSOPHY
p3035
sg9
VStueber, Karsten
p3036
sg11
V2014
p3037
sg13
VBook Review
p3038
sa(dp3039
g3
VWOS:000334142500005
p3040
sg5
VPhilosophy, Ethics and a Common Humanity: Essays in Honour of Raimond Gaita
p3041
sg7
VJOURNAL OF MORAL PHILOSOPHY
p3042
sg9
VLemmens, Willem
p3043
sg11
V2014
p3044
sg13
VBook Review
p3045
sa(dp3046
g3
VWOS:000331239700005
p3047
sg5
VChristine Korsgaard's Self-Constitution
p3048
sg7
VJOURNAL OF MORAL PHILOSOPHY
p3049
sg9
VCuneo, Terence
p3050
sg11
V2014
p3051
sg13
VReview
p3052
sa(dp3053
g3
VWOS:000322682000007
p3054
sg5
VConstructing a Contractualist Egalitarianism: Equality after Scanlon Reply
p3055
sg7
VJOURNAL OF MORAL PHILOSOPHY
p3056
sg9
VScanlon, T. M.
p3057
sg11
V2013
p3058
sg13
VEditorial Material
p3059
sa(dp3060
g3
VWOS:000315127800009
p3061
sg5
VHuman Rights and the Ethics of Globalization
p3062
sg7
VJOURNAL OF MORAL PHILOSOPHY
p3063
sg9
VBedi, Sonu
p3064
sg11
V2013
p3065
sg13
VBook Review
p3066
sa(dp3067
g3
VWOS:000315127800002
p3068
sg5
VCausal Legal Semantics: A Critical Assessment
p3069
sg7
VJOURNAL OF MORAL PHILOSOPHY
p3070
sg9
VFlanagan, Brian
p3071
sg11
V2013
p3072
sg13
VArticle
p3073
sa(dp3074
g3
VWOS:000315127800001
p3075
sg5
VAn intemational journal of moral, political, and legal philosophy
p3076
sg7
VJOURNAL OF MORAL PHILOSOPHY
p3077
sg9
VLiao, S. Matthew
p3078
sg11
V2013
p3079
sg13
VEditorial Material
p3080
sa(dp3081
g3
VWOS:000310046700010
p3082
sg5
VConfronting Evils: Terrorism, Torture, Genocide
p3083
sg7
VJOURNAL OF MORAL PHILOSOPHY
p3084
sg9
VNathanson, Stephen
p3085
sg11
V2012
p3086
sg13
VBook Review
p3087
sa(dp3088
g3
VWOS:000310046700006
p3089
sg5
VPhilosophical and Ethical Issues in Disability
p3090
sg7
VJOURNAL OF MORAL PHILOSOPHY
p3091
sg9
VBlustein, Jeffrey
p3092
sg11
V2012
p3093
sg13
VReview
p3094
sa(dp3095
g3
VWOS:000307243600006
p3096
sg5
VWilling, Wanting, Waiting
p3097
sg7
VJOURNAL OF MORAL PHILOSOPHY
p3098
sg9
VFerrero, Luca
p3099
sg11
V2012
p3100
sg13
VReview
p3101
sa(dp3102
g3
VWOS:000303102200009
p3103
sg5
VEssays on the History of Moral Philosophy
p3104
sg7
VJOURNAL OF MORAL PHILOSOPHY
p3105
sg9
VSwan, Kyle
p3106
sg11
V2012
p3107
sg13
VBook Review
p3108
sa(dp3109
g3
VWOS:000297812300007
p3110
sg5
VThe Real Direction of Dancy's Moral Particularism
p3111
sg7
VJOURNAL OF MORAL PHILOSOPHY
p3112
sg9
VWall, Edmund
p3113
sg11
V2011
p3114
sg13
VArticle
p3115
sa(dp3116
g3
VWOS:000207935100004
p3117
sg5
VAgent-based Virtue Ethics and the Problem of Action Guidance
p3118
sg7
VJOURNAL OF MORAL PHILOSOPHY
p3119
sg9
Vvan Zyl, Liezl
p3120
sg11
V2009
p3121
sg13
VArticle
p3122
sa(dp3123
g3
VWOS:000290913600008
p3124
sg5
VGender, Class, and Freedom in Modern Political Theory
p3125
sg7
VJOURNAL OF MORAL PHILOSOPHY
p3126
sg9
VChambers, Clare
p3127
sg11
V2010
p3128
sg13
VBook Review
p3129
sa(dp3130
g3
VWOS:000209005200009
p3131
sg5
VHegel on Ethics and Politics
p3132
sg7
VJOURNAL OF MORAL PHILOSOPHY
p3133
sg9
VKnowles, Dudley
p3134
sg11
V2005
p3135
sg13
VBook Review
p3136
sa(dp3137
g3
VWOS:000435862700006
p3138
sg5
VPhilosophy of Law: Introducing Jurisprudence
p3139
sg7
VJOURNAL OF MORAL PHILOSOPHY
p3140
sg9
VPsarras, Haris
p3141
sg11
V2018
p3142
sg13
VBook Review
p3143
sa(dp3144
g3
VWOS:000417692900013
p3145
sg5
VRobust Ethics: The Metaphysics and Epistemology of Godless Normative Realism
p3146
sg7
VJOURNAL OF MORAL PHILOSOPHY
p3147
sg9
VJordan, Matthew Carey
p3148
sg11
V2017
p3149
sg13
VBook Review
p3150
sa(dp3151
g3
VWOS:000409208800008
p3152
sg5
VJoint Commitment: How We Make the Social World
p3153
sg7
VJOURNAL OF MORAL PHILOSOPHY
p3154
sg9
VButterfill, Stephen A.
p3155
sg11
V2017
p3156
sg13
VBook Review
p3157
sa(dp3158
g3
VWOS:000404072400008
p3159
sg5
VKant on Emotion and Value
p3160
sg7
VJOURNAL OF MORAL PHILOSOPHY
p3161
sg9
VWilliamson, Diane
p3162
sg11
V2017
p3163
sg13
VBook Review
p3164
sa(dp3165
g3
VWOS:000404072400010
p3166
sg5
VRethinking Virtue Ethics
p3167
sg7
VJOURNAL OF MORAL PHILOSOPHY
p3168
sg9
VJost, Lawrence J.
p3169
sg11
V2017
p3170
sg13
VBook Review
p3171
sa(dp3172
g3
VWOS:000389010400009
p3173
sg5
VUnfit for the Future: The Need for Moral Enhancement
p3174
sg7
VJOURNAL OF MORAL PHILOSOPHY
p3175
sg9
VRoberts, Melinda A.
p3176
sg11
V2016
p3177
sg13
VBook Review
p3178
sa(dp3179
g3
VWOS:000376431800010
p3180
sg5
VAristotelian Ethics in Contemporary Perspective
p3181
sg7
VJOURNAL OF MORAL PHILOSOPHY
p3182
sg9
VFrey, Jennifer A.
p3183
sg11
V2016
p3184
sg13
VBook Review
p3185
sa(dp3186
g3
VWOS:000359477900009
p3187
sg5
VConstructivism in Practical Philosophy
p3188
sg7
VJOURNAL OF MORAL PHILOSOPHY
p3189
sg9
VLiberman, Alida
p3190
sg11
V2015
p3191
sg13
VBook Review
p3192
sa(dp3193
g3
VWOS:000359477900003
p3194
sg5
VOn Larry Temkin's Rethinking the Good
p3195
sg7
VJOURNAL OF MORAL PHILOSOPHY
p3196
sg9
VKatz, Leo
p3197
sg11
V2015
p3198
sg13
VArticle
p3199
sa(dp3200
g3
VWOS:000348280700007
p3201
sg5
VRetributivism Has a Past: Has It a Future?
p3202
sg7
VJOURNAL OF MORAL PHILOSOPHY
p3203
sg9
VKershnar, Stephen
p3204
sg11
V2015
p3205
sg13
VBook Review
p3206
sa(dp3207
g3
VWOS:000209005200007
p3208
sg5
VMulticultural Jurisdictions: Cultural Differences and Women's Rights
p3209
sg7
VJOURNAL OF MORAL PHILOSOPHY
p3210
sg9
VMookherjee, Monica
p3211
sg11
V2005
p3212
sg13
VBook Review
p3213
sa(dp3214
g3
VWOS:000322682000005
p3215
sg5
VScanlon on Social and Material Inequality Reply
p3216
sg7
VJOURNAL OF MORAL PHILOSOPHY
p3217
sg9
VScanlon, T. M.
p3218
sg11
V2013
p3219
sg13
VEditorial Material
p3220
sa(dp3221
g3
VWOS:000322682000013
p3222
sg5
VThe Unromantic Rousseauian: Scanlon on Justice, Value Coherence and Freedom Reply
p3223
sg7
VJOURNAL OF MORAL PHILOSOPHY
p3224
sg9
VScanlon, T. M.
p3225
sg11
V2013
p3226
sg13
VEditorial Material
p3227
sa(dp3228
g3
VWOS:000307243600009
p3229
sg5
VMoral Dilemmas of Modern War: Torture, Assassination, and Blackmail in an Age of Asymmetric Conflict
p3230
sg7
VJOURNAL OF MORAL PHILOSOPHY
p3231
sg9
VStatman, Daniel
p3232
sg11
V2012
p3233
sg13
VBook Review
p3234
sa(dp3235
g3
VWOS:000207935100011
p3236
sg5
VAristotelian Philosophy: Ethics and Politics from Aristotle to MacIntyre
p3237
sg7
VJOURNAL OF MORAL PHILOSOPHY
p3238
sg9
VCordell, Sean
p3239
sg11
V2009
p3240
sg13
VBook Review
p3241
sa(dp3242
g3
VWOS:000290913600010
p3243
sg5
VClimate Change, Justice and Future Generations
p3244
sg7
VJOURNAL OF MORAL PHILOSOPHY
p3245
sg9
VBou-Habib, Paul
p3246
sg11
V2010
p3247
sg13
VBook Review
p3248
sa(dp3249
g3
VWOS:000207935300005
p3250
sg5
VThe Paradox of Forgiveness
p3251
sg7
VJOURNAL OF MORAL PHILOSOPHY
p3252
sg9
VZaibert, Leo
p3253
sg11
V2009
p3254
sg13
VArticle
p3255
sa(dp3256
g3
VWOS:000207935200002
p3257
sg5
VThe Mixed Solution to the Number Problem
p3258
sg7
VJOURNAL OF MORAL PHILOSOPHY
p3259
sg9
VPeterson, Martin
p3260
sg11
V2009
p3261
sg13
VArticle
p3262
sa(dp3263
g3
VWOS:000209005400006
p3264
sg5
VThe Practice of Value
p3265
sg7
VJOURNAL OF MORAL PHILOSOPHY
p3266
sg9
VSheinman, Hanoch
p3267
sg11
V2006
p3268
sg13
VBook Review
p3269
sa(dp3270
g3
VWOS:000209005400011
p3271
sg5
VTerrorism and International Justice
p3272
sg7
VJOURNAL OF MORAL PHILOSOPHY
p3273
sg9
VVaidya, Anand J.
p3274
sg11
V2006
p3275
sg13
VBook Review
p3276
sa(dp3277
g3
VWOS:000209005400010
p3278
sg5
VJustice Beyond Borders: A Global Political Theory
p3279
sg7
VJOURNAL OF MORAL PHILOSOPHY
p3280
sg9
VSmith, Matthew Noah
p3281
sg11
V2006
p3282
sg13
VBook Review
p3283
sa(dp3284
g3
VWOS:000209005600005
p3285
sg5
V'Who's Still Standing?' A Comment on Antony Duff's Preconditions of Criminal Liability
p3286
sg7
VJOURNAL OF MORAL PHILOSOPHY
p3287
sg9
VMatravers, Matt
p3288
sg11
V2006
p3289
sg13
VArticle
p3290
sa(dp3291
g3
VWOS:000209005100006
p3292
sg5
VReview Article: Democracy, Law and Authority
p3293
sg7
VJOURNAL OF MORAL PHILOSOPHY
p3294
sg9
VBesson, Samantha
p3295
sg11
V2005
p3296
sg13
VReview
p3297
sa(dp3298
g3
VWOS:000209005500011
p3299
sg5
VThe Future of Human Nature
p3300
sg7
VJOURNAL OF MORAL PHILOSOPHY
p3301
sg9
VWells, Alan L.
p3302
sg11
V2006
p3303
sg13
VBook Review
p3304
sa(dp3305
g3
VWOS:000447673300005
p3306
sg5
VPropositions and the Meaning of 'Ought'
p3307
sg7
VJOURNAL OF MORAL PHILOSOPHY
p3308
sg9
VFusco, Melissa
p3309
sg11
V2018
p3310
sg13
VReview
p3311
sa(dp3312
g3
VWOS:000447673300002
p3313
sg5
VThe Zimmerman-Graham Debate on Objectivism versus Prospectivism
p3314
sg7
VJOURNAL OF MORAL PHILOSOPHY
p3315
sg9
VSmith, Holly M.
p3316
sg11
V2018
p3317
sg13
VArticle
p3318
sa(dp3319
g3
VWOS:000417692900014
p3320
sg5
VThe Cambridge Rawls Lexicon
p3321
sg7
VJOURNAL OF MORAL PHILOSOPHY
p3322
sg9
VSmolenski, Phil
p3323
sg11
V2017
p3324
sg13
VBook Review
p3325
sa(dp3326
g3
VWOS:000404072400009
p3327
sg5
VIgnorance and Moral Obligation
p3328
sg7
VJOURNAL OF MORAL PHILOSOPHY
p3329
sg9
VSpelman, Jonathan
p3330
sg11
V2017
p3331
sg13
VBook Review
p3332
sa(dp3333
g3
VWOS:000404072400005
p3334
sg5
VUnlocking Morality from Criminal Law
p3335
sg7
VJOURNAL OF MORAL PHILOSOPHY
p3336
sg9
VBrooks, Thom
p3337
sg11
V2017
p3338
sg13
VBook Review
p3339
sa(dp3340
g3
VWOS:000395810400009
p3341
sg5
VFoundations for Moral Relativism
p3342
sg7
VJOURNAL OF MORAL PHILOSOPHY
p3343
sg9
VSarkissian, Hagop
p3344
sg11
V2017
p3345
sg13
VBook Review
p3346
sa(dp3347
g3
VWOS:000395810400004
p3348
sg5
VOn the Strength of the Reason Against Harming
p3349
sg7
VJOURNAL OF MORAL PHILOSOPHY
p3350
sg9
VGardner, Molly
p3351
sg11
V2017
p3352
sg13
VArticle
p3353
sa(dp3354
g3
VWOS:000389010400004
p3355
sg5
VMoral Blackmail and the Family
p3356
sg7
VJOURNAL OF MORAL PHILOSOPHY
p3357
sg9
VKeller, Simon
p3358
sg11
V2016
p3359
sg13
VArticle
p3360
sa(dp3361
g3
VWOS:000385476500003
p3362
sg5
VFamily Migration Schemes and Liberal Neutrality A Dilemma
p3363
sg7
VJOURNAL OF MORAL PHILOSOPHY
p3364
sg9
VFerracioli, Luara
p3365
sg11
V2016
p3366
sg13
VArticle
p3367
sa(dp3368
g3
VWOS:000376431800001
p3369
sg5
VThe Principle of Fairness, Political Duties, and the Benefits Proviso Mistake
p3370
sg7
VJOURNAL OF MORAL PHILOSOPHY
p3371
sg9
VKoltonski, Daniel
p3372
sg11
V2016
p3373
sg13
VArticle
p3374
sa(dp3375
g3
VWOS:000368153000010
p3376
sg5
VRethinking Responsibility
p3377
sg7
VJOURNAL OF MORAL PHILOSOPHY
p3378
sg9
VMcCormick, Kelly
p3379
sg11
V2016
p3380
sg13
VBook Review
p3381
sa(dp3382
g3
VWOS:000368153000006
p3383
sg5
VThe Continuum Companion to Ethics
p3384
sg7
VJOURNAL OF MORAL PHILOSOPHY
p3385
sg9
VTrofimov, Alexandra
p3386
sg11
V2016
p3387
sg13
VBook Review
p3388
sa(dp3389
g3
VWOS:000365066300006
p3390
sg5
VMoral Entanglements: The Ancillary-Care Obligations of Medical Researchers
p3391
sg7
VJOURNAL OF MORAL PHILOSOPHY
p3392
sg9
VKing, Nancy M. P.
p3393
sg11
V2015
p3394
sg13
VBook Review
p3395
sa(dp3396
g3
VWOS:000357027500010
p3397
sg5
VOxford Studies in Metaethics, vol 7
p3398
sg7
VJOURNAL OF MORAL PHILOSOPHY
p3399
sg9
VBaras, Dan
p3400
sg11
V2015
p3401
sg13
VBook Review
p3402
sa(dp3403
g3
VWOS:000345494500003
p3404
sg5
VMoral Coherence and Principle Pluralism
p3405
sg7
VJOURNAL OF MORAL PHILOSOPHY
p3406
sg9
VMarino, Patricia
p3407
sg11
V2014
p3408
sg13
VArticle
p3409
sa(dp3410
g3
VWOS:000209005300012
p3411
sg5
VCosmopolitan Justice
p3412
sg7
VJOURNAL OF MORAL PHILOSOPHY
p3413
sg9
VHellsten, Sirkku
p3414
sg11
V2005
p3415
sg13
VBook Review
p3416
sa(dp3417
g3
VWOS:000339468100015
p3418
sg5
VDifficult Freedom and Radical Evil in Kant
p3419
sg7
VJOURNAL OF MORAL PHILOSOPHY
p3420
sg9
VCaswell, Matthew
p3421
sg11
V2014
p3422
sg13
VBook Review
p3423
sa(dp3424
g3
VWOS:000328877800004
p3425
sg5
VRehabilitating Theoretical Wisdom
p3426
sg7
VJOURNAL OF MORAL PHILOSOPHY
p3427
sg9
VWalker, Matthew D.
p3428
sg11
V2013
p3429
sg13
VArticle
p3430
sa(dp3431
g3
VWOS:000316921800008
p3432
sg5
VMoral Emotions and Intuitions
p3433
sg7
VJOURNAL OF MORAL PHILOSOPHY
p3434
sg9
VJordan, Jessy E. G.
p3435
sg11
V2013
p3436
sg13
VBook Review
p3437
sa(dp3438
g3
VWOS:000315127800010
p3439
sg5
VKilling In War
p3440
sg7
VJOURNAL OF MORAL PHILOSOPHY
p3441
sg9
VFrowe, Helen
p3442
sg11
V2013
p3443
sg13
VBook Review
p3444
sa(dp3445
g3
VWOS:000315127800004
p3446
sg5
VDoes Direct Moral Judgment Have a Phenomenal Essence?
p3447
sg7
VJOURNAL OF MORAL PHILOSOPHY
p3448
sg9
VGlasgow, Joshua
p3449
sg11
V2013
p3450
sg13
VArticle
p3451
sa(dp3452
g3
VWOS:000207935100009
p3453
sg5
VFuture People
p3454
sg7
VJOURNAL OF MORAL PHILOSOPHY
p3455
sg9
VAttas, Daniel
p3456
sg11
V2009
p3457
sg13
VBook Review
p3458
sa(dp3459
g3
VWOS:000290935200003
p3460
sg5
VShame, Guilt and Morality
p3461
sg7
VJOURNAL OF MORAL PHILOSOPHY
p3462
sg9
VTeroni, Fabrice
p3463
sg11
V2011
p3464
sg13
VArticle
p3465
sa(dp3466
g3
VWOS:000290914100003
p3467
sg5
VSubstantively Constrained Choice and Deference
p3468
sg7
VJOURNAL OF MORAL PHILOSOPHY
p3469
sg9
VHolroyd, Jules
p3470
sg11
V2010
p3471
sg13
VArticle
p3472
sa(dp3473
g3
VWOS:000207935400009
p3474
sg5
VReasons and the Good
p3475
sg7
VJOURNAL OF MORAL PHILOSOPHY
p3476
sg9
VRawlings, Adam
p3477
sg11
V2009
p3478
sg13
VBook Review
p3479
sa(dp3480
g3
VWOS:000207935400003
p3481
sg5
VDeontological Restrictions and the Good/Bad Asymmetry
p3482
sg7
VJOURNAL OF MORAL PHILOSOPHY
p3483
sg9
VAlm, David
p3484
sg11
V2009
p3485
sg13
VArticle
p3486
sa(dp3487
g3
VWOS:000209005600010
p3488
sg5
VPlato and Aristotle's Ethics
p3489
sg7
VJOURNAL OF MORAL PHILOSOPHY
p3490
sg9
VEvans, Matthew
p3491
sg11
V2006
p3492
sg13
VBook Review
p3493
sa(dp3494
g3
VWOS:000209005300002
p3495
sg5
VSocial Justice, Voluntarism, and Liberal Nationalism
p3496
sg7
VJOURNAL OF MORAL PHILOSOPHY
p3497
sg9
VGreen, Michael
p3498
sg11
V2005
p3499
sg13
VArticle
p3500
sa(dp3501
g3
VWOS:000209005100002
p3502
sg5
VGood but Not Required? - Assessing the Demands of Kantian Ethics
p3503
sg7
VJOURNAL OF MORAL PHILOSOPHY
p3504
sg9
VTimmermann, Jens
p3505
sg11
V2005
p3506
sg13
VArticle
p3507
sa(dp3508
g3
VWOS:000414571300003
p3509
sg5
VSocial Equality and the Global Society
p3510
sg7
VJOURNAL OF MORAL PHILOSOPHY
p3511
sg9
VCloarec, Pierre
p3512
sg11
V2017
p3513
sg13
VArticle
p3514
sa(dp3515
g3
VWOS:000404072400002
p3516
sg5
VFortune and Fairness in Global Economic Life
p3517
sg7
VJOURNAL OF MORAL PHILOSOPHY
p3518
sg9
VJames, Aaron
p3519
sg11
V2017
p3520
sg13
VArticle
p3521
sa(dp3522
g3
VWOS:000395812200009
p3523
sg5
VVirtues and Their Vices
p3524
sg7
VJOURNAL OF MORAL PHILOSOPHY
p3525
sg9
VWest, Ryan
p3526
sg11
V2017
p3527
sg13
VBook Review
p3528
sa(dp3529
g3
VWOS:000395812200012
p3530
sg5
VConsequentialism and Environmental Ethics
p3531
sg7
VJOURNAL OF MORAL PHILOSOPHY
p3532
sg9
VStephens, Piers H. G.
p3533
sg11
V2017
p3534
sg13
VBook Review
p3535
sa(dp3536
g3
VWOS:000368153000001
p3537
sg5
VClimate Change and Free Riding
p3538
sg7
VJOURNAL OF MORAL PHILOSOPHY
p3539
sg9
VVanderheiden, Steve
p3540
sg11
V2016
p3541
sg13
VArticle
p3542
sa(dp3543
g3
VWOS:000359477900005
p3544
sg5
VThe Costs of Transitivity: Thoughts on Larry Temkin's Rethinking the Good
p3545
sg7
VJOURNAL OF MORAL PHILOSOPHY
p3546
sg9
VKagan, Shelly
p3547
sg11
V2015
p3548
sg13
VArticle
p3549
sa(dp3550
g3
VWOS:000357027500008
p3551
sg5
VDemocratic Authority and the Separation of Church and State
p3552
sg7
VJOURNAL OF MORAL PHILOSOPHY
p3553
sg9
VKilcullen, John
p3554
sg11
V2015
p3555
sg13
VBook Review
p3556
sa(dp3557
g3
VWOS:000357027500007
p3558
sg5
VPeter Singer and Christian Ethics: Beyond Polarization
p3559
sg7
VJOURNAL OF MORAL PHILOSOPHY
p3560
sg9
VSaunders, Leland F.
p3561
sg11
V2015
p3562
sg13
VBook Review
p3563
sa(dp3564
g3
VWOS:000352334200002
p3565
sg5
VCapabilities versus Resources
p3566
sg7
VJOURNAL OF MORAL PHILOSOPHY
p3567
sg9
VKelleher, J. Paul
p3568
sg11
V2015
p3569
sg13
VArticle
p3570
sa(dp3571
g3
VWOS:000209005200012
p3572
sg5
VIdeology: A Very Short Introduction
p3573
sg7
VJOURNAL OF MORAL PHILOSOPHY
p3574
sg9
VSandry, Alan
p3575
sg11
V2005
p3576
sg13
VBook Review
p3577
sa(dp3578
g3
VWOS:000209005200006
p3579
sg5
VIs Multiculturalism Bad for Women?
p3580
sg7
VJOURNAL OF MORAL PHILOSOPHY
p3581
sg9
VMookherjee, Monica
p3582
sg11
V2005
p3583
sg13
VBook Review
p3584
sa(dp3585
g3
VWOS:000325041300005
p3586
sg5
VReasons Consequentialism
p3587
sg7
VJOURNAL OF MORAL PHILOSOPHY
p3588
sg9
VSachs, Benjamin
p3589
sg11
V2013
p3590
sg13
VReview
p3591
sa(dp3592
g3
VWOS:000322682000016
p3593
sg5
VWhat is a Person? Rethinking Humanity, Social Life, and the Moral Good from the Person Up
p3594
sg7
VJOURNAL OF MORAL PHILOSOPHY
p3595
sg9
VKadlac, Adam
p3596
sg11
V2013
p3597
sg13
VBook Review
p3598
sa(dp3599
g3
VWOS:000322682000009
p3600
sg5
VScanlon on Responsibility and the Value of Choice Reply
p3601
sg7
VJOURNAL OF MORAL PHILOSOPHY
p3602
sg9
VScanlon, T. M.
p3603
sg11
V2013
p3604
sg13
VEditorial Material
p3605
sa(dp3606
g3
VWOS:000310046700011
p3607
sg5
VTerrorism and the Ethics of War
p3608
sg7
VJOURNAL OF MORAL PHILOSOPHY
p3609
sg9
VEisikovits, Nir
p3610
sg11
V2012
p3611
sg13
VBook Review
p3612
sa(dp3613
g3
VWOS:000300545600011
p3614
sg5
VThe Ethics of Torture
p3615
sg7
VJOURNAL OF MORAL PHILOSOPHY
p3616
sg9
VWolfendale, Jessica
p3617
sg11
V2012
p3618
sg13
VBook Review
p3619
sa(dp3620
g3
VWOS:000300545600003
p3621
sg5
VShould the Best Qualified Be Appointed?
p3622
sg7
VJOURNAL OF MORAL PHILOSOPHY
p3623
sg9
VSegall, Shlomi
p3624
sg11
V2012
p3625
sg13
VArticle
p3626
sa(dp3627
g3
VWOS:000207935100008
p3628
sg5
VMacIntyre's Progress
p3629
sg7
VJOURNAL OF MORAL PHILOSOPHY
p3630
sg9
VKnight, Kelvin
p3631
sg11
V2009
p3632
sg13
VReview
p3633
sa(dp3634
g3
VWOS:000290935200007
p3635
sg5
VThe Development of Ethics: A Historical and Critical Study. Volume III: From Kant to Rawls
p3636
sg7
VJOURNAL OF MORAL PHILOSOPHY
p3637
sg9
VStern, Robert
p3638
sg11
V2011
p3639
sg13
VBook Review
p3640
sa(dp3641
g3
VWOS:000290913600006
p3642
sg5
VFrom 'Convention' to 'Ethical Life': Hume's Theory of Justice in Post-Kantian Perspective
p3643
sg7
VJOURNAL OF MORAL PHILOSOPHY
p3644
sg9
VWestphal, Kenneth R.
p3645
sg11
V2010
p3646
sg13
VArticle
p3647
sa(dp3648
g3
VWOS:000207935300006
p3649
sg5
VThe Autonomy of Morality and the Morality of Autonomy
p3650
sg7
VJOURNAL OF MORAL PHILOSOPHY
p3651
sg9
VStern, Robert
p3652
sg11
V2009
p3653
sg13
VReview
p3654
sa(dp3655
g3
VWOS:000290934600005
p3656
sg5
VThe Limits of the Explanatory Power of Developmentalism
p3657
sg7
VJOURNAL OF MORAL PHILOSOPHY
p3658
sg9
VSobel, David
p3659
sg11
V2010
p3660
sg13
VReview
p3661
sa(dp3662
g3
VWOS:000209005400016
p3663
sg5
VWeighing Lives
p3664
sg7
VJOURNAL OF MORAL PHILOSOPHY
p3665
sg9
VHoltug, Nils
p3666
sg11
V2006
p3667
sg13
VBook Review
p3668
sa(dp3669
g3
VWOS:000209005600006
p3670
sg5
VThe Fitting, the Deserving, and the Beautiful
p3671
sg7
VJOURNAL OF MORAL PHILOSOPHY
p3672
sg9
VZaibert, Leo
p3673
sg11
V2006
p3674
sg13
VArticle
p3675
sa(dp3676
g3
VWOS:000209005600003
p3677
sg5
VState Denunciation of Crime
p3678
sg7
VJOURNAL OF MORAL PHILOSOPHY
p3679
sg9
VBennett, Christopher
p3680
sg11
V2006
p3681
sg13
VArticle
p3682
sa(dp3683
g3
VWOS:000209005300007
p3684
sg5
VThe Law of Peoples: The Old and the New
p3685
sg7
VJOURNAL OF MORAL PHILOSOPHY
p3686
sg9
VNaticchia, Chris
p3687
sg11
V2005
p3688
sg13
VArticle
p3689
sa(dp3690
g3
VWOS:000447673800002
p3691
sg5
VDisaster and Debate
p3692
sg7
VJOURNAL OF MORAL PHILOSOPHY
p3693
sg9
VCouto, Alexandra
p3694
sg11
V2018
p3695
sg13
VArticle
p3696
sa(dp3697
g3
VWOS:000447673800010
p3698
sg5
VMoral Responsibility and Desert of Praise and Blame
p3699
sg7
VJOURNAL OF MORAL PHILOSOPHY
p3700
sg9
VBeglin, David
p3701
sg11
V2018
p3702
sg13
VBook Review
p3703
sa(dp3704
g3
VWOS:000447673800012
p3705
sg5
VWar and Individual Rights: The Foundations of Just War Theory
p3706
sg7
VJOURNAL OF MORAL PHILOSOPHY
p3707
sg9
VShaw, William H.
p3708
sg11
V2018
p3709
sg13
VBook Review
p3710
sa(dp3711
g3
VWOS:000430274300005
p3712
sg5
VMoral Philosophy in Practice & Theory: An Introduction
p3713
sg7
VJOURNAL OF MORAL PHILOSOPHY
p3714
sg9
VDombrowski, Daniel
p3715
sg11
V2018
p3716
sg13
VBook Review
p3717
sa(dp3718
g3
VWOS:000395812200007
p3719
sg5
VModern Honor: A Philosophical Defense
p3720
sg7
VJOURNAL OF MORAL PHILOSOPHY
p3721
sg9
VDemetriou, Dan
p3722
sg11
V2017
p3723
sg13
VBook Review
p3724
sa(dp3725
g3
VWOS:000395812200005
p3726
sg5
VBootstrapping the Afterlife
p3727
sg7
VJOURNAL OF MORAL PHILOSOPHY
p3728
sg9
VAltshuler, Roman
p3729
sg11
V2017
p3730
sg13
VArticle
p3731
sa(dp3732
g3
VWOS:000395810400003
p3733
sg5
VWhy Moral Error Theorists Should Become Revisionary Moral Expressivists
p3734
sg7
VJOURNAL OF MORAL PHILOSOPHY
p3735
sg9
VSvoboda, Toby
p3736
sg11
V2017
p3737
sg13
VArticle
p3738
sa(dp3739
g3
VWOS:000385476500007
p3740
sg5
VIntuitionism
p3741
sg7
VJOURNAL OF MORAL PHILOSOPHY
p3742
sg9
VSzutta, Artur
p3743
sg11
V2016
p3744
sg13
VBook Review
p3745
sa(dp3746
g3
VWOS:000361467400004
p3747
sg5
VHuman Rights, the State, and Recognition
p3748
sg7
VJOURNAL OF MORAL PHILOSOPHY
p3749
sg9
VHann, Matt
p3750
sg11
V2015
p3751
sg13
VReview
p3752
sa(dp3753
g3
VWOS:000359477900007
p3754
sg5
VIs Our Group An Agent? Do We Want It To Be?
p3755
sg7
VJOURNAL OF MORAL PHILOSOPHY
p3756
sg9
VJensen, Mark N.
p3757
sg11
V2015
p3758
sg13
VReview
p3759
sa(dp3760
g3
VWOS:000357027500004
p3761
sg5
VWhy Old Things Matter
p3762
sg7
VJOURNAL OF MORAL PHILOSOPHY
p3763
sg9
VJames, Simon P.
p3764
sg11
V2015
p3765
sg13
VArticle
p3766
sa(dp3767
g3
VWOS:000342601900010
p3768
sg5
VPunishment and the Moral Emotions: Essays in Law, Morality, and Religion
p3769
sg7
VJOURNAL OF MORAL PHILOSOPHY
p3770
sg9
VHolmgren, Margaret R.
p3771
sg11
V2014
p3772
sg13
VBook Review
p3773
sa(dp3774
g3
VWOS:000342601900001
p3775
sg5
VImperfect Duties, Group Obligations, and Beneficence
p3776
sg7
VJOURNAL OF MORAL PHILOSOPHY
p3777
sg9
VSchroeder, S. Andrew
p3778
sg11
V2014
p3779
sg13
VArticle
p3780
sa(dp3781
g3
VWOS:000339468100014
p3782
sg5
VProperty-Owning Democracy: Rawls and Beyond
p3783
sg7
VJOURNAL OF MORAL PHILOSOPHY
p3784
sg9
VFox, Carl
p3785
sg11
V2014
p3786
sg13
VBook Review
p3787
sa(dp3788
g3
VWOS:000339468100006
p3789
sg5
VWar for the Wrong Reasons Lessons from Law
p3790
sg7
VJOURNAL OF MORAL PHILOSOPHY
p3791
sg9
VBlum, Gabriella
p3792
sg11
V2014
p3793
sg13
VArticle
p3794
sa(dp3795
g3
VWOS:000331239700003
p3796
sg5
VUnconsidered Intentional Actions An Assessment of Scaife and Webber's 'Consideration Hypothesis'
p3797
sg7
VJOURNAL OF MORAL PHILOSOPHY
p3798
sg9
VCova, Florian
p3799
sg11
V2014
p3800
sg13
VArticle
p3801
sa(dp3802
g3
VWOS:000325041300007
p3803
sg5
VLove's Vision
p3804
sg7
VJOURNAL OF MORAL PHILOSOPHY
p3805
sg9
VMoller, Dan
p3806
sg11
V2013
p3807
sg13
VBook Review
p3808
sa(dp3809
g3
VWOS:000325041300006
p3810
sg5
VPractical Reason in Law and Morality
p3811
sg7
VJOURNAL OF MORAL PHILOSOPHY
p3812
sg9
VSaffie, Francisco
p3813
sg11
V2013
p3814
sg13
VBook Review
p3815
sa(dp3816
g3
VWOS:000316921800012
p3817
sg5
VHuman Dignity
p3818
sg7
VJOURNAL OF MORAL PHILOSOPHY
p3819
sg9
VNavin, Mark
p3820
sg11
V2013
p3821
sg13
VBook Review
p3822
sa(dp3823
g3
VWOS:000316921800010
p3824
sg5
VCausation and Responsibility: An Essay in Law, Morals, and Metaphysics
p3825
sg7
VJOURNAL OF MORAL PHILOSOPHY
p3826
sg9
VGraham, Peter A.
p3827
sg11
V2013
p3828
sg13
VBook Review
p3829
sa(dp3830
g3
VWOS:000297812300002
p3831
sg5
VKilling in War and Moral Equality
p3832
sg7
VJOURNAL OF MORAL PHILOSOPHY
p3833
sg9
VShalom, Stephen R.
p3834
sg11
V2011
p3835
sg13
VArticle
p3836
sa(dp3837
g3
VWOS:000297812300001
p3838
sg5
VUntitled
p3839
sg7
VJOURNAL OF MORAL PHILOSOPHY
p3840
sg9
VBrooks, Thom
p3841
sg11
V2011
p3842
sg13
VEditorial Material
p3843
sa(dp3844
g3
VWOS:000297812300003
p3845
sg5
VThe Permissibility of Aiding and Abetting Unjust Wars
p3846
sg7
VJOURNAL OF MORAL PHILOSOPHY
p3847
sg9
VBazargan, Saba
p3848
sg11
V2011
p3849
sg13
VArticle
p3850
sa(dp3851
g3
VWOS:000207935200007
p3852
sg5
VTaking the Highway on Skepticism, Luck, and the Value of Responsibility
p3853
sg7
VJOURNAL OF MORAL PHILOSOPHY
p3854
sg9
VVargas, Manuel
p3855
sg11
V2009
p3856
sg13
VReview
p3857
sa(dp3858
g3
VWOS:000207935200001
p3859
sg5
VMoral Vegetarianism from a Very Broad Basis
p3860
sg7
VJOURNAL OF MORAL PHILOSOPHY
p3861
sg9
VDeGrazia, David
p3862
sg11
V2009
p3863
sg13
VArticle
p3864
sa(dp3865
g3
VWOS:000290913600001
p3866
sg5
VTrivial Sacrifices, Great Demands
p3867
sg7
VJOURNAL OF MORAL PHILOSOPHY
p3868
sg9
VSin, William
p3869
sg11
V2010
p3870
sg13
VArticle
p3871
sa(dp3872
g3
VWOS:000290934600002
p3873
sg5
VOn the Non-instrumental Value of Basic Rights
p3874
sg7
VJOURNAL OF MORAL PHILOSOPHY
p3875
sg9
VCruft, Rowan
p3876
sg11
V2010
p3877
sg13
VArticle
p3878
sa(dp3879
g3
VWOS:000209005500001
p3880
sg5
VPolitical Liberalism and Political Compliance: Part 2 of The Problem of Political Compliance in Rawls's Theories of Justice
p3881
sg7
VJOURNAL OF MORAL PHILOSOPHY
p3882
sg9
VCarter, Alan
p3883
sg11
V2006
p3884
sg13
VArticle
p3885
sa(dp3886
g3
VWOS:000447673300009
p3887
sg5
VLuck Egalitarianism
p3888
sg7
VJOURNAL OF MORAL PHILOSOPHY
p3889
sg9
VFloris, Giacomo
p3890
sg11
V2018
p3891
sg13
VBook Review
p3892
sa(dp3893
g3
VWOS:000447673300007
p3894
sg5
VEngaging Political Philosophy: An Introduction
p3895
sg7
VJOURNAL OF MORAL PHILOSOPHY
p3896
sg9
VRiker, Walter
p3897
sg11
V2018
p3898
sg13
VBook Review
p3899
sa(dp3900
g3
VWOS:000435862700010
p3901
sg5
VGod's Command
p3902
sg7
VJOURNAL OF MORAL PHILOSOPHY
p3903
sg9
VBaggett, David
p3904
sg11
V2018
p3905
sg13
VBook Review
p3906
sa(dp3907
g3
VWOS:000414571300007
p3908
sg5
VAchievement
p3909
sg7
VJOURNAL OF MORAL PHILOSOPHY
p3910
sg9
VChen, Jason
p3911
sg11
V2017
p3912
sg13
VBook Review
p3913
sa(dp3914
g3
VWOS:000409208800001
p3915
sg5
VWhat Kind of Is-Ought Gap is There and What Kind Ought There Be?
p3916
sg7
VJOURNAL OF MORAL PHILOSOPHY
p3917
sg9
VMagnus, P. D.
p3918
sg11
V2017
p3919
sg13
VArticle
p3920
sa(dp3921
g3
VWOS:000404072400003
p3922
sg5
VSeat Belt Mandates and Paternalism
p3923
sg7
VJOURNAL OF MORAL PHILOSOPHY
p3924
sg9
VFlanigan, Jessica
p3925
sg11
V2017
p3926
sg13
VArticle
p3927
sa(dp3928
g3
VWOS:000361467400006
p3929
sg5
VOn Reflection
p3930
sg7
VJOURNAL OF MORAL PHILOSOPHY
p3931
sg9
VTweedt, Chris
p3932
sg11
V2015
p3933
sg13
VBook Review
p3934
sa(dp3935
g3
VWOS:000361467400003
p3936
sg5
VAutonomy and Orthonomy
p3937
sg7
VJOURNAL OF MORAL PHILOSOPHY
p3938
sg9
VO'Shea, Tom
p3939
sg11
V2015
p3940
sg13
VArticle
p3941
sa(dp3942
g3
VWOS:000348280700009
p3943
sg5
VOn Privacy
p3944
sg7
VJOURNAL OF MORAL PHILOSOPHY
p3945
sg9
VSonderholm, Jorn
p3946
sg11
V2015
p3947
sg13
VBook Review
p3948
sa(dp3949
g3
VWOS:000209005500007
p3950
sg5
VEthics without Ontology
p3951
sg7
VJOURNAL OF MORAL PHILOSOPHY
p3952
sg9
VHookway, Christopher
p3953
sg11
V2006
p3954
sg13
VBook Review
p3955
sa(dp3956
g3
VWOS:000209005100011
p3957
sg5
VPerfectionism and the Common Good: Themes in the Philosophy of T. H. Green
p3958
sg7
VJOURNAL OF MORAL PHILOSOPHY
p3959
sg9
VVincent, Andrew
p3960
sg11
V2005
p3961
sg13
VBook Review
p3962
sa(dp3963
g3
VWOS:000339468100012
p3964
sg5
VSelf-Improvement: An Essay in Kantian Ethics
p3965
sg7
VJOURNAL OF MORAL PHILOSOPHY
p3966
sg9
VMitchell-Yellin, Benjamin
p3967
sg11
V2014
p3968
sg13
VBook Review
p3969
sa(dp3970
g3
VWOS:000339468100013
p3971
sg5
VThe Cambridge Companion to Nozick's Anarchy, State, and Utopia
p3972
sg7
VJOURNAL OF MORAL PHILOSOPHY
p3973
sg9
VFitzgerald, John
p3974
sg11
V2014
p3975
sg13
VBook Review
p3976
sa(dp3977
g3
VWOS:000335937600008
p3978
sg5
VMoral Responsibility in Collective Contexts
p3979
sg7
VJOURNAL OF MORAL PHILOSOPHY
p3980
sg9
VJeske, Diane
p3981
sg11
V2014
p3982
sg13
VBook Review
p3983
sa(dp3984
g3
VWOS:000335937600002
p3985
sg5
VCounterfactual Situations and Moral Worth
p3986
sg7
VJOURNAL OF MORAL PHILOSOPHY
p3987
sg9
VSorensen, Kelly
p3988
sg11
V2014
p3989
sg13
VArticle
p3990
sa(dp3991
g3
VWOS:000331239700008
p3992
sg5
VUltimate Normative Foundations: The Case for Aquinas's Personalist Natural Law
p3993
sg7
VJOURNAL OF MORAL PHILOSOPHY
p3994
sg9
VGallagher, Daniel B.
p3995
sg11
V2014
p3996
sg13
VBook Review
p3997
sa(dp3998
g3
VWOS:000328877800007
p3999
sg5
VShould Race Matter? Unusual Answers to the Usual Questions
p4000
sg7
VJOURNAL OF MORAL PHILOSOPHY
p4001
sg9
VSimkulet, William
p4002
sg11
V2013
p4003
sg13
VBook Review
p4004
sa(dp4005
g3
VWOS:000322682000017
p4006
sg5
VBraintrust: What Neuroscience Tells Us about Morality
p4007
sg7
VJOURNAL OF MORAL PHILOSOPHY
p4008
sg9
VJames, Scott M.
p4009
sg11
V2013
p4010
sg13
VBook Review
p4011
sa(dp4012
g3
VWOS:000322682000008
p4013
sg5
VScanlon on Responsibility and the Value of Choice
p4014
sg7
VJOURNAL OF MORAL PHILOSOPHY
p4015
sg9
VOlsaretti, Serena
p4016
sg11
V2013
p4017
sg13
VArticle
p4018
sa(dp4019
g3
VWOS:000322682000003
p4020
sg5
VRights and What We Owe to Each Other Reply
p4021
sg7
VJOURNAL OF MORAL PHILOSOPHY
p4022
sg9
VScanlon, T. M.
p4023
sg11
V2013
p4024
sg13
VEditorial Material
p4025
sa(dp4026
g3
VWOS:000316921800006
p4027
sg5
VDeath and Mortality in Contemporary Philosophy
p4028
sg7
VJOURNAL OF MORAL PHILOSOPHY
p4029
sg9
VHine, Kristen
p4030
sg11
V2013
p4031
sg13
VBook Review
p4032
sa(dp4033
g3
VWOS:000310046700007
p4034
sg5
VWhat is This Thing Called Ethics?
p4035
sg7
VJOURNAL OF MORAL PHILOSOPHY
p4036
sg9
VKawall, Jason
p4037
sg11
V2012
p4038
sg13
VBook Review
p4039
sa(dp4040
g3
VWOS:000310046700002
p4041
sg5
VReasons, Answers, and Goals
p4042
sg7
VJOURNAL OF MORAL PHILOSOPHY
p4043
sg9
VTurri, John
p4044
sg11
V2012
p4045
sg13
VArticle
p4046
sa(dp4047
g3
VWOS:000300545600009
p4048
sg5
VMoral Sentimentalism
p4049
sg7
VJOURNAL OF MORAL PHILOSOPHY
p4050
sg9
VSuzuki, Makoto
p4051
sg11
V2012
p4052
sg13
VBook Review
p4053
sa(dp4054
g3
VWOS:000296865300009
p4055
sg5
VThe Virtues (and a Few Vices) of Daniel Russell's Practical Intelligence and the Virtues
p4056
sg7
VJOURNAL OF MORAL PHILOSOPHY
p4057
sg9
VToner, Christopher
p4058
sg11
V2011
p4059
sg13
VReview
p4060
sa(dp4061
g3
VWOS:000296865300002
p4062
sg5
VThe Global Fund: A Reply to Casal
p4063
sg7
VJOURNAL OF MORAL PHILOSOPHY
p4064
sg9
VSteiner, Hillel
p4065
sg11
V2011
p4066
sg13
VArticle
p4067
sa(dp4068
g3
VWOS:000290935200006
p4069
sg5
VContract, Culture, and Citizenship: Transformative Liberalism from Hobbes to Rawls
p4070
sg7
VJOURNAL OF MORAL PHILOSOPHY
p4071
sg9
VO'Connor, Brian
p4072
sg11
V2011
p4073
sg13
VBook Review
p4074
sa(dp4075
g3
VWOS:000290935200004
p4076
sg5
VIs There a Right to Polygamy? Marriage, Equality and Subsidizing Families in Liberal Public Justification
p4077
sg7
VJOURNAL OF MORAL PHILOSOPHY
p4078
sg9
VMarch, Andrew F.
p4079
sg11
V2011
p4080
sg13
VArticle
p4081
sa(dp4082
g3
VWOS:000424088200010
p4083
sg5
VSparing Civilians
p4084
sg7
VJOURNAL OF MORAL PHILOSOPHY
p4085
sg9
VHecht, Lisa
p4086
sg11
V2018
p4087
sg13
VBook Review
p4088
sa(dp4089
g3
VWOS:000417692900012
p4090
sg5
VSpeech and Morality: On the Metaethical Implications of Speaking
p4091
sg7
VJOURNAL OF MORAL PHILOSOPHY
p4092
sg9
VLaskowski, Nicholas
p4093
sg11
V2017
p4094
sg13
VBook Review
p4095
sa(dp4096
g3
VWOS:000417692900005
p4097
sg5
VDoes Situationism Threaten Free Will and Moral Responsibility?
p4098
sg7
VJOURNAL OF MORAL PHILOSOPHY
p4099
sg9
VMcKenna, Michael
p4100
sg11
V2017
p4101
sg13
VArticle
p4102
sa(dp4103
g3
VWOS:000417692900006
p4104
sg5
VTeach the Children Well On Virtue and its Benefits
p4105
sg7
VJOURNAL OF MORAL PHILOSOPHY
p4106
sg9
VMason, Michelle
p4107
sg11
V2017
p4108
sg13
VArticle
p4109
sa(dp4110
g3
VWOS:000395812200003
p4111
sg5
VPolitical Liberalism and Political Community
p4112
sg7
VJOURNAL OF MORAL PHILOSOPHY
p4113
sg9
VLeland, R. J.
p4114
sg11
V2017
p4115
sg13
VArticle
p4116
sa(dp4117
g3
VWOS:000395812200008
p4118
sg5
VMoral Tribes: Emotion, Reason, and the Gap between Us and Them
p4119
sg7
VJOURNAL OF MORAL PHILOSOPHY
p4120
sg9
VRosenqvist, Simon
p4121
sg11
V2017
p4122
sg13
VBook Review
p4123
sa(dp4124
g3
VWOS:000378815700005
p4125
sg5
VOn the Defensibility and Believability of Moral Error Theory
p4126
sg7
VJOURNAL OF MORAL PHILOSOPHY
p4127
sg9
VOlson, Jonas
p4128
sg11
V2016
p4129
sg13
VArticle
p4130
sa(dp4131
g3
VWOS:000376431800005
p4132
sg5
VConstructing a Good Life
p4133
sg7
VJOURNAL OF MORAL PHILOSOPHY
p4134
sg9
VLott, Micah
p4135
sg11
V2016
p4136
sg13
VReview
p4137
sa(dp4138
g3
VWOS:000365066300005
p4139
sg5
VWell-Being Thresholds and Moral Priority
p4140
sg7
VJOURNAL OF MORAL PHILOSOPHY
p4141
sg9
VAdler, Matthew D.
p4142
sg11
V2015
p4143
sg13
VReview
p4144
sa(dp4145
g3
VWOS:000357027500003
p4146
sg5
VFairness, Political Obligation, and the Justificatory Gap
p4147
sg7
VJOURNAL OF MORAL PHILOSOPHY
p4148
sg9
VZhu, Jiafeng
p4149
sg11
V2015
p4150
sg13
VArticle
p4151
sa(dp4152
g3
VWOS:000209005300010
p4153
sg5
VThe Ethics of Development
p4154
sg7
VJOURNAL OF MORAL PHILOSOPHY
p4155
sg9
VHellsten, Sirkku
p4156
sg11
V2005
p4157
sg13
VBook Review
p4158
sa(dp4159
g3
VWOS:000335937600003
p4160
sg5
VThe Education of Amour-Propre
p4161
sg7
VJOURNAL OF MORAL PHILOSOPHY
p4162
sg9
VLandrum, Ty
p4163
sg11
V2014
p4164
sg13
VArticle
p4165
sa(dp4166
g3
VWOS:000334142500008
p4167
sg5
VKant's Theory of Virtue: The Value of Autocracy
p4168
sg7
VJOURNAL OF MORAL PHILOSOPHY
p4169
sg9
VMahon, James Edwin
p4170
sg11
V2014
p4171
sg13
VBook Review
p4172
sa(dp4173
g3
VWOS:000334142500009
p4174
sg5
VGlobal Justice & Avant-Garde Political Agency
p4175
sg7
VJOURNAL OF MORAL PHILOSOPHY
p4176
sg9
VDelmas, Candice
p4177
sg11
V2014
p4178
sg13
VBook Review
p4179
sa(dp4180
g3
VWOS:000328877800009
p4181
sg5
VUnderivative Duty: British Moral Philosophers from Sidgwick to Ewing
p4182
sg7
VJOURNAL OF MORAL PHILOSOPHY
p4183
sg9
VKaspar, David
p4184
sg11
V2013
p4185
sg13
VBook Review
p4186
sa(dp4187
g3
VWOS:000322682000014
p4188
sg5
VThe Arc of the Moral Universe and Other Essays
p4189
sg7
VJOURNAL OF MORAL PHILOSOPHY
p4190
sg9
VTomalty, Jesse Anne
p4191
sg11
V2013
p4192
sg13
VBook Review
p4193
sa(dp4194
g3
VWOS:000319853400005
p4195
sg5
V"May You Live in Interesting Times": Moral Philosophy and Empirical Psychology
p4196
sg7
VJOURNAL OF MORAL PHILOSOPHY
p4197
sg9
VSnow, Nancy E.
p4198
sg11
V2013
p4199
sg13
VReview
p4200
sa(dp4201
g3
VWOS:000319853400001
p4202
sg5
VNormative Consent and Authority
p4203
sg7
VJOURNAL OF MORAL PHILOSOPHY
p4204
sg9
VKoltonski, Daniel
p4205
sg11
V2013
p4206
sg13
VArticle
p4207
sa(dp4208
g3
VWOS:000315127800007
p4209
sg5
VProcreation and Parenthood: The Ethics of Bearing and Rearing Children
p4210
sg7
VJOURNAL OF MORAL PHILOSOPHY
p4211
sg9
VBelshaw, Christopher
p4212
sg11
V2013
p4213
sg13
VBook Review
p4214
sa(dp4215
g3
VWOS:000307243600011
p4216
sg5
VReasons from Within: Desires and Values
p4217
sg7
VJOURNAL OF MORAL PHILOSOPHY
p4218
sg9
VOddie, Graham
p4219
sg11
V2012
p4220
sg13
VBook Review
p4221
sa(dp4222
g3
VWOS:000307243600005
p4223
sg5
VThe Lockean 'Enough-and-as-Good' Proviso: An Internal Critique
p4224
sg7
VJOURNAL OF MORAL PHILOSOPHY
p4225
sg9
VVarden, Helga
p4226
sg11
V2012
p4227
sg13
VArticle
p4228
sa(dp4229
g3
VWOS:000307243600001
p4230
sg5
VThe Academic Journal Editor-Secrets Revealed
p4231
sg7
VJOURNAL OF MORAL PHILOSOPHY
p4232
sg9
VBrooks, Thom
p4233
sg11
V2012
p4234
sg13
VEditorial Material
p4235
sa(dp4236
g3
VWOS:000290934300009
p4237
sg5
VThe Second-Person Standpoint: Morality, Respect, and Accountability
p4238
sg7
VJOURNAL OF MORAL PHILOSOPHY
p4239
sg9
VSussman, David
p4240
sg11
V2010
p4241
sg13
VBook Review
p4242
sa(dp4243
g3
VWOS:000290913600002
p4244
sg5
VWhat is Objectification?
p4245
sg7
VJOURNAL OF MORAL PHILOSOPHY
p4246
sg9
VPapadaki, Lina
p4247
sg11
V2010
p4248
sg13
VArticle
p4249
sa(dp4250
g3
VWOS:000290934600006
p4251
sg5
VMoral Dimensions: Meaning, Permissibility and Blame
p4252
sg7
VJOURNAL OF MORAL PHILOSOPHY
p4253
sg9
VRieder, Travis N.
p4254
sg11
V2010
p4255
sg13
VBook Review
p4256
sa(dp4257
g3
VWOS:000209005400002
p4258
sg5
VRawls's Practical Conception of Justice: Opinion, Tradition and Objectivity in Political Liberalism
p4259
sg7
VJOURNAL OF MORAL PHILOSOPHY
p4260
sg9
VKaufman, Alexander
p4261
sg11
V2006
p4262
sg13
VArticle
p4263
sa(dp4264
g3
VWOS:000209005100013
p4265
sg5
VBodies for Sale: Ethics and Exploitation in the Human Body Trade
p4266
sg7
VJOURNAL OF MORAL PHILOSOPHY
p4267
sg9
VBrowton, Hugh
p4268
sg11
V2005
p4269
sg13
VBook Review
p4270
sa(dp4271
g3
VWOS:000209005200004
p4272
sg5
VHistories, Logics and Politics: An Interview with Mark Bevir
p4273
sg7
VJOURNAL OF MORAL PHILOSOPHY
p4274
sg9
VStow, Simon
p4275
sg11
V2005
p4276
sg13
VArticle
p4277
sa(dp4278
g3
VWOS:000209005500004
p4279
sg5
VVirtue, Character and Situation
p4280
sg7
VJOURNAL OF MORAL PHILOSOPHY
p4281
sg9
VWebber, Jonathan
p4282
sg11
V2006
p4283
sg13
VArticle
p4284
sa(dp4285
g3
VWOS:000435862700003
p4286
sg5
VThe Duty to Rescue and Randomized Controlled Trials Involving Serious Diseases
p4287
sg7
VJOURNAL OF MORAL PHILOSOPHY
p4288
sg9
VMillum, Joseph
p4289
sg11
V2018
p4290
sg13
VArticle
p4291
sa(dp4292
g3
VWOS:000435862700004
p4293
sg5
VIntertheoretic Value Comparison: A Modest Proposal
p4294
sg7
VJOURNAL OF MORAL PHILOSOPHY
p4295
sg9
VTarsney, Christian
p4296
sg11
V2018
p4297
sg13
VArticle
p4298
sa(dp4299
g3
VWOS:000435862700002
p4300
sg5
VA Good Exit: What to Do about the End of Our Species?
p4301
sg7
VJOURNAL OF MORAL PHILOSOPHY
p4302
sg9
VHandfield, Toby
p4303
sg11
V2018
p4304
sg13
VArticle
p4305
sa(dp4306
g3
VWOS:000430274300011
p4307
sg5
VDefensive Killing
p4308
sg7
VJOURNAL OF MORAL PHILOSOPHY
p4309
sg9
VPhipps, Henry
p4310
sg11
V2018
p4311
sg13
VBook Review
p4312
sa(dp4313
g3
VWOS:000409208800003
p4314
sg5
VValue in Very Long Lives
p4315
sg7
VJOURNAL OF MORAL PHILOSOPHY
p4316
sg9
VGreene, Preston
p4317
sg11
V2017
p4318
sg13
VArticle
p4319
sa(dp4320
g3
VWOS:000389010400013
p4321
sg5
VAuthenticity as an Ethical Ideal
p4322
sg7
VJOURNAL OF MORAL PHILOSOPHY
p4323
sg9
VCarman, Taylor
p4324
sg11
V2016
p4325
sg13
VBook Review
p4326
sa(dp4327
g3
VWOS:000378815700004
p4328
sg5
VIs Irreducible Normativity Impossibly Queer?
p4329
sg7
VJOURNAL OF MORAL PHILOSOPHY
p4330
sg9
VToppinen, Teemu
p4331
sg11
V2016
p4332
sg13
VArticle
p4333
sa(dp4334
g3
VWOS:000378815700002
p4335
sg5
VJonas Olson's Evidence for Moral Error Theory
p4336
sg7
VJOURNAL OF MORAL PHILOSOPHY
p4337
sg9
VEvers, Daan
p4338
sg11
V2016
p4339
sg13
VArticle
p4340
sa(dp4341
g3
VWOS:000372353900004
p4342
sg5
VPreferences' Significance Does Not Depend on Their Content
p4343
sg7
VJOURNAL OF MORAL PHILOSOPHY
p4344
sg9
VWilliams, Evan G.
p4345
sg11
V2016
p4346
sg13
VArticle
p4347
sa(dp4348
g3
VWOS:000361467400005
p4349
sg5
VCreation Ethics
p4350
sg7
VJOURNAL OF MORAL PHILOSOPHY
p4351
sg9
VMcConnell, Terrance
p4352
sg11
V2015
p4353
sg13
VBook Review
p4354
sa(dp4355
g3
VWOS:000348280700004
p4356
sg5
VShapiro's Legality
p4357
sg7
VJOURNAL OF MORAL PHILOSOPHY
p4358
sg9
VBrand, Jeffrey
p4359
sg11
V2015
p4360
sg13
VReview
p4361
sa(dp4362
g3
VWOS:000345494500009
p4363
sg5
VReconceiving Medical Ethics
p4364
sg7
VJOURNAL OF MORAL PHILOSOPHY
p4365
sg9
VMacDougall, D. Robert
p4366
sg11
V2014
p4367
sg13
VBook Review
p4368
sa(dp4369
g3
VWOS:000345494500005
p4370
sg5
VMorality and the Emotions
p4371
sg7
VJOURNAL OF MORAL PHILOSOPHY
p4372
sg9
VPlakias, Alexandra
p4373
sg11
V2014
p4374
sg13
VBook Review
p4375
sa(dp4376
g3
VWOS:000342601900006
p4377
sg5
VEthics for Enemies: Terror, Torture, and War
p4378
sg7
VJOURNAL OF MORAL PHILOSOPHY
p4379
sg9
VWisnewski, J. Jeremy
p4380
sg11
V2014
p4381
sg13
VBook Review
p4382
sa(dp4383
g3
VWOS:000209005100010
p4384
sg5
VProlegomena to Ethics
p4385
sg7
VJOURNAL OF MORAL PHILOSOPHY
p4386
sg9
VVincent, Andrew
p4387
sg11
V2005
p4388
sg13
VBook Review
p4389
sa(dp4390
g3
VWOS:000209005100008
p4391
sg5
VPhilosophies of Race and Ethnicity
p4392
sg7
VJOURNAL OF MORAL PHILOSOPHY
p4393
sg9
VZack, Naomi
p4394
sg11
V2005
p4395
sg13
VBook Review
p4396
sa(dp4397
g3
VWOS:000335937600006
p4398
sg5
VOxford Studies in Metaethics, vol 6
p4399
sg7
VJOURNAL OF MORAL PHILOSOPHY
p4400
sg9
VAtwood, Andrew
p4401
sg11
V2014
p4402
sg13
VBook Review
p4403
sa(dp4404
g3
VWOS:000335937600007
p4405
sg5
VDignity: Its History and Meaning
p4406
sg7
VJOURNAL OF MORAL PHILOSOPHY
p4407
sg9
VParent, William
p4408
sg11
V2014
p4409
sg13
VBook Review
p4410
sa(dp4411
g3
VWOS:000334142500007
p4412
sg5
VOn What Matters, vol 2
p4413
sg7
VJOURNAL OF MORAL PHILOSOPHY
p4414
sg9
VSmith, William
p4415
sg11
V2014
p4416
sg13
VBook Review
p4417
sa(dp4418
g3
VWOS:000328877800001
p4419
sg5
VAssociative Duties and Immigration
p4420
sg7
VJOURNAL OF MORAL PHILOSOPHY
p4421
sg9
VHidalgo, Javier
p4422
sg11
V2013
p4423
sg13
VArticle
p4424
sa(dp4425
g3
VWOS:000325041300010
p4426
sg5
VMoral Epistemology
p4427
sg7
VJOURNAL OF MORAL PHILOSOPHY
p4428
sg9
VWalden, Kenneth
p4429
sg11
V2013
p4430
sg13
VBook Review
p4431
sa(dp4432
g3
VWOS:000322682000019
p4433
sg5
VThe Ethics of Forgiveness: A Collection of Essays
p4434
sg7
VJOURNAL OF MORAL PHILOSOPHY
p4435
sg9
VPettigrove, Glen
p4436
sg11
V2013
p4437
sg13
VBook Review
p4438
sa(dp4439
g3
VWOS:000319853400003
p4440
sg5
VDoing Well in the Circumstances
p4441
sg7
VJOURNAL OF MORAL PHILOSOPHY
p4442
sg9
VAlexandrova, Anna
p4443
sg11
V2013
p4444
sg13
VArticle
p4445
sa(dp4446
g3
VWOS:000310046700003
p4447
sg5
VNatural Deficiency or Social Oppression? The Capabilities Approach to Justice for People with Disabilities
p4448
sg7
VJOURNAL OF MORAL PHILOSOPHY
p4449
sg9
VBarclay, Linda
p4450
sg11
V2012
p4451
sg13
VArticle
p4452
sa(dp4453
g3
VWOS:000207935200008
p4454
sg5
VThe Retreat of Reason: A Dilemma in the Philosophy of Life
p4455
sg7
VJOURNAL OF MORAL PHILOSOPHY
p4456
sg9
VFink, Hans
p4457
sg11
V2009
p4458
sg13
VBook Review
p4459
sa(dp4460
g3
VWOS:000290934300008
p4461
sg5
VRescuing Justice and Equality
p4462
sg7
VJOURNAL OF MORAL PHILOSOPHY
p4463
sg9
VNavin, Mark
p4464
sg11
V2010
p4465
sg13
VBook Review
p4466
sa(dp4467
g3
VWOS:000290934300007
p4468
sg5
VThe Facts of Inequality
p4469
sg7
VJOURNAL OF MORAL PHILOSOPHY
p4470
sg9
VO'Neill, Martin
p4471
sg11
V2010
p4472
sg13
VReview
p4473
sa(dp4474
g3
VWOS:000290914100004
p4475
sg5
VLibertarian Self-Defeat
p4476
sg7
VJOURNAL OF MORAL PHILOSOPHY
p4477
sg9
VRiley, Evan
p4478
sg11
V2010
p4479
sg13
VArticle
p4480
sa(dp4481
g3
VWOS:000290935100003
p4482
sg5
VKantian Beneficence and the Problem of Obligatory Aid
p4483
sg7
VJOURNAL OF MORAL PHILOSOPHY
p4484
sg9
VStohr, Karen
p4485
sg11
V2011
p4486
sg13
VArticle
p4487
sa(dp4488
g3
VWOS:000209005600001
p4489
sg5
VUntitled
p4490
sg7
VJOURNAL OF MORAL PHILOSOPHY
p4491
sg9
VBrooks, Thom
p4492
sg11
V2006
p4493
sg13
VEditorial Material
p4494
sa(dp4495
g3
VWOS:000209005500008
p4496
sg5
VHuman Welfare and Moral Worth: Kantian Perspectives
p4497
sg7
VJOURNAL OF MORAL PHILOSOPHY
p4498
sg9
VHanna, Robert
p4499
sg11
V2006
p4500
sg13
VBook Review
p4501
sa.