(lp1
(dp2
S'uid'
p3
VWOS:000233286900005
p4
sS'title'
p5
VDependency, difference and the global ethic of longterm care
p6
sS'journal'
p7
VJOURNAL OF POLITICAL PHILOSOPHY
p8
sS'author'
p9
VKittay, EF
p10
sS'year'
p11
V2005
p12
sS'doctype'
p13
VArticle
p14
sa(dp15
g3
VWOS:000400994800005
p16
sg5
VThe Special Moral Obligations of Law Enforcement
p17
sg7
VJOURNAL OF POLITICAL PHILOSOPHY
p18
sg9
VMonaghan, Jake
p19
sg11
V2017
p20
sg13
VArticle
p21
sa(dp22
g3
VWOS:000400994800002
p23
sg5
VPublic Reason and Reciprocity
p24
sg7
VJOURNAL OF POLITICAL PHILOSOPHY
p25
sg9
VLister, Andrew
p26
sg11
V2017
p27
sg13
VArticle
p28
sa(dp29
g3
VWOS:000322722200002
p30
sg5
VDemocratizing the Nonprofit Sector
p31
sg7
VJOURNAL OF POLITICAL PHILOSOPHY
p32
sg9
VPevnick, Ryan
p33
sg11
V2013
p34
sg13
VArticle
p35
sa(dp36
g3
VWOS:000306893600005
p37
sg5
VDebate: Clayton on Comprehensive Enrolment
p38
sg7
VJOURNAL OF POLITICAL PHILOSOPHY
p39
sg9
VCameron, Christina
p40
sg11
V2012
p41
sg13
VArticle
p42
sa(dp43
g3
VWOS:000286618700006
p44
sg5
VSharing Mother Nature's Gifts: A Reply to Quong and Miller
p45
sg7
VJOURNAL OF POLITICAL PHILOSOPHY
p46
sg9
VSteiner, Hillel
p47
sg11
V2011
p48
sg13
VArticle
p49
sa(dp50
g3
VWOS:000276793500001
p51
sg5
VDemocracy and Proportionality
p52
sg7
VJOURNAL OF POLITICAL PHILOSOPHY
p53
sg9
VBrighouse, Harry
p54
sg11
V2010
p55
sg13
VArticle
p56
sa(dp57
g3
VWOS:000273460400006
p58
sg5
VDebate: To Nudge or Not to Nudge
p59
sg7
VJOURNAL OF POLITICAL PHILOSOPHY
p60
sg9
VHausman, Daniel M.
p61
sg11
V2010
p62
sg13
VEditorial Material
p63
sa(dp64
g3
VWOS:000082232800001
p65
sg5
VCertainty of the law: Reasons, situation-types, analogy, and equilibrium
p66
sg7
VJOURNAL OF POLITICAL PHILOSOPHY
p67
sg9
VStinchcombe, AL
p68
sg11
V1999
p69
sg13
VArticle
p70
sa(dp71
g3
VWOS:000075477300004
p72
sg5
VSurvey article: Subsidiarity
p73
sg7
VJOURNAL OF POLITICAL PHILOSOPHY
p74
sg9
VFollesdal, A
p75
sg11
V1998
p76
sg13
VReview
p77
sa(dp78
g3
VWOS:000387346500002
p79
sg5
VAuthority and Expertise
p80
sg7
VJOURNAL OF POLITICAL PHILOSOPHY
p81
sg9
VViehoff, Daniel
p82
sg11
V2016
p83
sg13
VArticle
p84
sa(dp85
g3
VWOS:000354293000005
p86
sg5
VThe Volcanic Asymmetry or the Question of Permanent Sovereignty over Natural Disasters
p87
sg7
VJOURNAL OF POLITICAL PHILOSOPHY
p88
sg9
VMancilla, Alejandra
p89
sg11
V2015
p90
sg13
VArticle
p91
sa(dp92
g3
VWOS:000348448500004
p93
sg5
VImposing Duties and Original Appropriation
p94
sg7
VJOURNAL OF POLITICAL PHILOSOPHY
p95
sg9
Vvan der Vossen, Bas
p96
sg11
V2015
p97
sg13
VArticle
p98
sa(dp99
g3
VWOS:000345223800003
p100
sg5
VReconceiving Recognition: Towards a Cumulative Politics of Recognition
p101
sg7
VJOURNAL OF POLITICAL PHILOSOPHY
p102
sg9
VMalloy, Tamar
p103
sg11
V2014
p104
sg13
VArticle
p105
sa(dp106
g3
VWOS:000297027300005
p107
sg5
VAcademic Boycotts
p108
sg7
VJOURNAL OF POLITICAL PHILOSOPHY
p109
sg9
VRodin, David
p110
sg11
V2011
p111
sg13
VArticle
p112
sa(dp113
g3
VWOS:000289472300005
p114
sg5
VSharing Burdens After War: A Lockean Approach
p115
sg7
VJOURNAL OF POLITICAL PHILOSOPHY
p116
sg9
VKalmanovitz, Pablo
p117
sg11
V2011
p118
sg13
VArticle
p119
sa(dp120
g3
VWOS:000186897300002
p121
sg5
VThe domestic analogy and the Kantian project of perpetual peace
p122
sg7
VJOURNAL OF POLITICAL PHILOSOPHY
p123
sg9
VBottici, C
p124
sg11
V2003
p125
sg13
VArticle
p126
sa(dp127
g3
VWOS:000169072100001
p128
sg5
VSolidarity goods
p129
sg7
VJOURNAL OF POLITICAL PHILOSOPHY
p130
sg9
VSunstein, CR
p131
sg11
V2001
p132
sg13
VArticle
p133
sa(dp134
g3
VWOS:000085674400001
p135
sg5
VLiberalism and collective investments in repertoires
p136
sg7
VJOURNAL OF POLITICAL PHILOSOPHY
p137
sg9
VStinchcombe, AL
p138
sg11
V2000
p139
sg13
VArticle
p140
sa(dp141
g3
VWOS:000088862000001
p142
sg5
VEmpire and democracy: Tocqueville and the Algeria question
p143
sg7
VJOURNAL OF POLITICAL PHILOSOPHY
p144
sg9
VPitts, J
p145
sg11
V2000
p146
sg13
VArticle
p147
sa(dp148
g3
VWOS:000165756600001
p149
sg5
VThe concept of acquiescence
p150
sg7
VJOURNAL OF POLITICAL PHILOSOPHY
p151
sg9
VWoodard, C
p152
sg11
V2000
p153
sg13
VArticle
p154
sa(dp155
g3
VWOS:000088862000005
p156
sg5
VDealing with extremists in public discussion: Front national and "republican front" in France
p157
sg7
VJOURNAL OF POLITICAL PHILOSOPHY
p158
sg9
VFennema, M
p159
sg11
V2000
p160
sg13
VArticle
p161
sa(dp162
g3
VWOS:000083983200005
p163
sg5
VRent seeking evaluated
p164
sg7
VJOURNAL OF POLITICAL PHILOSOPHY
p165
sg9
VHindmoor, A
p166
sg11
V1999
p167
sg13
VArticle
p168
sa(dp169
g3
VWOS:000230816700002
p170
sg5
VDeliberative character
p171
sg7
VJOURNAL OF POLITICAL PHILOSOPHY
p172
sg9
VWeithman, P
p173
sg11
V2005
p174
sg13
VArticle
p175
sa(dp176
g3
VWOS:000424158300006
p177
sg5
VPositional Goods and the Size of Inequality
p178
sg7
VJOURNAL OF POLITICAL PHILOSOPHY
p179
sg9
VBen Shahar, Tammy Harel
p180
sg11
V2018
p181
sg13
VArticle
p182
sa(dp183
g3
VWOS:000400994800003
p184
sg5
VInterpreting Responsibility Politically
p185
sg7
VJOURNAL OF POLITICAL PHILOSOPHY
p186
sg9
VGoodhart, Michael
p187
sg11
V2017
p188
sg13
VArticle
p189
sa(dp190
g3
VWOS:000373931500005
p191
sg5
VIf People Were Movies? Free Speech and Free Association
p192
sg7
VJOURNAL OF POLITICAL PHILOSOPHY
p193
sg9
VSparrow, Robert
p194
sg11
V2016
p195
sg13
VArticle
p196
sa(dp197
g3
VWOS:000368823900006
p198
sg5
VRepublicanism, Perfectionism, and Neutrality
p199
sg7
VJOURNAL OF POLITICAL PHILOSOPHY
p200
sg9
VLovett, Frank
p201
sg11
V2016
p202
sg13
VArticle
p203
sa(dp204
g3
VWOS:000223155900001
p205
sg5
VArguing and observing: Internal and external critiques of judicial impartiality
p206
sg7
VJOURNAL OF POLITICAL PHILOSOPHY
p207
sg9
VSchedler, A
p208
sg11
V2004
p209
sg13
VArticle
p210
sa(dp211
g3
VWOS:000348448500003
p212
sg5
VDeliberation, Participation, and Democratic Legitimacy: Should Deliberative Mini-publics Shape Public Policy?
p213
sg7
VJOURNAL OF POLITICAL PHILOSOPHY
p214
sg9
VLafont, Cristina
p215
sg11
V2015
p216
sg13
VArticle
p217
sa(dp218
g3
VWOS:000188987500001
p219
sg5
VDefending equality of outcome
p220
sg7
VJOURNAL OF POLITICAL PHILOSOPHY
p221
sg9
VPhillips, A
p222
sg11
V2004
p223
sg13
VArticle
p224
sa(dp225
g3
VWOS:000289472300001
p226
sg5
VVote Buying and Election Promises: Should Democrats Care About the Difference?
p227
sg7
VJOURNAL OF POLITICAL PHILOSOPHY
p228
sg9
VLippert-Rasmussen, Kasper
p229
sg11
V2011
p230
sg13
VArticle
p231
sa(dp232
g3
VWOS:000177949700003
p233
sg5
VNew public management: Puzzles of democracy and the influence of citizens
p234
sg7
VJOURNAL OF POLITICAL PHILOSOPHY
p235
sg9
VChristensen, T
p236
sg11
V2002
p237
sg13
VArticle
p238
sa(dp239
g3
VWOS:000255212700007
p240
sg5
VDebate: Justification and liability in war
p241
sg7
VJOURNAL OF POLITICAL PHILOSOPHY
p242
sg9
VMcMahan, Jeff
p243
sg11
V2008
p244
sg13
VArticle
p245
sa(dp246
g3
VWOS:000233286900004
p247
sg5
VRegarding optimum population
p248
sg7
VJOURNAL OF POLITICAL PHILOSOPHY
p249
sg9
VDasgupta, P
p250
sg11
V2005
p251
sg13
VArticle
p252
sa(dp253
g3
VWOS:000230816700005
p254
sg5
VThe moral rights of creators of artistic and literary works
p255
sg7
VJOURNAL OF POLITICAL PHILOSOPHY
p256
sg9
VBeitz, CR
p257
sg11
V2005
p258
sg13
VArticle
p259
sa(dp260
g3
VWOS:000359295000004
p261
sg5
VAnimals and the Limits of Citizenship: Zoopolis and the Concept of Citizenship
p262
sg7
VJOURNAL OF POLITICAL PHILOSOPHY
p263
sg9
VHinchcliffe, Christopher
p264
sg11
V2015
p265
sg13
VArticle
p266
sa(dp267
g3
VWOS:000359295000002
p268
sg5
VTheorising the Political Apology
p269
sg7
VJOURNAL OF POLITICAL PHILOSOPHY
p270
sg9
VWinter, Stephen
p271
sg11
V2015
p272
sg13
VArticle
p273
sa(dp274
g3
VWOS:000188987500002
p275
sg5
VAboriginal art and identity: Crossing the border of law's imagination
p276
sg7
VJOURNAL OF POLITICAL PHILOSOPHY
p277
sg9
VColeman, EB
p278
sg11
V2004
p279
sg13
VArticle
p280
sa(dp281
g3
VWOS:000085674400003
p282
sg5
V"Two concepts of liberty" through African eyes
p283
sg7
VJOURNAL OF POLITICAL PHILOSOPHY
p284
sg9
VSiame, CN
p285
sg11
V2000
p286
sg13
VArticle
p287
sa(dp288
g3
VWOS:000181307500005
p289
sg5
V'Basic income? Basic capital!' Origins and issues of a debate
p290
sg7
VJOURNAL OF POLITICAL PHILOSOPHY
p291
sg9
VCunliffe, J
p292
sg11
V2003
p293
sg13
VArticle
p294
sa(dp295
g3
VWOS:000300006300005
p296
sg5
VThe Difference Principle at Work
p297
sg7
VJOURNAL OF POLITICAL PHILOSOPHY
p298
sg9
VArnold, Samuel
p299
sg11
V2012
p300
sg13
VArticle
p301
sa(dp302
g3
VWOS:000265146500004
p303
sg5
VOn Political Conspiracy Theories
p304
sg7
VJOURNAL OF POLITICAL PHILOSOPHY
p305
sg9
VRaikka, Juha
p306
sg11
V2009
p307
sg13
VArticle
p308
sa(dp309
g3
VWOS:000082232800005
p310
sg5
VBuilding trust in divided societies
p311
sg7
VJOURNAL OF POLITICAL PHILOSOPHY
p312
sg9
VWeinstock, D
p313
sg11
V1999
p314
sg13
VArticle
p315
sa(dp316
g3
VWOS:000170632800004
p317
sg5
VRepublican constitutionalism: A Roman ideal
p318
sg7
VJOURNAL OF POLITICAL PHILOSOPHY
p319
sg9
VButtle, N
p320
sg11
V2001
p321
sg13
VArticle
p322
sa(dp323
g3
VWOS:000085674400006
p324
sg5
VSurvey article: Repentance rituals and restorative justice
p325
sg7
VJOURNAL OF POLITICAL PHILOSOPHY
p326
sg9
VBraithwaite, J
p327
sg11
V2000
p328
sg13
VArticle
p329
sa(dp330
g3
VWOS:000255212700006
p331
sg5
VDebate: Jeff McMahan on the moral inequality of combatants
p332
sg7
VJOURNAL OF POLITICAL PHILOSOPHY
p333
sg9
VSteinhoff, Uwe
p334
sg11
V2008
p335
sg13
VArticle
p336
sa(dp337
g3
VWOS:000246685700005
p338
sg5
VOn following orders in an unjust war
p339
sg7
VJOURNAL OF POLITICAL PHILOSOPHY
p340
sg9
VEstlund, David
p341
sg11
V2007
p342
sg13
VArticle
p343
sa(dp344
g3
VWOS:000442493900003
p345
sg5
VAgainst Subsidiarity
p346
sg7
VJOURNAL OF POLITICAL PHILOSOPHY
p347
sg9
VLatimer, Trevor
p348
sg11
V2018
p349
sg13
VArticle
p350
sa(dp351
g3
VWOS:000227380900001
p352
sg5
VEqual treatment of cultures and the limits of postmodern liberalism
p353
sg7
VJOURNAL OF POLITICAL PHILOSOPHY
p354
sg9
VHabermas, J
p355
sg11
V2005
p356
sg13
VArticle
p357
sa(dp358
g3
VWOS:000394909000001
p359
sg5
VPolitical Theory and Real Politics in the Age of the Internet
p360
sg7
VJOURNAL OF POLITICAL PHILOSOPHY
p361
sg9
VRunciman, David
p362
sg11
V2017
p363
sg13
VArticle
p364
sa(dp365
g3
VWOS:000354293000001
p366
sg5
VNoumenal Power
p367
sg7
VJOURNAL OF POLITICAL PHILOSOPHY
p368
sg9
VForst, Rainer
p369
sg11
V2015
p370
sg13
VArticle
p371
sa(dp372
g3
VWOS:000345223800001
p373
sg5
VIncluding the Unaffected
p374
sg7
VJOURNAL OF POLITICAL PHILOSOPHY
p375
sg9
VFrazer, Michael L.
p376
sg11
V2014
p377
sg13
VArticle
p378
sa(dp379
g3
VWOS:000318878500004
p380
sg5
VWhen the State Says "Sorry": State Apologies as Exemplary Political Judgments*
p381
sg7
VJOURNAL OF POLITICAL PHILOSOPHY
p382
sg9
VMihai, Mihaela
p383
sg11
V2013
p384
sg13
VArticle
p385
sa(dp386
g3
VWOS:000185062900004
p387
sg5
VAgainst segregation: Ethnic mixing in liberal states
p388
sg7
VJOURNAL OF POLITICAL PHILOSOPHY
p389
sg9
VTrappenburg, M
p390
sg11
V2003
p391
sg13
VArticle
p392
sa(dp393
g3
VWOS:000289472300007
p394
sg5
VDebate: Procedure and Outcome in the Justification of Authority
p395
sg7
VJOURNAL OF POLITICAL PHILOSOPHY
p396
sg9
VViehoff, Daniel
p397
sg11
V2011
p398
sg13
VArticle
p399
sa(dp400
g3
VWOS:000174158100005
p401
sg5
VSurvey article: Cosmopolitanism and the law of peoples
p402
sg7
VJOURNAL OF POLITICAL PHILOSOPHY
p403
sg9
VCaney, S
p404
sg11
V2002
p405
sg13
VArticle
p406
sa(dp407
g3
VWOS:000261065400005
p408
sg5
VJustice between Adjacent Generations: Further Thoughts
p409
sg7
VJOURNAL OF POLITICAL PHILOSOPHY
p410
sg9
VDaniels, Norman
p411
sg11
V2008
p412
sg13
VArticle
p413
sa(dp414
g3
VWOS:000165756600003
p415
sg5
VWhat are 'universalizable interests'?
p416
sg7
VJOURNAL OF POLITICAL PHILOSOPHY
p417
sg9
VFinlayson, JG
p418
sg11
V2000
p419
sg13
VArticle
p420
sa(dp421
g3
VWOS:000255212700003
p422
sg5
VThe freedom of collective agents
p423
sg7
VJOURNAL OF POLITICAL PHILOSOPHY
p424
sg9
VHindriks, Frank
p425
sg11
V2008
p426
sg13
VArticle
p427
sa(dp428
g3
VWOS:000253257300003
p429
sg5
VStatist cosmopolitanism
p430
sg7
VJOURNAL OF POLITICAL PHILOSOPHY
p431
sg9
VYpi, Lea L.
p432
sg11
V2008
p433
sg13
VArticle
p434
sa(dp435
g3
VWOS:000087629700006
p436
sg5
VThe one and many faces of cosmopolitanism
p437
sg7
VJOURNAL OF POLITICAL PHILOSOPHY
p438
sg9
VLu, C
p439
sg11
V2000
p440
sg13
VArticle
p441
sa(dp442
g3
VWOS:000228978800005
p443
sg5
VStateless national groups, international justice and asymmetrical warfare
p444
sg7
VJOURNAL OF POLITICAL PHILOSOPHY
p445
sg9
VMoltchanova, A
p446
sg11
V2005
p447
sg13
VArticle
p448
sa(dp449
g3
VWOS:000400994800004
p450
sg5
VReasonable Mistakes and Regulative Norms: Racial Bias in Defensive Harm
p451
sg7
VJOURNAL OF POLITICAL PHILOSOPHY
p452
sg9
VBolinger, Renee Jorgensen
p453
sg11
V2017
p454
sg13
VArticle
p455
sa(dp456
g3
VWOS:000387346500007
p457
sg5
VAre Charter Cities Legitimate?
p458
sg7
VJOURNAL OF POLITICAL PHILOSOPHY
p459
sg9
VSagar, Rahul
p460
sg11
V2016
p461
sg13
VArticle
p462
sa(dp463
g3
VWOS:000224804100001
p464
sg5
VResponsibility and global labor justice
p465
sg7
VJOURNAL OF POLITICAL PHILOSOPHY
p466
sg9
VYoung, IM
p467
sg11
V2004
p468
sg13
VArticle
p469
sa(dp470
g3
VWOS:000221354900001
p471
sg5
VAn apology for moral shame
p472
sg7
VJOURNAL OF POLITICAL PHILOSOPHY
p473
sg9
VCalhoun, C
p474
sg11
V2004
p475
sg13
VArticle
p476
sa(dp477
g3
VWOS:000083983200003
p478
sg5
VRewarding effort
p479
sg7
VJOURNAL OF POLITICAL PHILOSOPHY
p480
sg9
VLevine, A
p481
sg11
V1999
p482
sg13
VArticle
p483
sa(dp484
g3
VWOS:000188987500004
p485
sg5
VA Kantian defense of self-ownership
p486
sg7
VJOURNAL OF POLITICAL PHILOSOPHY
p487
sg9
VTaylor, RS
p488
sg11
V2004
p489
sg13
VArticle
p490
sa(dp491
g3
VWOS:000306893600003
p492
sg5
VBewildering Nussbaum: Capability Justice and Predation
p493
sg7
VJOURNAL OF POLITICAL PHILOSOPHY
p494
sg9
VHailwood, Simon
p495
sg11
V2012
p496
sg13
VArticle
p497
sa(dp498
g3
VWOS:000185062900003
p499
sg5
VDo rights have a formal basis? Habermas' legal theory and the normative foundations of the law
p500
sg7
VJOURNAL OF POLITICAL PHILOSOPHY
p501
sg9
VOlson, K
p502
sg11
V2003
p503
sg13
VArticle
p504
sa(dp505
g3
VWOS:000276793500006
p506
sg5
VSurvey Article: Internal Doubts about Cohen's Rescue of Justice
p507
sg7
VJOURNAL OF POLITICAL PHILOSOPHY
p508
sg9
VTomlin, Patrick
p509
sg11
V2010
p510
sg13
VArticle
p511
sa(dp512
g3
VWOS:000270664800004
p513
sg5
VConstitutional Experiments: Representing Future Generations Through Submajority Rules
p514
sg7
VJOURNAL OF POLITICAL PHILOSOPHY
p515
sg9
VEkeli, Kristian Skagen
p516
sg11
V2009
p517
sg13
VArticle
p518
sa(dp519
g3
VWOS:000258581800006
p520
sg5
VDebate: Another reason for criminalizing blackmail
p521
sg7
VJOURNAL OF POLITICAL PHILOSOPHY
p522
sg9
VRosenberg, Benjamin E.
p523
sg11
V2008
p524
sg13
VArticle
p525
sa(dp526
g3
VWOS:000258581800001
p527
sg5
VOn the very idea of cosmopolitan justice: Constructivism and international agency
p528
sg7
VJOURNAL OF POLITICAL PHILOSOPHY
p529
sg9
VMeckled-Garcia, Saladin
p530
sg11
V2008
p531
sg13
VArticle
p532
sa(dp533
g3
VWOS:000250984800004
p534
sg5
VIgnorance, incompetence and the concept of liberty
p535
sg7
VJOURNAL OF POLITICAL PHILOSOPHY
p536
sg9
VGarnett, Michael
p537
sg11
V2007
p538
sg13
VArticle
p539
sa(dp540
g3
VWOS:000246685700002
p541
sg5
VHuman categories beyond non-essentialism
p542
sg7
VJOURNAL OF POLITICAL PHILOSOPHY
p543
sg9
VMallon, Ron
p544
sg11
V2007
p545
sg13
VArticle
p546
sa(dp547
g3
VWOS:000241773000003
p548
sg5
VThe right of children to be loved
p549
sg7
VJOURNAL OF POLITICAL PHILOSOPHY
p550
sg9
VLiao, S. Matthew
p551
sg11
V2006
p552
sg13
VArticle
p553
sa(dp554
g3
VWOS:000450033000001
p555
sg5
VProperty and Time
p556
sg7
VJOURNAL OF POLITICAL PHILOSOPHY
p557
sg9
VBeitz, Charles R.
p558
sg11
V2018
p559
sg13
VArticle
p560
sa(dp561
g3
VWOS:000442493900005
p562
sg5
VDistributive Justice and the Relief of Household Debt
p563
sg7
VJOURNAL OF POLITICAL PHILOSOPHY
p564
sg9
VPersad, Govind
p565
sg11
V2018
p566
sg13
VArticle
p567
sa(dp568
g3
VWOS:000228978800004
p569
sg5
VThe manufacture-for-use of pornography and women's inequality
p570
sg7
VJOURNAL OF POLITICAL PHILOSOPHY
p571
sg9
VVadas, M
p572
sg11
V2005
p573
sg13
VArticle
p574
sa(dp575
g3
VWOS:000227380900004
p576
sg5
VSubmajority rules: Forcing accountability upon majorities
p577
sg7
VJOURNAL OF POLITICAL PHILOSOPHY
p578
sg9
VVermeule, A
p579
sg11
V2005
p580
sg13
VArticle
p581
sa(dp582
g3
VWOS:000331082300003
p583
sg5
VJustice and Attachment to Natural Resources
p584
sg7
VJOURNAL OF POLITICAL PHILOSOPHY
p585
sg9
VArmstrong, Chris
p586
sg11
V2014
p587
sg13
VArticle
p588
sa(dp589
g3
VWOS:000075666900001
p590
sg5
VThe politics of history: The subaltern and the subversive
p591
sg7
VJOURNAL OF POLITICAL PHILOSOPHY
p592
sg9
VPocock, JGA
p593
sg11
V1998
p594
sg13
VArticle
p595
sa(dp596
g3
VWOS:000181307500007
p597
sg5
VDefending the purely instrumental account of democratic legitimacy
p598
sg7
VJOURNAL OF POLITICAL PHILOSOPHY
p599
sg9
VArneson, RJ
p600
sg11
V2003
p601
sg13
VArticle
p602
sa(dp603
g3
VWOS:000179604300002
p604
sg5
VCompensatory justice: Over time and between groups
p605
sg7
VJOURNAL OF POLITICAL PHILOSOPHY
p606
sg9
VHill, RA
p607
sg11
V2002
p608
sg13
VArticle
p609
sa(dp610
g3
VWOS:000088862000002
p611
sg5
VLand, culture and justice: A framework for group rights and recognition
p612
sg7
VJOURNAL OF POLITICAL PHILOSOPHY
p613
sg9
VSpinner-Halev, J
p614
sg11
V2000
p615
sg13
VArticle
p616
sa(dp617
g3
VWOS:000243870200005
p618
sg5
VThe paradox of political representation
p619
sg7
VJOURNAL OF POLITICAL PHILOSOPHY
p620
sg9
VRunciman, David
p621
sg11
V2007
p622
sg13
VArticle
p623
sa(dp624
g3
VWOS:000235332800002
p625
sg5
V'Really' equal: Opportunities and autonomy
p626
sg7
VJOURNAL OF POLITICAL PHILOSOPHY
p627
sg9
VPhillips, A
p628
sg11
V2006
p629
sg13
VArticle
p630
sa(dp631
g3
VWOS:000239622800005
p632
sg5
VCan capabilities reconcile freedom and equality?
p633
sg7
VJOURNAL OF POLITICAL PHILOSOPHY
p634
sg9
VDowding, Keith
p635
sg11
V2006
p636
sg13
VArticle
p637
sa(dp638
g3
VWOS:000424158300001
p639
sg5
VMembership and Political Obligation
p640
sg7
VJOURNAL OF POLITICAL PHILOSOPHY
p641
sg9
VScheffler, Samuel
p642
sg11
V2018
p643
sg13
VArticle
p644
sa(dp645
g3
VWOS:000416419900003
p646
sg5
VTransformative Experiences in Political Life
p647
sg7
VJOURNAL OF POLITICAL PHILOSOPHY
p648
sg9
VAllen, Peter
p649
sg11
V2017
p650
sg13
VArticle
p651
sa(dp652
g3
VWOS:000416419900007
p653
sg5
VWhat Could Be Wrong with a Mortgage? Private Debt Markets from a Perspective of Structural Injustice
p654
sg7
VJOURNAL OF POLITICAL PHILOSOPHY
p655
sg9
VHerzog, Lisa
p656
sg11
V2017
p657
sg13
VArticle
p658
sa(dp659
g3
VWOS:000373931500001
p660
sg5
VPolitical Morality and the Authority of Tradition
p661
sg7
VJOURNAL OF POLITICAL PHILOSOPHY
p662
sg9
VWall, Steven
p663
sg11
V2016
p664
sg13
VArticle
p665
sa(dp666
g3
VWOS:000223155900004
p667
sg5
VThe rights of unreasonable citizens
p668
sg7
VJOURNAL OF POLITICAL PHILOSOPHY
p669
sg9
VQuong, J
p670
sg11
V2004
p671
sg13
VArticle
p672
sa(dp673
g3
VWOS:000340526800004
p674
sg5
VThe Rule of Non-Opposition: Opening Up Decision-Making by Consensus
p675
sg7
VJOURNAL OF POLITICAL PHILOSOPHY
p676
sg9
VUrfalino, Philippe
p677
sg11
V2014
p678
sg13
VArticle
p679
sa(dp680
g3
VWOS:000221354900002
p681
sg5
VNatural rights and individual sovereignty
p682
sg7
VJOURNAL OF POLITICAL PHILOSOPHY
p683
sg9
VVan Duffel, S
p684
sg11
V2004
p685
sg13
VArticle
p686
sa(dp687
g3
VWOS:000329288300001
p688
sg5
VLimiting States' Corporate Responsibility
p689
sg7
VJOURNAL OF POLITICAL PHILOSOPHY
p690
sg9
VPasternak, Avia
p691
sg11
V2013
p692
sg13
VArticle
p693
sa(dp694
g3
VWOS:000310800500003
p695
sg5
VHuman Rights as Demands for Communicative Action
p696
sg7
VJOURNAL OF POLITICAL PHILOSOPHY
p697
sg9
VGauri, Varun
p698
sg11
V2012
p699
sg13
VArticle
p700
sa(dp701
g3
VWOS:000169072100002
p702
sg5
VFood, functioning and justice: From famines to eating disorders
p703
sg7
VJOURNAL OF POLITICAL PHILOSOPHY
p704
sg9
VLaVaque-Manty, M
p705
sg11
V2001
p706
sg13
VArticle
p707
sa(dp708
g3
VWOS:000167195500005
p709
sg5
VReflexive law and the challenges of globalization
p710
sg7
VJOURNAL OF POLITICAL PHILOSOPHY
p711
sg9
VScheuerman, WE
p712
sg11
V2001
p713
sg13
VArticle
p714
sa(dp715
g3
VWOS:000253257300001
p716
sg5
VMaking war on terrorists - Reflections on harming the innocent
p717
sg7
VJOURNAL OF POLITICAL PHILOSOPHY
p718
sg9
VPogge, Thomas
p719
sg11
V2008
p720
sg13
VArticle
p721
sa(dp722
g3
VWOS:000246685700004
p723
sg5
VIndividual and collective moral responsibility for systemic military atrocity
p724
sg7
VJOURNAL OF POLITICAL PHILOSOPHY
p725
sg9
VCrawford, Neta C.
p726
sg11
V2007
p727
sg13
VArticle
p728
sa(dp729
g3
VWOS:000075477300003
p730
sg5
VCoerced moral agents! Individual responsibility for military service
p731
sg7
VJOURNAL OF POLITICAL PHILOSOPHY
p732
sg9
VMapel, DR
p733
sg11
V1998
p734
sg13
VArticle
p735
sa(dp736
g3
VWOS:000354293000006
p737
sg5
VSurvey Article: Deliberation, Democracy, and the Systemic Turn
p738
sg7
VJOURNAL OF POLITICAL PHILOSOPHY
p739
sg9
VOwen, David
p740
sg11
V2015
p741
sg13
VArticle
p742
sa(dp743
g3
VWOS:000322722200006
p744
sg5
VDebate: Unequal Consenters and Political Illegitimacy
p745
sg7
VJOURNAL OF POLITICAL PHILOSOPHY
p746
sg9
VEdenberg, Elizabeth
p747
sg11
V2013
p748
sg13
VArticle
p749
sa(dp750
g3
VWOS:000286618700003
p751
sg5
VDebate: Feasibility and Socialism
p752
sg7
VJOURNAL OF POLITICAL PHILOSOPHY
p753
sg9
VGilabert, Pablo
p754
sg11
V2011
p755
sg13
VArticle
p756
sa(dp757
g3
VWOS:000286618700005
p758
sg5
VProperty and Territory: Locke, Kant, and Steiner
p759
sg7
VJOURNAL OF POLITICAL PHILOSOPHY
p760
sg9
VMiller, David
p761
sg11
V2011
p762
sg13
VArticle
p763
sa(dp764
g3
VWOS:000300006300002
p765
sg5
VStaging Deliberation: The Role of Representative Institutions in the Deliberative Democratic Process
p766
sg7
VJOURNAL OF POLITICAL PHILOSOPHY
p767
sg9
VRummens, Stefan
p768
sg11
V2012
p769
sg13
VArticle
p770
sa(dp771
g3
VWOS:000175957800006
p772
sg5
VStreet-level epistemology and democratic participation
p773
sg7
VJOURNAL OF POLITICAL PHILOSOPHY
p774
sg9
VHardin, R
p775
sg11
V2002
p776
sg13
VArticle
p777
sa(dp778
g3
VWOS:000175957800003
p779
sg5
VDeliberative democracy beyond process
p780
sg7
VJOURNAL OF POLITICAL PHILOSOPHY
p781
sg9
VGutmann, A
p782
sg11
V2002
p783
sg13
VArticle
p784
sa(dp785
g3
VWOS:000080711100003
p786
sg5
VThe duty to punish and legitimate government
p787
sg7
VJOURNAL OF POLITICAL PHILOSOPHY
p788
sg9
VMcDermott, D
p789
sg11
V1999
p790
sg13
VArticle
p791
sa(dp792
g3
VWOS:000270664800002
p793
sg5
VSelf-Ownership and Paternalism
p794
sg7
VJOURNAL OF POLITICAL PHILOSOPHY
p795
sg9
VWall, Steven
p796
sg11
V2009
p797
sg13
VArticle
p798
sa(dp799
g3
VWOS:000170632800001
p800
sg5
VResponsibility and modernity in criminal law
p801
sg7
VJOURNAL OF POLITICAL PHILOSOPHY
p802
sg9
VLacey, N
p803
sg11
V2001
p804
sg13
VArticle
p805
sa(dp806
g3
VWOS:000075477200004
p807
sg5
VFreedom, force and choice: Against the rights-based definition of voluntariness
p808
sg7
VJOURNAL OF POLITICAL PHILOSOPHY
p809
sg9
VOlsaretti, S
p810
sg11
V1998
p811
sg13
VArticle
p812
sa(dp813
g3
VWOS:000165756600004
p814
sg5
VJustifying the Truth and Reconciliation Commission
p815
sg7
VJOURNAL OF POLITICAL PHILOSOPHY
p816
sg9
VDyzenhaus, D
p817
sg11
V2000
p818
sg13
VArticle
p819
sa(dp820
g3
VWOS:000253257300004
p821
sg5
VSurvey article: Justice in production
p822
sg7
VJOURNAL OF POLITICAL PHILOSOPHY
p823
sg9
VHsieh, Nien-He
p824
sg11
V2008
p825
sg13
VReview
p826
sa(dp827
g3
VWOS:000239622800006
p828
sg5
VDoes a basic needs approach need capabilities?
p829
sg7
VJOURNAL OF POLITICAL PHILOSOPHY
p830
sg9
VReader, Soran
p831
sg11
V2006
p832
sg13
VArticle
p833
sa(dp834
g3
VWOS:000442493900007
p835
sg5
VWhat Citizens Owe: Two Grounds for Challenging Debt Repayment
p836
sg7
VJOURNAL OF POLITICAL PHILOSOPHY
p837
sg9
VWiedenbrug, Anahi
p838
sg11
V2018
p839
sg13
VArticle
p840
sa(dp841
g3
VWOS:000431658000004
p842
sg5
VArranged Marriage: Could It Contribute To Justice?
p843
sg7
VJOURNAL OF POLITICAL PHILOSOPHY
p844
sg9
VBhandary, Asha
p845
sg11
V2018
p846
sg13
VArticle
p847
sa(dp848
g3
VWOS:000363873000003
p849
sg5
VSufficiency as Freedom from Duress
p850
sg7
VJOURNAL OF POLITICAL PHILOSOPHY
p851
sg9
VAxelsen, David V.
p852
sg11
V2015
p853
sg13
VArticle
p854
sa(dp855
g3
VWOS:000223155900002
p856
sg5
VThe authority of democracy
p857
sg7
VJOURNAL OF POLITICAL PHILOSOPHY
p858
sg9
VChristiano, T
p859
sg11
V2004
p860
sg13
VArticle
p861
sa(dp862
g3
VWOS:000223155900006
p863
sg5
VDebate: Nozick's real argument for the minimal state
p864
sg7
VJOURNAL OF POLITICAL PHILOSOPHY
p865
sg9
VHyams, K
p866
sg11
V2004
p867
sg13
VEditorial Material
p868
sa(dp869
g3
VWOS:000345223800002
p870
sg5
VKantian Imperfect Duties and Modern Debates over Human Rights
p871
sg7
VJOURNAL OF POLITICAL PHILOSOPHY
p872
sg9
VHope, Simon
p873
sg11
V2014
p874
sg13
VArticle
p875
sa(dp876
g3
VWOS:000221354900004
p877
sg5
VMinimalism about human rights: The most we can hope for?
p878
sg7
VJOURNAL OF POLITICAL PHILOSOPHY
p879
sg9
VCohen, J
p880
sg11
V2004
p881
sg13
VArticle
p882
sa(dp883
g3
VWOS:000322722200004
p884
sg5
VAn Error Theory for Liberal Universalism
p885
sg7
VJOURNAL OF POLITICAL PHILOSOPHY
p886
sg9
VTsai, George
p887
sg11
V2013
p888
sg13
VArticle
p889
sa(dp890
g3
VWOS:000318878500003
p891
sg5
VEpistemic Trust and Liberal Justification*
p892
sg7
VJOURNAL OF POLITICAL PHILOSOPHY
p893
sg9
VFuerstein, Michael
p894
sg11
V2013
p895
sg13
VArticle
p896
sa(dp897
g3
VWOS:000289472300003
p898
sg5
VFederalism as Fairness
p899
sg7
VJOURNAL OF POLITICAL PHILOSOPHY
p900
sg9
VDe Schutter, Helder
p901
sg11
V2011
p902
sg13
VArticle
p903
sa(dp904
g3
VWOS:000280124600002
p905
sg5
VOne Kiss Too Many? Giving, Luck Egalitarianism and Other-affecting Choice
p906
sg7
VJOURNAL OF POLITICAL PHILOSOPHY
p907
sg9
VLazenby, Hugh
p908
sg11
V2010
p909
sg13
VArticle
p910
sa(dp911
g3
VWOS:000265146500006
p912
sg5
VDebate: Estlund on Democratic Authority
p913
sg7
VJOURNAL OF POLITICAL PHILOSOPHY
p914
sg9
VChristiano, Thomas
p915
sg11
V2009
p916
sg13
VArticle
p917
sa(dp918
g3
VWOS:000167195500001
p919
sg5
VEquality of whom? Social groups and judgments of injustice
p920
sg7
VJOURNAL OF POLITICAL PHILOSOPHY
p921
sg9
VYoung, IM
p922
sg11
V2001
p923
sg13
VArticle
p924
sa(dp925
g3
VWOS:000239622800002
p926
sg5
VA republican interpretation of the late Rawls
p927
sg7
VJOURNAL OF POLITICAL PHILOSOPHY
p928
sg9
VDe Francisco, Andres
p929
sg11
V2006
p930
sg13
VArticle
p931
sa(dp932
g3
VWOS:000236738400006
p933
sg5
VDebate: The normative pluralism of desert
p934
sg7
VJOURNAL OF POLITICAL PHILOSOPHY
p935
sg9
VBaiasu, S
p936
sg11
V2006
p937
sg13
VArticle
p938
sa(dp939
g3
VWOS:000387346000005
p940
sg5
VDistributing States' Duties
p941
sg7
VJOURNAL OF POLITICAL PHILOSOPHY
p942
sg9
VCollins, Stephanie
p943
sg11
V2016
p944
sg13
VArticle
p945
sa(dp946
g3
VWOS:000363873000006
p947
sg5
VPirates and Torturers: Universal Jurisdiction as Enforcement Gap-Filling
p948
sg7
VJOURNAL OF POLITICAL PHILOSOPHY
p949
sg9
VSong, Jiewuh
p950
sg11
V2015
p951
sg13
VArticle
p952
sa(dp953
g3
VWOS:000363873000001
p954
sg5
VDemocratic Agents of Justice
p955
sg7
VJOURNAL OF POLITICAL PHILOSOPHY
p956
sg9
VDryzek, John S.
p957
sg11
V2015
p958
sg13
VArticle
p959
sa(dp960
g3
VWOS:000348448500005
p961
sg5
VJustice as Fairness and Relational Resources
p962
sg7
VJOURNAL OF POLITICAL PHILOSOPHY
p963
sg9
VCordelli, Chiara
p964
sg11
V2015
p965
sg13
VArticle
p966
sa(dp967
g3
VWOS:000223155900003
p968
sg5
VHistorical truth, national myths and liberal democracy: On the coherence of liberal nationalism
p969
sg7
VJOURNAL OF POLITICAL PHILOSOPHY
p970
sg9
VAbizadeh, A
p971
sg11
V2004
p972
sg13
VArticle
p973
sa(dp974
g3
VWOS:000345223800004
p975
sg5
VMoney Does Not Guarantee Time: Discretionary Time as a Distinct Object of Distributive Justice
p976
sg7
VJOURNAL OF POLITICAL PHILOSOPHY
p977
sg9
VRose, Julie L.
p978
sg11
V2014
p979
sg13
VArticle
p980
sa(dp981
g3
VWOS:000221354900005
p982
sg5
VThe emerging global normative synthesis
p983
sg7
VJOURNAL OF POLITICAL PHILOSOPHY
p984
sg9
VEtzioni, A
p985
sg11
V2004
p986
sg13
VArticle
p987
sa(dp988
g3
VWOS:000331082300002
p989
sg5
VUnconscionability, Exploitation, and Hypocrisy
p990
sg7
VJOURNAL OF POLITICAL PHILOSOPHY
p991
sg9
VStone, Rebecca
p992
sg11
V2014
p993
sg13
VArticle
p994
sa(dp995
g3
VWOS:000181307500004
p996
sg5
VCan corrective justice ground claims to territory?
p997
sg7
VJOURNAL OF POLITICAL PHILOSOPHY
p998
sg9
VMeisels, T
p999
sg11
V2003
p1000
sg13
VArticle
p1001
sa(dp1002
g3
VWOS:000273460400003
p1003
sg5
VDisentangling Diversity in Deliberative Democracy: Competing Theories, Their Blind Spots and Complementarities
p1004
sg7
VJOURNAL OF POLITICAL PHILOSOPHY
p1005
sg9
VBaechtiger, Andre
p1006
sg11
V2010
p1007
sg13
VArticle
p1008
sa(dp1009
g3
VWOS:000267754300003
p1010
sg5
VThe Autonomy-Fostering State: "Coordinated Fragmentation" and Domestic Violence Services
p1011
sg7
VJOURNAL OF POLITICAL PHILOSOPHY
p1012
sg9
VBen-Ishai, Elizabeth
p1013
sg11
V2009
p1014
sg13
VArticle
p1015
sa(dp1016
g3
VWOS:000267754300004
p1017
sg5
VOn the Apparent Paradox of Ideal Theory
p1018
sg7
VJOURNAL OF POLITICAL PHILOSOPHY
p1019
sg9
VValentini, Laura
p1020
sg11
V2009
p1021
sg13
VArticle
p1022
sa(dp1023
g3
VWOS:000080711100005
p1024
sg5
VDebate: Aristotle, ethical diversity and political argument
p1025
sg7
VJOURNAL OF POLITICAL PHILOSOPHY
p1026
sg9
VMulgan, R
p1027
sg11
V1999
p1028
sg13
VArticle
p1029
sa(dp1030
g3
VWOS:000172315100005
p1031
sg5
VDebate: Saving Scanlon: Contractualism and agent-relativity
p1032
sg7
VJOURNAL OF POLITICAL PHILOSOPHY
p1033
sg9
VRidge, M
p1034
sg11
V2001
p1035
sg13
VArticle
p1036
sa(dp1037
g3
VWOS:000236738400005
p1038
sg5
VSurvey article: Citizen panels and the concept of representation
p1039
sg7
VJOURNAL OF POLITICAL PHILOSOPHY
p1040
sg9
VBrown, MB
p1041
sg11
V2006
p1042
sg13
VArticle
p1043
sa(dp1044
g3
VWOS:000450033000003
p1045
sg5
VSexual Reorientation in Ideal and Non-Ideal Theory
p1046
sg7
VJOURNAL OF POLITICAL PHILOSOPHY
p1047
sg9
VDelmas, Candice
p1048
sg11
V2018
p1049
sg13
VArticle
p1050
sa(dp1051
g3
VWOS:000416419900008
p1052
sg5
VA Theory of Legitimate Expectations
p1053
sg7
VJOURNAL OF POLITICAL PHILOSOPHY
p1054
sg9
VBrown, Alexander
p1055
sg11
V2017
p1056
sg13
VArticle
p1057
sa(dp1058
g3
VWOS:000400994800006
p1059
sg5
VMoral Security
p1060
sg7
VJOURNAL OF POLITICAL PHILOSOPHY
p1061
sg9
VWolfendale, Jessica
p1062
sg11
V2017
p1063
sg13
VArticle
p1064
sa(dp1065
g3
VWOS:000387346000002
p1066
sg5
VExile Political Representation
p1067
sg7
VJOURNAL OF POLITICAL PHILOSOPHY
p1068
sg9
VVasanthakumar, Ashwini
p1069
sg11
V2016
p1070
sg13
VArticle
p1071
sa(dp1072
g3
VWOS:000334883000004
p1073
sg5
VThe Misuse of Power, Not Bad Representation: Why It Is Beside the Point that No One Elected Oxfam
p1074
sg7
VJOURNAL OF POLITICAL PHILOSOPHY
p1075
sg9
VRubenstein, Jennifer C.
p1076
sg11
V2014
p1077
sg13
VArticle
p1078
sa(dp1079
g3
VWOS:000318878500005
p1080
sg5
VIn the Face of Austerity: The Puzzle of Museums and Universities
p1081
sg7
VJOURNAL OF POLITICAL PHILOSOPHY
p1082
sg9
VMunoz-Darde, Veronique
p1083
sg11
V2013
p1084
sg13
VArticle
p1085
sa(dp1086
g3
VWOS:000185062900001
p1087
sg5
VDefending the West: Occidentalism and the formation of NATO
p1088
sg7
VJOURNAL OF POLITICAL PHILOSOPHY
p1089
sg9
VJackson, PT
p1090
sg11
V2003
p1091
sg13
VArticle
p1092
sa(dp1093
g3
VWOS:000289472300006
p1094
sg5
VNon-identity, Sufficiency and Exploitation
p1095
sg7
VJOURNAL OF POLITICAL PHILOSOPHY
p1096
sg9
VRendall, Matthew
p1097
sg11
V2011
p1098
sg13
VArticle
p1099
sa(dp1100
g3
VWOS:000303857600002
p1101
sg5
VThe Moral Status of Public Reason
p1102
sg7
VJOURNAL OF POLITICAL PHILOSOPHY
p1103
sg9
VBoettcher, James W.
p1104
sg11
V2012
p1105
sg13
VArticle
p1106
sa(dp1107
g3
VWOS:000179604300006
p1108
sg5
VSurvey article: Digital technology and cultural goods
p1109
sg7
VJOURNAL OF POLITICAL PHILOSOPHY
p1110
sg9
VHealy, K
p1111
sg11
V2002
p1112
sg13
VArticle
p1113
sa(dp1114
g3
VWOS:000273460400001
p1115
sg5
VThe Saint, the Criminal and the Terrorist: Towards a Hypothesis on Terrorism
p1116
sg7
VJOURNAL OF POLITICAL PHILOSOPHY
p1117
sg9
VBalagangadhara, S. N.
p1118
sg11
V2010
p1119
sg13
VArticle
p1120
sa(dp1121
g3
VWOS:000273460400002
p1122
sg5
VCoercion, Inequality and the International Property Regime
p1123
sg7
VJOURNAL OF POLITICAL PHILOSOPHY
p1124
sg9
VCavallero, Eric
p1125
sg11
V2010
p1126
sg13
VArticle
p1127
sa(dp1128
g3
VWOS:000261065400001
p1129
sg5
VImmigrants, Nations, and Citizenship
p1130
sg7
VJOURNAL OF POLITICAL PHILOSOPHY
p1131
sg9
VMiller, David
p1132
sg11
V2008
p1133
sg13
VArticle
p1134
sa(dp1135
g3
VWOS:000250984800001
p1136
sg5
VMandatory rescue killings
p1137
sg7
VJOURNAL OF POLITICAL PHILOSOPHY
p1138
sg9
VFabre, Cecile
p1139
sg11
V2007
p1140
sg13
VArticle
p1141
sa(dp1142
g3
VWOS:000243870200003
p1143
sg5
VWhat's wrong with health inequalities?
p1144
sg7
VJOURNAL OF POLITICAL PHILOSOPHY
p1145
sg9
VHausman, Daniel M.
p1146
sg11
V2007
p1147
sg13
VArticle
p1148
sa(dp1149
g3
VWOS:000082232800002
p1150
sg5
VThe fundamental argument for same-sex marriage
p1151
sg7
VJOURNAL OF POLITICAL PHILOSOPHY
p1152
sg9
VWedgwood, R
p1153
sg11
V1999
p1154
sg13
VArticle
p1155
sa(dp1156
g3
VWOS:000235332800004
p1157
sg5
VSurvey article: Emergency powers and the rule of law after 9/11
p1158
sg7
VJOURNAL OF POLITICAL PHILOSOPHY
p1159
sg9
VScheuerman, WE
p1160
sg11
V2006
p1161
sg13
VArticle
p1162
sa(dp1163
g3
VWOS:000394909000005
p1164
sg5
VImmigration, Citizenship, and Consent: What is Wrong with Permanent Alienage?
p1165
sg7
VJOURNAL OF POLITICAL PHILOSOPHY
p1166
sg9
VOberman, Kieran
p1167
sg11
V2017
p1168
sg13
VArticle
p1169
sa(dp1170
g3
VWOS:000387346500003
p1171
sg5
VSovereignty and the International Protection of Human Rights
p1172
sg7
VJOURNAL OF POLITICAL PHILOSOPHY
p1173
sg9
VLafont, Cristina
p1174
sg11
V2016
p1175
sg13
VArticle
p1176
sa(dp1177
g3
VWOS:000359295000003
p1178
sg5
VAgainst Wild Animal Sovereignty: An Interest-based Critique of Zoopolis
p1179
sg7
VJOURNAL OF POLITICAL PHILOSOPHY
p1180
sg9
VLadwig, Bernd
p1181
sg11
V2015
p1182
sg13
VArticle
p1183
sa(dp1184
g3
VWOS:000188987500006
p1185
sg5
VSurvey article: Feminism in the dismal science
p1186
sg7
VJOURNAL OF POLITICAL PHILOSOPHY
p1187
sg9
VMeagher, G
p1188
sg11
V2004
p1189
sg13
VReview
p1190
sa(dp1191
g3
VWOS:000306893600006
p1192
sg5
VDebate: The Case against the Comprehensive Enrolment of Children
p1193
sg7
VJOURNAL OF POLITICAL PHILOSOPHY
p1194
sg9
VClayton, Matthew
p1195
sg11
V2012
p1196
sg13
VArticle
p1197
sa(dp1198
g3
VWOS:000306893600004
p1199
sg5
VThe Many, Not the Few: Pluralism About Global Distributive Justice
p1200
sg7
VJOURNAL OF POLITICAL PHILOSOPHY
p1201
sg9
Vde Bres, Helena
p1202
sg11
V2012
p1203
sg13
VArticle
p1204
sa(dp1205
g3
VWOS:000183024400001
p1206
sg5
VRadical liberals, reasonable feminists: Reason, power and objectivity in MacKinnon and Rawls
p1207
sg7
VJOURNAL OF POLITICAL PHILOSOPHY
p1208
sg9
VLaden, AS
p1209
sg11
V2003
p1210
sg13
VArticle
p1211
sa(dp1212
g3
VWOS:000276793500004
p1213
sg5
VMoral Liability to Defensive Killing and Symmetrical Self-defense
p1214
sg7
VJOURNAL OF POLITICAL PHILOSOPHY
p1215
sg9
VMapel, David R.
p1216
sg11
V2010
p1217
sg13
VArticle
p1218
sa(dp1219
g3
VWOS:000270664800006
p1220
sg5
VDebate: On Silencing and Sexual Refusal
p1221
sg7
VJOURNAL OF POLITICAL PHILOSOPHY
p1222
sg9
VMcGowan, Mary Kate
p1223
sg11
V2009
p1224
sg13
VArticle
p1225
sa(dp1226
g3
VWOS:000267754300005
p1227
sg5
VDebate: Agonism and Deliberation- Recognizing the Difference
p1228
sg7
VJOURNAL OF POLITICAL PHILOSOPHY
p1229
sg9
VGursozlu, Fuat
p1230
sg11
V2009
p1231
sg13
VArticle
p1232
sa(dp1233
g3
VWOS:000265146500002
p1234
sg5
VSocial Trust and the Ethics of Immigration Policy
p1235
sg7
VJOURNAL OF POLITICAL PHILOSOPHY
p1236
sg9
VPevnick, Ryan
p1237
sg11
V2009
p1238
sg13
VArticle
p1239
sa(dp1240
g3
VWOS:000170632800002
p1241
sg5
VEpistemic democracy: Generalizing the Condorcet jury theorem
p1242
sg7
VJOURNAL OF POLITICAL PHILOSOPHY
p1243
sg9
VList, C
p1244
sg11
V2001
p1245
sg13
VArticle
p1246
sa(dp1247
g3
VWOS:000250984800003
p1248
sg5
VOn combating the abuse of state secrecy
p1249
sg7
VJOURNAL OF POLITICAL PHILOSOPHY
p1250
sg9
VSagar, Rahul
p1251
sg11
V2007
p1252
sg13
VArticle
p1253
sa(dp1254
g3
VWOS:000250984800006
p1255
sg5
VDebate: When less really is less - What's wrong with minimalist approaches to human rights
p1256
sg7
VJOURNAL OF POLITICAL PHILOSOPHY
p1257
sg9
VDinsmore, Greg
p1258
sg11
V2007
p1259
sg13
VArticle
p1260
sa(dp1261
g3
VWOS:000078778900001
p1262
sg5
VHobbes and the purely artificial person of the state
p1263
sg7
VJOURNAL OF POLITICAL PHILOSOPHY
p1264
sg9
VSkinner, Q
p1265
sg11
V1999
p1266
sg13
VArticle
p1267
sa(dp1268
g3
VWOS:000235332800005
p1269
sg5
VDebate: Democracy, authority and publicity
p1270
sg7
VJOURNAL OF POLITICAL PHILOSOPHY
p1271
sg9
VWall, S
p1272
sg11
V2006
p1273
sg13
VArticle
p1274
sa(dp1275
g3
VWOS:000230816700004
p1276
sg5
VSecular philosophy and muslim headscarves in schools
p1277
sg7
VJOURNAL OF POLITICAL PHILOSOPHY
p1278
sg9
VLaborde, C
p1279
sg11
V2005
p1280
sg13
VArticle
p1281
sa(dp1282
g3
VWOS:000230816700001
p1283
sg5
VTowards a theory of synagonism
p1284
sg7
VJOURNAL OF POLITICAL PHILOSOPHY
p1285
sg9
VKaragiannis, N
p1286
sg11
V2005
p1287
sg13
VArticle
p1288
sa(dp1289
g3
VWOS:000228978800003
p1290
sg5
VJustice and the politics of deference
p1291
sg7
VJOURNAL OF POLITICAL PHILOSOPHY
p1292
sg9
VKolers, A
p1293
sg11
V2005
p1294
sg13
VArticle
p1295
sa(dp1296
g3
VWOS:000345223800005
p1297
sg5
VJustice in Finance: The Normative Case for an International Financial Transaction Tax
p1298
sg7
VJOURNAL OF POLITICAL PHILOSOPHY
p1299
sg9
VWollner, Gabriel
p1300
sg11
V2014
p1301
sg13
VArticle
p1302
sa(dp1303
g3
VWOS:000340526800003
p1304
sg5
VDeliberative Voting: Clarifying Consent in a Consensus Process
p1305
sg7
VJOURNAL OF POLITICAL PHILOSOPHY
p1306
sg9
VMoore, Alfred
p1307
sg11
V2014
p1308
sg13
VArticle
p1309
sa(dp1310
g3
VWOS:000329288300004
p1311
sg5
VTaking Stances, Contesting Commitments: Political Legitimacy and the Pragmatic Turn
p1312
sg7
VJOURNAL OF POLITICAL PHILOSOPHY
p1313
sg9
VFossen, Thomas
p1314
sg11
V2013
p1315
sg13
VArticle
p1316
sa(dp1317
g3
VWOS:000183024400003
p1318
sg5
VPreemptive self-defense: Hegemony, equality and strategies of legal change
p1319
sg7
VJOURNAL OF POLITICAL PHILOSOPHY
p1320
sg9
VByers, M
p1321
sg11
V2003
p1322
sg13
VArticle
p1323
sa(dp1324
g3
VWOS:000181307500002
p1325
sg5
VParliamentary immunity: Protecting democracy or protecting corruption?
p1326
sg7
VJOURNAL OF POLITICAL PHILOSOPHY
p1327
sg9
VWigley, S
p1328
sg11
V2003
p1329
sg13
VArticle
p1330
sa(dp1331
g3
VWOS:000078778900004
p1332
sg5
VThe internal legitimacy of humanitarian intervention
p1333
sg7
VJOURNAL OF POLITICAL PHILOSOPHY
p1334
sg9
VBuchanan, A
p1335
sg11
V1999
p1336
sg13
VArticle
p1337
sa(dp1338
g3
VWOS:000282873900003
p1339
sg5
VProceduralism and Popular Threats to Democracy
p1340
sg7
VJOURNAL OF POLITICAL PHILOSOPHY
p1341
sg9
VKirshner, Alexander S.
p1342
sg11
V2010
p1343
sg13
VArticle
p1344
sa(dp1345
g3
VWOS:000179604300003
p1346
sg5
VCommon good and civic spirit in the welfare state: Problems of societal self-description
p1347
sg7
VJOURNAL OF POLITICAL PHILOSOPHY
p1348
sg9
VMunkler, H
p1349
sg11
V2002
p1350
sg13
VArticle
p1351
sa(dp1352
g3
VWOS:000075666900005
p1353
sg5
VProperty in international law: Need Cuba compensate US titleholders for nationalising their property?
p1354
sg7
VJOURNAL OF POLITICAL PHILOSOPHY
p1355
sg9
VStory, A
p1356
sg11
V1998
p1357
sg13
VArticle
p1358
sa(dp1359
g3
VWOS:000087629700007
p1360
sg5
VWhat kind of person is Hobbes's state? A reply to Skinner
p1361
sg7
VJOURNAL OF POLITICAL PHILOSOPHY
p1362
sg9
VRunciman, D
p1363
sg11
V2000
p1364
sg13
VArticle
p1365
sa(dp1366
g3
VWOS:000241773000004
p1367
sg5
VSurvey article: The legitimacy deficits of the European Union
p1368
sg7
VJOURNAL OF POLITICAL PHILOSOPHY
p1369
sg9
VFollesdal, Andreas
p1370
sg11
V2006
p1371
sg13
VReview
p1372
sa(dp1373
g3
VWOS:000228978800001
p1374
sg5
VWhat should the 'political' in political theory explore?
p1375
sg7
VJOURNAL OF POLITICAL PHILOSOPHY
p1376
sg9
VFreeden, M
p1377
sg11
V2005
p1378
sg13
VArticle
p1379
sa(dp1380
g3
VWOS:000407040000006
p1381
sg5
VDebate: Levels of Non-ideality
p1382
sg7
VJOURNAL OF POLITICAL PHILOSOPHY
p1383
sg9
VSteiner, Hillel
p1384
sg11
V2017
p1385
sg13
VArticle
p1386
sa(dp1387
g3
VWOS:000368823900004
p1388
sg5
VTaking Place Seriously: Territorial Presence and the Rights of Immigrants
p1389
sg7
VJOURNAL OF POLITICAL PHILOSOPHY
p1390
sg9
VEspejo, Paulina Ochoa
p1391
sg11
V2016
p1392
sg13
VArticle
p1393
sa(dp1394
g3
VWOS:000331082300004
p1395
sg5
VThe Moralized View of Parental Partiality
p1396
sg7
VJOURNAL OF POLITICAL PHILOSOPHY
p1397
sg9
VBou-Habib, Paul
p1398
sg11
V2014
p1399
sg13
VArticle
p1400
sa(dp1401
g3
VWOS:000075666900002
p1402
sg5
VEnglish republicanism in the 1790s
p1403
sg7
VJOURNAL OF POLITICAL PHILOSOPHY
p1404
sg9
VPhilp, M
p1405
sg11
V1998
p1406
sg13
VArticle
p1407
sa(dp1408
g3
VWOS:000300006300004
p1409
sg5
VMeaningful Work: Arguments from Autonomy
p1410
sg7
VJOURNAL OF POLITICAL PHILOSOPHY
p1411
sg9
VRoessler, Beate
p1412
sg11
V2012
p1413
sg13
VArticle
p1414
sa(dp1415
g3
VWOS:000085674400004
p1416
sg5
VTwo models of deliberation: Oratory and conversation in ratifying the constitution
p1417
sg7
VJOURNAL OF POLITICAL PHILOSOPHY
p1418
sg9
VRemer, G
p1419
sg11
V2000
p1420
sg13
VArticle
p1421
sa(dp1422
g3
VWOS:000186897300004
p1423
sg5
VThe European model of "social" capitalism: Can it survive European integration?
p1424
sg7
VJOURNAL OF POLITICAL PHILOSOPHY
p1425
sg9
VOffe, C
p1426
sg11
V2003
p1427
sg13
VArticle
p1428
sa(dp1429
g3
VWOS:000185062900005
p1430
sg5
VSpinoza's republican argument for toleration
p1431
sg7
VJOURNAL OF POLITICAL PHILOSOPHY
p1432
sg9
VRosenthal, MA
p1433
sg11
V2003
p1434
sg13
VArticle
p1435
sa(dp1436
g3
VWOS:000181307500003
p1437
sg5
VDiversity and equality: Three approaches to cultural and sexual difference
p1438
sg7
VJOURNAL OF POLITICAL PHILOSOPHY
p1439
sg9
VEisenberg, A
p1440
sg11
V2003
p1441
sg13
VArticle
p1442
sa(dp1443
g3
VWOS:000082232800004
p1444
sg5
VSymposium: Diversity & civic solidarity - Diversity, solidarity and civic friendship
p1445
sg7
VJOURNAL OF POLITICAL PHILOSOPHY
p1446
sg9
VKahane, D
p1447
sg11
V1999
p1448
sg13
VArticle
p1449
sa(dp1450
g3
VWOS:000174158100003
p1451
sg5
VNational minorities and ethnic immigrants: Liberalism's political sociology
p1452
sg7
VJOURNAL OF POLITICAL PHILOSOPHY
p1453
sg9
VChoudhry, S
p1454
sg11
V2002
p1455
sg13
VArticle
p1456
sa(dp1457
g3
VWOS:000172315100003
p1458
sg5
VEthical investing: The permissibility of participation
p1459
sg7
VJOURNAL OF POLITICAL PHILOSOPHY
p1460
sg9
VKolers, A
p1461
sg11
V2001
p1462
sg13
VArticle
p1463
sa(dp1464
g3
VWOS:000075477200006
p1465
sg5
VDebate: Liberalism, equality, and fraternity in Cohen's critique of rawls
p1466
sg7
VJOURNAL OF POLITICAL PHILOSOPHY
p1467
sg9
VEstlund, D
p1468
sg11
V1998
p1469
sg13
VArticle
p1470
sa(dp1471
g3
VWOS:000241773000005
p1472
sg5
VDebate: The co-originality of private and public autonomy in deliberative democracy
p1473
sg7
VJOURNAL OF POLITICAL PHILOSOPHY
p1474
sg9
VRummens, Stefan
p1475
sg11
V2006
p1476
sg13
VArticle
p1477
sa(dp1478
g3
VWOS:000241773000001
p1479
sg5
VOn the moral equality of combatants
p1480
sg7
VJOURNAL OF POLITICAL PHILOSOPHY
p1481
sg9
VMcMahan, Jeff
p1482
sg11
V2006
p1483
sg13
VArticle
p1484
sa(dp1485
g3
VWOS:000442493900004
p1486
sg5
VThe Right to Credit
p1487
sg7
VJOURNAL OF POLITICAL PHILOSOPHY
p1488
sg9
VMeyer, Marco
p1489
sg11
V2018
p1490
sg13
VArticle
p1491
sa(dp1492
g3
VWOS:000228978800006
p1493
sg5
VShould expatriates vote?
p1494
sg7
VJOURNAL OF POLITICAL PHILOSOPHY
p1495
sg9
VLopez-Guerra, C
p1496
sg11
V2005
p1497
sg13
VArticle
p1498
sa(dp1499
g3
VWOS:000373931500002
p1500
sg5
VLiquid Democracy: Potentials, Problems, and Perspectives
p1501
sg7
VJOURNAL OF POLITICAL PHILOSOPHY
p1502
sg9
VBlum, Christian
p1503
sg11
V2016
p1504
sg13
VArticle
p1505
sa(dp1506
g3
VWOS:000373931500003
p1507
sg5
VRefugee Rights: Against Expanding the Definition of a "Refugee" and Unilateral Protection Elsewhere
p1508
sg7
VJOURNAL OF POLITICAL PHILOSOPHY
p1509
sg9
VCherem, Max
p1510
sg11
V2016
p1511
sg13
VArticle
p1512
sa(dp1513
g3
VWOS:000368823900003
p1514
sg5
VThe Double Nature of DNA: Reevaluating the Common Heritage Idea
p1515
sg7
VJOURNAL OF POLITICAL PHILOSOPHY
p1516
sg9
VQueloz, Matthieu
p1517
sg11
V2016
p1518
sg13
VArticle
p1519
sa(dp1520
g3
VWOS:000334883000002
p1521
sg5
VTax Competition and Global Background Justice*
p1522
sg7
VJOURNAL OF POLITICAL PHILOSOPHY
p1523
sg9
VDietsch, Peter
p1524
sg11
V2014
p1525
sg13
VArticle
p1526
sa(dp1527
g3
VWOS:000329288300002
p1528
sg5
VRight-wing Rawlsianism: A Critique
p1529
sg7
VJOURNAL OF POLITICAL PHILOSOPHY
p1530
sg9
VArnold, Samuel
p1531
sg11
V2013
p1532
sg13
VArticle
p1533
sa(dp1534
g3
VWOS:000318878500002
p1535
sg5
VShall We Vote on Values, But Bet on Beliefs?
p1536
sg7
VJOURNAL OF POLITICAL PHILOSOPHY
p1537
sg9
VHanson, Robin
p1538
sg11
V2013
p1539
sg13
VArticle
p1540
sa(dp1541
g3
VWOS:000303857600003
p1542
sg5
VFiduciary Representation and Deliberative Engagement with Children
p1543
sg7
VJOURNAL OF POLITICAL PHILOSOPHY
p1544
sg9
VLeib, Ethan J.
p1545
sg11
V2012
p1546
sg13
VArticle
p1547
sa(dp1548
g3
VWOS:000293093700002
p1549
sg5
VSovereign Debt, Human Rights, and Policy Conditionality
p1550
sg7
VJOURNAL OF POLITICAL PHILOSOPHY
p1551
sg9
VBarry, Christian
p1552
sg11
V2011
p1553
sg13
VArticle
p1554
sa(dp1555
g3
VWOS:000293093700001
p1556
sg5
VColonialism as Structural Injustice: Historical Responsibility and Contemporary Redress
p1557
sg7
VJOURNAL OF POLITICAL PHILOSOPHY
p1558
sg9
VLu, Catherine
p1559
sg11
V2011
p1560
sg13
VArticle
p1561
sa(dp1562
g3
VWOS:000270664800001
p1563
sg5
VA "Selection Model" of Political Representation
p1564
sg7
VJOURNAL OF POLITICAL PHILOSOPHY
p1565
sg9
VMansbridge, Jane
p1566
sg11
V2009
p1567
sg13
VReview
p1568
sa(dp1569
g3
VWOS:000265146600005
p1570
sg5
VDebate: Do Associative Duties Really Not Matter?
p1571
sg7
VJOURNAL OF POLITICAL PHILOSOPHY
p1572
sg9
VLazar, Seth
p1573
sg11
V2009
p1574
sg13
VArticle
p1575
sa(dp1576
g3
VWOS:000167195500004
p1577
sg5
VGlobalization and economic sovereignty
p1578
sg7
VJOURNAL OF POLITICAL PHILOSOPHY
p1579
sg9
VQuiggin, J
p1580
sg11
V2001
p1581
sg13
VArticle
p1582
sa(dp1583
g3
VWOS:000169072100005
p1584
sg5
VDebate: Freedom, unfreedom and Skinner's Hobbes
p1585
sg7
VJOURNAL OF POLITICAL PHILOSOPHY
p1586
sg9
VKramer, MH
p1587
sg11
V2001
p1588
sg13
VArticle
p1589
sa(dp1590
g3
VWOS:000258581800004
p1591
sg5
VSurvey article: Constitutional democracy and the rule of international law: Are they compatible?
p1592
sg7
VJOURNAL OF POLITICAL PHILOSOPHY
p1593
sg9
VBuchanan, Allen
p1594
sg11
V2008
p1595
sg13
VArticle
p1596
sa(dp1597
g3
VWOS:000243870200001
p1598
sg5
VMestiza autonomy as relational autonomy: Ambivalence & the social character of free will
p1599
sg7
VJOURNAL OF POLITICAL PHILOSOPHY
p1600
sg9
VBarvosa-Carter, Edwina
p1601
sg11
V2007
p1602
sg13
VArticle
p1603
sa(dp1604
g3
VWOS:000235332800006
p1605
sg5
VDebate: Democracy's authority: Reply to Wall
p1606
sg7
VJOURNAL OF POLITICAL PHILOSOPHY
p1607
sg9
VChristiano, T
p1608
sg11
V2006
p1609
sg13
VArticle
p1610
sa(dp1611
g3
VWOS:000233286900001
p1612
sg5
VIntroduction: Population & political theory
p1613
sg7
VJOURNAL OF POLITICAL PHILOSOPHY
p1614
sg9
VFishkin, JS
p1615
sg11
V2005
p1616
sg13
VEditorial Material
p1617
sa(dp1618
g3
VWOS:000230816700003
p1619
sg5
VThe compatibility of effective self-ownership and joint world ownership
p1620
sg7
VJOURNAL OF POLITICAL PHILOSOPHY
p1621
sg9
VJedenheim-Edling, M
p1622
sg11
V2005
p1623
sg13
VArticle
p1624
sa(dp1625
g3
VWOS:000416419900001
p1626
sg5
VImagined Utopias: Animals Rights and the Moral Imagination
p1627
sg7
VJOURNAL OF POLITICAL PHILOSOPHY
p1628
sg9
VCooke, Steve
p1629
sg11
V2017
p1630
sg13
VArticle
p1631
sa(dp1632
g3
VWOS:000224804100005
p1633
sg5
VSurvey article: Unity, diversity and democratic institutions: Lessons from the European Union
p1634
sg7
VJOURNAL OF POLITICAL PHILOSOPHY
p1635
sg9
VOlsen, JP
p1636
sg11
V2004
p1637
sg13
VArticle
p1638
sa(dp1639
g3
VWOS:000331082300005
p1640
sg5
VHow to Make Citizens Behave: Social Psychology, Liberal Virtues, and Social Norms
p1641
sg7
VJOURNAL OF POLITICAL PHILOSOPHY
p1642
sg9
VMcTernan, Emily
p1643
sg11
V2014
p1644
sg13
VArticle
p1645
sa(dp1646
g3
VWOS:000331082300006
p1647
sg5
VDemocratic Doubts: Pragmatism and the Epistemic Defense of Democracy
p1648
sg7
VJOURNAL OF POLITICAL PHILOSOPHY
p1649
sg9
VMacGilvray, Eric
p1650
sg11
V2014
p1651
sg13
VArticle
p1652
sa(dp1653
g3
VWOS:000185062900006
p1654
sg5
VRecipes for public spheres: Eight institutional design choices and their consequences
p1655
sg7
VJOURNAL OF POLITICAL PHILOSOPHY
p1656
sg9
VFung, A
p1657
sg11
V2003
p1658
sg13
VArticle
p1659
sa(dp1660
g3
VWOS:000175957800001
p1661
sg5
VPhilosophy, politics & society - Special issue - Debating deliberative democracy - Introduction
p1662
sg7
VJOURNAL OF POLITICAL PHILOSOPHY
p1663
sg9
VFishkin, JS
p1664
sg11
V2002
p1665
sg13
VEditorial Material
p1666
sa(dp1667
g3
VWOS:000177949700002
p1668
sg5
VAssociative duties matter?
p1669
sg7
VJOURNAL OF POLITICAL PHILOSOPHY
p1670
sg9
VKolodny, N
p1671
sg11
V2002
p1672
sg13
VArticle
p1673
sa(dp1674
g3
VWOS:000265146600003
p1675
sg5
VThe Redundancy Objection, and Why Scanlon is Not a Contractualist
p1676
sg7
VJOURNAL OF POLITICAL PHILOSOPHY
p1677
sg9
VFrei, Tamra
p1678
sg11
V2009
p1679
sg13
VArticle
p1680
sa(dp1681
g3
VWOS:000075477300002
p1682
sg5
VThe "ethic of care" and the problem of power
p1683
sg7
VJOURNAL OF POLITICAL PHILOSOPHY
p1684
sg9
VMeyers, PA
p1685
sg11
V1998
p1686
sg13
VArticle
p1687
sa(dp1688
g3
VWOS:000172315100004
p1689
sg5
VDistributing responsibilities
p1690
sg7
VJOURNAL OF POLITICAL PHILOSOPHY
p1691
sg9
VMiller, D
p1692
sg11
V2001
p1693
sg13
VArticle
p1694
sa(dp1695
g3
VWOS:000087629700004
p1696
sg5
VLiberalism and ethnocentrism
p1697
sg7
VJOURNAL OF POLITICAL PHILOSOPHY
p1698
sg9
VAbdel-Nour, F
p1699
sg11
V2000
p1700
sg13
VArticle
p1701
sa(dp1702
g3
VWOS:000088862000004
p1703
sg5
VLegislation and non-neutral principles: A Lockean approach
p1704
sg7
VJOURNAL OF POLITICAL PHILOSOPHY
p1705
sg9
VTuckness, A
p1706
sg11
V2000
p1707
sg13
VArticle
p1708
sa(dp1709
g3
VWOS:000249180400004
p1710
sg5
VToward an African moral theory
p1711
sg7
VJOURNAL OF POLITICAL PHILOSOPHY
p1712
sg9
VMetz, Thaddeus
p1713
sg11
V2007
p1714
sg13
VArticle
p1715
sa(dp1716
g3
VWOS:000450033000002
p1717
sg5
VDonation without Domination: Private Charity and Republican Liberty
p1718
sg7
VJOURNAL OF POLITICAL PHILOSOPHY
p1719
sg9
VTaylor, Robert S.
p1720
sg11
V2018
p1721
sg13
VArticle
p1722
sa(dp1723
g3
VWOS:000228978800002
p1724
sg5
VDefending deaf culture: The case of cochlear implants
p1725
sg7
VJOURNAL OF POLITICAL PHILOSOPHY
p1726
sg9
VSparrow, R
p1727
sg11
V2005
p1728
sg13
VArticle
p1729
sa(dp1730
g3
VWOS:000431658000005
p1731
sg5
VOn Representing
p1732
sg7
VJOURNAL OF POLITICAL PHILOSOPHY
p1733
sg9
VRehfeld, Andrew
p1734
sg11
V2018
p1735
sg13
VArticle
p1736
sa(dp1737
g3
VWOS:000407040000001
p1738
sg5
VDignity, Esteem, and Social Contribution: A Recognition-Theoretical View
p1739
sg7
VJOURNAL OF POLITICAL PHILOSOPHY
p1740
sg9
VJutten, Timo
p1741
sg11
V2017
p1742
sg13
VArticle
p1743
sa(dp1744
g3
VWOS:000394909000003
p1745
sg5
VAppearance, Discrimination, and Reaction Qualifications
p1746
sg7
VJOURNAL OF POLITICAL PHILOSOPHY
p1747
sg9
VMason, Andrew
p1748
sg11
V2017
p1749
sg13
VArticle
p1750
sa(dp1751
g3
VWOS:000387346000004
p1752
sg5
VWhy Human Rights? Because of You
p1753
sg7
VJOURNAL OF POLITICAL PHILOSOPHY
p1754
sg9
VZylberman, Ariel
p1755
sg11
V2016
p1756
sg13
VArticle
p1757
sa(dp1758
g3
VWOS:000387346500006
p1759
sg5
VThe Right to Parent and Duties Concerning Future Generations
p1760
sg7
VJOURNAL OF POLITICAL PHILOSOPHY
p1761
sg9
VGheaus, Anca
p1762
sg11
V2016
p1763
sg13
VArticle
p1764
sa(dp1765
g3
VWOS:000359295000001
p1766
sg5
VPartisan Legislatures and Democratic Deliberation
p1767
sg7
VJOURNAL OF POLITICAL PHILOSOPHY
p1768
sg9
VLeydet, Dominique
p1769
sg11
V2015
p1770
sg13
VArticle
p1771
sa(dp1772
g3
VWOS:000354293000002
p1773
sg5
VSolidarity: Obligations and Expressions
p1774
sg7
VJOURNAL OF POLITICAL PHILOSOPHY
p1775
sg9
VTaylor, Ashley E.
p1776
sg11
V2015
p1777
sg13
VArticle
p1778
sa(dp1779
g3
VWOS:000334883000003
p1780
sg5
VThe Human Right to Water and Common Ownership of the Earth
p1781
sg7
VJOURNAL OF POLITICAL PHILOSOPHY
p1782
sg9
VRisse, Mathias
p1783
sg11
V2014
p1784
sg13
VArticle
p1785
sa(dp1786
g3
VWOS:000303857600005
p1787
sg5
VDoes the Government Need to Know Your Sex?
p1788
sg7
VJOURNAL OF POLITICAL PHILOSOPHY
p1789
sg9
VShrage, Laurie
p1790
sg11
V2012
p1791
sg13
VArticle
p1792
sa(dp1793
g3
VWOS:000280124600003
p1794
sg5
VLegitimacy and Non-State Political Violence
p1795
sg7
VJOURNAL OF POLITICAL PHILOSOPHY
p1796
sg9
VFinlay, Christopher J.
p1797
sg11
V2010
p1798
sg13
VArticle
p1799
sa(dp1800
g3
VWOS:000077438100001
p1801
sg5
VJudicial review and the conditions of democracy
p1802
sg7
VJOURNAL OF POLITICAL PHILOSOPHY
p1803
sg9
VWaldron, J
p1804
sg11
V1998
p1805
sg13
VArticle
p1806
sa(dp1807
g3
VWOS:000270664800003
p1808
sg5
VLiberal and Republican Freedom
p1809
sg7
VJOURNAL OF POLITICAL PHILOSOPHY
p1810
sg9
Vde Bruin, Boudewijn
p1811
sg11
V2009
p1812
sg13
VArticle
p1813
sa(dp1814
g3
VWOS:000087629700008
p1815
sg5
VFeminism and republicanism: Is this a plausible alliance?
p1816
sg7
VJOURNAL OF POLITICAL PHILOSOPHY
p1817
sg9
VPhillips, A
p1818
sg11
V2000
p1819
sg13
VArticle
p1820
sa(dp1821
g3
VWOS:000078778900006
p1822
sg5
VPermissiveness pilloried: A reply to Etzioni
p1823
sg7
VJOURNAL OF POLITICAL PHILOSOPHY
p1824
sg9
VSteiner, H
p1825
sg11
V1999
p1826
sg13
VArticle
p1827
sa(dp1828
g3
VWOS:000080711100004
p1829
sg5
VLocating the body: Corporeality and politics in Hannah Arendt
p1830
sg7
VJOURNAL OF POLITICAL PHILOSOPHY
p1831
sg9
VTambornino, J
p1832
sg11
V1999
p1833
sg13
VArticle
p1834
sa(dp1835
g3
VWOS:000246685700006
p1836
sg5
VDebate: What is so special about religion? The dilemma of the religious exemption
p1837
sg7
VJOURNAL OF POLITICAL PHILOSOPHY
p1838
sg9
VBedi, Sonu
p1839
sg11
V2007
p1840
sg13
VArticle
p1841
sa(dp1842
g3
VWOS:000239622800001
p1843
sg5
VThe trouble with being earnest: Deliberative democracy and the sincerity norm
p1844
sg7
VJOURNAL OF POLITICAL PHILOSOPHY
p1845
sg9
VMarkovits, Elizabeth
p1846
sg11
V2006
p1847
sg13
VArticle
p1848
sa(dp1849
g3
VWOS:000424158300002
p1850
sg5
VPolitical Marketing and Intellectual Autonomy
p1851
sg7
VJOURNAL OF POLITICAL PHILOSOPHY
p1852
sg9
VBeckman, Arthur
p1853
sg11
V2018
p1854
sg13
VArticle
p1855
sa(dp1856
g3
VWOS:000368823900002
p1857
sg5
VMoral Subversion and Structural Entrapment
p1858
sg7
VJOURNAL OF POLITICAL PHILOSOPHY
p1859
sg9
VHoward, Jeffrey W.
p1860
sg11
V2016
p1861
sg13
VArticle
p1862
sa(dp1863
g3
VWOS:000368823900001
p1864
sg5
VHow Practices Matter
p1865
sg7
VJOURNAL OF POLITICAL PHILOSOPHY
p1866
sg9
VSangiovanni, Andrea
p1867
sg11
V2016
p1868
sg13
VArticle
p1869
sa(dp1870
g3
VWOS:000224804100004
p1871
sg5
VWhat is free speech?
p1872
sg7
VJOURNAL OF POLITICAL PHILOSOPHY
p1873
sg9
VBraddon-Mitchell, D
p1874
sg11
V2004
p1875
sg13
VArticle
p1876
sa(dp1877
g3
VWOS:000359295000005
p1878
sg5
VInterspecies Politics: Reply to Hinchcliffe and Ladwig
p1879
sg7
VJOURNAL OF POLITICAL PHILOSOPHY
p1880
sg9
VDonaldson, Sue
p1881
sg11
V2015
p1882
sg13
VEditorial Material
p1883
sa(dp1884
g3
VWOS:000322722200001
p1885
sg5
VUnderstanding Political Feasibility
p1886
sg7
VJOURNAL OF POLITICAL PHILOSOPHY
p1887
sg9
VLawford-Smith, Holly
p1888
sg11
V2013
p1889
sg13
VArticle
p1890
sa(dp1891
g3
VWOS:000322722200003
p1892
sg5
VGlobal Common Resources and the Just Distribution of Emission Shares
p1893
sg7
VJOURNAL OF POLITICAL PHILOSOPHY
p1894
sg9
VBlomfield, Megan
p1895
sg11
V2013
p1896
sg13
VArticle
p1897
sa(dp1898
g3
VWOS:000315051800001
p1899
sg5
VPolitical Political Theory: An Inaugural Lecture
p1900
sg7
VJOURNAL OF POLITICAL PHILOSOPHY
p1901
sg9
VWaldron, Jeremy
p1902
sg11
V2013
p1903
sg13
VArticle
p1904
sa(dp1905
g3
VWOS:000297027300001
p1906
sg5
VThe Sincerity of Public Reason
p1907
sg7
VJOURNAL OF POLITICAL PHILOSOPHY
p1908
sg9
VSchwartzman, Micah
p1909
sg11
V2011
p1910
sg13
VArticle
p1911
sa(dp1912
g3
VWOS:000300006300003
p1913
sg5
VPrescribing Institutions Without Ideal Theory
p1914
sg7
VJOURNAL OF POLITICAL PHILOSOPHY
p1915
sg9
VWiens, David
p1916
sg11
V2012
p1917
sg13
VArticle
p1918
sa(dp1919
g3
VWOS:000185062900002
p1920
sg5
VContesting the political: Butler and Foucault on power and resistance
p1921
sg7
VJOURNAL OF POLITICAL PHILOSOPHY
p1922
sg9
VMills, C
p1923
sg11
V2003
p1924
sg13
VArticle
p1925
sa(dp1926
g3
VWOS:000282873900005
p1927
sg5
VShouts, Murmurs and Votes: Acclamation and Aggregation in Ancient Greece
p1928
sg7
VJOURNAL OF POLITICAL PHILOSOPHY
p1929
sg9
VSchwartzberg, Melissa
p1930
sg11
V2010
p1931
sg13
VArticle
p1932
sa(dp1933
g3
VWOS:000282873900001
p1934
sg5
VThe Exception Proves the Rule
p1935
sg7
VJOURNAL OF POLITICAL PHILOSOPHY
p1936
sg9
VHolton, Richard
p1937
sg11
V2010
p1938
sg13
VArticle
p1939
sa(dp1940
g3
VWOS:000083983200001
p1941
sg5
VGroup rights and group oppression
p1942
sg7
VJOURNAL OF POLITICAL PHILOSOPHY
p1943
sg9
VJones, P
p1944
sg11
V1999
p1945
sg13
VArticle
p1946
sa(dp1947
g3
VWOS:000085674400005
p1948
sg5
VMoral desert, fairness and legitimate expectations in the market
p1949
sg7
VJOURNAL OF POLITICAL PHILOSOPHY
p1950
sg9
VHsieh, NH
p1951
sg11
V2000
p1952
sg13
VArticle
p1953
sa(dp1954
g3
VWOS:000235332800007
p1955
sg5
VDebate: State paternalism, neutrality and perfectionism
p1956
sg7
VJOURNAL OF POLITICAL PHILOSOPHY
p1957
sg9
VClarke, S
p1958
sg11
V2006
p1959
sg13
VArticle
p1960
sa(dp1961
g3
VWOS:000416419900009
p1962
sg5
VRage and Virtuous Resistance
p1963
sg7
VJOURNAL OF POLITICAL PHILOSOPHY
p1964
sg9
VSilvermint, Daniel
p1965
sg11
V2017
p1966
sg13
VArticle
p1967
sa(dp1968
g3
VWOS:000387346500004
p1969
sg5
VKantian Peace and Liberal Peace: Three Concerns
p1970
sg7
VJOURNAL OF POLITICAL PHILOSOPHY
p1971
sg9
VCaranti, Luigi
p1972
sg11
V2016
p1973
sg13
VArticle
p1974
sa(dp1975
g3
VWOS:000329288300005
p1976
sg5
VThe State Made Me Do It: How Anti-cosmopolitanism is Created by the State
p1977
sg7
VJOURNAL OF POLITICAL PHILOSOPHY
p1978
sg9
VAxelsen, David V.
p1979
sg11
V2013
p1980
sg13
VArticle
p1981
sa(dp1982
g3
VWOS:000315051800003
p1983
sg5
VExtending the Golden Thread? Criminalisation and the Presumption of Innocence*
p1984
sg7
VJOURNAL OF POLITICAL PHILOSOPHY
p1985
sg9
VTomlin, Patrick
p1986
sg11
V2013
p1987
sg13
VArticle
p1988
sa(dp1989
g3
VWOS:000315051800004
p1990
sg5
VPolitical Liberalism and Religion: On Separation and Establishment*
p1991
sg7
VJOURNAL OF POLITICAL PHILOSOPHY
p1992
sg9
VLaborde, Cecile
p1993
sg11
V2013
p1994
sg13
VArticle
p1995
sa(dp1996
g3
VWOS:000310800500004
p1997
sg5
VThe Right to Parent One's Biological Baby
p1998
sg7
VJOURNAL OF POLITICAL PHILOSOPHY
p1999
sg9
VGheaus, Anca
p2000
sg11
V2012
p2001
sg13
VArticle
p2002
sa(dp2003
g3
VWOS:000183024400002
p2004
sg5
VJust war doctrine and the military response to terrorism
p2005
sg7
VJOURNAL OF POLITICAL PHILOSOPHY
p2006
sg9
VBoyle, J
p2007
sg11
V2003
p2008
sg13
VArticle
p2009
sa(dp2010
g3
VWOS:000303857600004
p2011
sg5
VInclusivist Egalitarian Liberalism and Temporary Migration: A Dilemma
p2012
sg7
VJOURNAL OF POLITICAL PHILOSOPHY
p2013
sg9
VOttonelli, Valeria
p2014
sg11
V2012
p2015
sg13
VArticle
p2016
sa(dp2017
g3
VWOS:000297027300002
p2018
sg5
VGlobal Justice and Practice-Dependence: Conventionalism, Institutionalism, Functionalism
p2019
sg7
VJOURNAL OF POLITICAL PHILOSOPHY
p2020
sg9
VValentini, Laura
p2021
sg11
V2011
p2022
sg13
VArticle
p2023
sa(dp2024
g3
VWOS:000297027300003
p2025
sg5
VReading the Signs of the Times: Regime Dynamics and Leadership Possibilities
p2026
sg7
VJOURNAL OF POLITICAL PHILOSOPHY
p2027
sg9
V't Hart, Paul
p2028
sg11
V2011
p2029
sg13
VArticle
p2030
sa(dp2031
g3
VWOS:000078778900003
p2032
sg5
VThe place of the dead in liberal political philosophy
p2033
sg7
VJOURNAL OF POLITICAL PHILOSOPHY
p2034
sg9
VMulgan, T
p2035
sg11
V1999
p2036
sg13
VArticle
p2037
sa(dp2038
g3
VWOS:000083983200002
p2039
sg5
VDialogic ethics and the virtue of humor
p2040
sg7
VJOURNAL OF POLITICAL PHILOSOPHY
p2041
sg9
VBasu, S
p2042
sg11
V1999
p2043
sg13
VArticle
p2044
sa(dp2045
g3
VWOS:000265146500007
p2046
sg5
VDebate: On Christiano's The Constitution of Equality
p2047
sg7
VJOURNAL OF POLITICAL PHILOSOPHY
p2048
sg9
VEstlund, David
p2049
sg11
V2009
p2050
sg13
VArticle
p2051
sa(dp2052
g3
VWOS:000169072100006
p2053
sg5
VSurvey article: The perils of value-ladenness in politics, science and philosophy
p2054
sg7
VJOURNAL OF POLITICAL PHILOSOPHY
p2055
sg9
VZimmerman, D
p2056
sg11
V2001
p2057
sg13
VArticle
p2058
sa(dp2059
g3
VWOS:000167195500006
p2060
sg5
VThe globalisation of regulation
p2061
sg7
VJOURNAL OF POLITICAL PHILOSOPHY
p2062
sg9
VDrahos, P
p2063
sg11
V2001
p2064
sg13
VArticle
p2065
sa(dp2066
g3
VWOS:000075477200002
p2067
sg5
VThe feasibility condition in political theory
p2068
sg7
VJOURNAL OF POLITICAL PHILOSOPHY
p2069
sg9
VRaikka, J
p2070
sg11
V1998
p2071
sg13
VArticle
p2072
sa(dp2073
g3
VWOS:000075477200001
p2074
sg5
VImages of justice: Justice as a bond, a boundary and a balance
p2075
sg7
VJOURNAL OF POLITICAL PHILOSOPHY
p2076
sg9
VLu, C
p2077
sg11
V1998
p2078
sg13
VArticle
p2079
sa(dp2080
g3
VWOS:000255212700002
p2081
sg5
VJustice and the priority of politics to morality
p2082
sg7
VJOURNAL OF POLITICAL PHILOSOPHY
p2083
sg9
VSangiovanni, Andrea
p2084
sg11
V2008
p2085
sg13
VArticle
p2086
sa(dp2087
g3
VWOS:000255212700005
p2088
sg5
VTerrorism, shared rules and trust
p2089
sg7
VJOURNAL OF POLITICAL PHILOSOPHY
p2090
sg9
VSmith, Matthew Noah
p2091
sg11
V2008
p2092
sg13
VArticle
p2093
sa(dp2094
g3
VWOS:000249180400005
p2095
sg5
VIs health care (Still) special?
p2096
sg7
VJOURNAL OF POLITICAL PHILOSOPHY
p2097
sg9
VSegall, Shlomi
p2098
sg11
V2007
p2099
sg13
VArticle
p2100
sa(dp2101
g3
VWOS:000088862000006
p2102
sg5
VDebate: Epistemological restraint-revisited
p2103
sg7
VJOURNAL OF POLITICAL PHILOSOPHY
p2104
sg9
VPrice, TL
p2105
sg11
V2000
p2106
sg13
VArticle
p2107
sa(dp2108
g3
VWOS:000236738400007
p2109
sg5
VDebate: Obligations of fair play and foreigners
p2110
sg7
VJOURNAL OF POLITICAL PHILOSOPHY
p2111
sg9
VPevnick, R
p2112
sg11
V2006
p2113
sg13
VArticle
p2114
sa(dp2115
g3
VWOS:000233286900002
p2116
sg5
VShaping future children: Parental rights and societal interests
p2117
sg7
VJOURNAL OF POLITICAL PHILOSOPHY
p2118
sg9
VBrock, DW
p2119
sg11
V2005
p2120
sg13
VArticle
p2121
sa(dp2122
g3
VWOS:000431658000006
p2123
sg5
VThe Wrong of Displacement: The Home as Extended Mind
p2124
sg7
VJOURNAL OF POLITICAL PHILOSOPHY
p2125
sg9
VNine, Cara
p2126
sg11
V2018
p2127
sg13
VArticle
p2128
sa(dp2129
g3
VWOS:000416419900002
p2130
sg5
VInternational Human Rights Obligations within the States System: The Avoidance Account
p2131
sg7
VJOURNAL OF POLITICAL PHILOSOPHY
p2132
sg9
VMontero, Julio
p2133
sg11
V2017
p2134
sg13
VArticle
p2135
sa(dp2136
g3
VWOS:000387346000003
p2137
sg5
VA Deliberative Model of Intra-Party Democracy
p2138
sg7
VJOURNAL OF POLITICAL PHILOSOPHY
p2139
sg9
VWolkenstein, Fabio
p2140
sg11
V2016
p2141
sg13
VArticle
p2142
sa(dp2143
g3
VWOS:000224804100003
p2144
sg5
VFeminist politics and feminist pluralism: Can we do feminist political theory without theories of gender?
p2145
sg7
VJOURNAL OF POLITICAL PHILOSOPHY
p2146
sg9
VBaehr, AR
p2147
sg11
V2004
p2148
sg13
VArticle
p2149
sa(dp2150
g3
VWOS:000329288300003
p2151
sg5
VResistance and Well-being
p2152
sg7
VJOURNAL OF POLITICAL PHILOSOPHY
p2153
sg9
VSilvermint, Daniel
p2154
sg11
V2013
p2155
sg13
VArticle
p2156
sa(dp2157
g3
VWOS:000082232800007
p2158
sg5
VSurvey article: Power - Top down and bottom up
p2159
sg7
VJOURNAL OF POLITICAL PHILOSOPHY
p2160
sg9
VTilly, C
p2161
sg11
V1999
p2162
sg13
VArticle
p2163
sa(dp2164
g3
VWOS:000186897300005
p2165
sg5
VSurvey article: Interpretation, indeterminacy and authority: Some recent controversies in the philosophy of law
p2166
sg7
VJOURNAL OF POLITICAL PHILOSOPHY
p2167
sg9
VStoljar, N
p2168
sg11
V2003
p2169
sg13
VArticle
p2170
sa(dp2171
g3
VWOS:000083983200006
p2172
sg5
VDegrees of freedom in the social world: Towards a systems analysis of decision
p2173
sg7
VJOURNAL OF POLITICAL PHILOSOPHY
p2174
sg9
VThalos, M
p2175
sg11
V1999
p2176
sg13
VArticle
p2177
sa(dp2178
g3
VWOS:000282873900004
p2179
sg5
VDeeper Objections to the Privatisation of Military Force
p2180
sg7
VJOURNAL OF POLITICAL PHILOSOPHY
p2181
sg9
VPattison, James
p2182
sg11
V2010
p2183
sg13
VArticle
p2184
sa(dp2185
g3
VWOS:000280124600005
p2186
sg5
VThe Moral Distinctiveness of Genocide
p2187
sg7
VJOURNAL OF POLITICAL PHILOSOPHY
p2188
sg9
VLee, Steven P.
p2189
sg11
V2010
p2190
sg13
VArticle
p2191
sa(dp2192
g3
VWOS:000175957800004
p2193
sg5
VThe law of group polarization
p2194
sg7
VJOURNAL OF POLITICAL PHILOSOPHY
p2195
sg9
VSunstein, CR
p2196
sg11
V2002
p2197
sg13
VArticle
p2198
sa(dp2199
g3
VWOS:000078778900002
p2200
sg5
VTransnational democracy
p2201
sg7
VJOURNAL OF POLITICAL PHILOSOPHY
p2202
sg9
VDryzek, JS
p2203
sg11
V1999
p2204
sg13
VArticle
p2205
sa(dp2206
g3
VWOS:000250984800002
p2207
sg5
VNothing personal: On statistical discrimination
p2208
sg7
VJOURNAL OF POLITICAL PHILOSOPHY
p2209
sg9
VLippert-Rasmussen, Kasper
p2210
sg11
V2007
p2211
sg13
VArticle
p2212
sa(dp2213
g3
VWOS:000075477300001
p2214
sg5
V"Homogeneity" and constitutional democracy: Coping with identity conflicts through group rights
p2215
sg7
VJOURNAL OF POLITICAL PHILOSOPHY
p2216
sg9
VOffe, C
p2217
sg11
V1998
p2218
sg13
VArticle
p2219
sa(dp2220
g3
VWOS:000243870200002
p2221
sg5
VInstitutions, beliefs and ethics: Eugenics as a case study
p2222
sg7
VJOURNAL OF POLITICAL PHILOSOPHY
p2223
sg9
VBuchanan, Allen
p2224
sg11
V2007
p2225
sg13
VArticle
p2226
sa(dp2227
g3
VWOS:000077438100004
p2228
sg5
VSurvey article: The coming of age of deliberative democracy
p2229
sg7
VJOURNAL OF POLITICAL PHILOSOPHY
p2230
sg9
VBohman, J
p2231
sg11
V1998
p2232
sg13
VArticle
p2233
sa(dp2234
g3
VWOS:000235332800003
p2235
sg5
VA core precautionary principle
p2236
sg7
VJOURNAL OF POLITICAL PHILOSOPHY
p2237
sg9
VGardiner, SM
p2238
sg11
V2006
p2239
sg13
VArticle
p2240
sa(dp2241
g3
VWOS:000236738400004
p2242
sg5
VJoy in living together: Toward a civic appreciation of laughter
p2243
sg7
VJOURNAL OF POLITICAL PHILOSOPHY
p2244
sg9
VWingo, AH
p2245
sg11
V2006
p2246
sg13
VArticle
p2247
sa(dp2248
g3
VWOS:000450033000004
p2249
sg5
VReasonable Citizens and Epistemic Peers: A Skeptical Problem for Political Liberalism
p2250
sg7
VJOURNAL OF POLITICAL PHILOSOPHY
p2251
sg9
Vvan Wietmarschen, Han
p2252
sg11
V2018
p2253
sg13
VArticle
p2254
sa(dp2255
g3
VWOS:000416419900004
p2256
sg5
VThe Common Good: A Buck-Passing Account
p2257
sg7
VJOURNAL OF POLITICAL PHILOSOPHY
p2258
sg9
VBeerbohm, Eric
p2259
sg11
V2017
p2260
sg13
VArticle
p2261
sa(dp2262
g3
VWOS:000387346500005
p2263
sg5
VProperty Rights in Non-rival Goods
p2264
sg7
VJOURNAL OF POLITICAL PHILOSOPHY
p2265
sg9
VCwik, Bryan
p2266
sg11
V2016
p2267
sg13
VArticle
p2268
sa(dp2269
g3
VWOS:000315051800005
p2270
sg5
VIncest and Liberal Neutrality*
p2271
sg7
VJOURNAL OF POLITICAL PHILOSOPHY
p2272
sg9
VTralau, Johan
p2273
sg11
V2013
p2274
sg13
VArticle
p2275
sa(dp2276
g3
VWOS:000310800500006
p2277
sg5
VIs Corporally Punishing Criminals Degrading?
p2278
sg7
VJOURNAL OF POLITICAL PHILOSOPHY
p2279
sg9
VMurtagh, Kevin J.
p2280
sg11
V2012
p2281
sg13
VArticle
p2282
sa(dp2283
g3
VWOS:000310800500002
p2284
sg5
VEthical Progress as Problem-Resolving
p2285
sg7
VJOURNAL OF POLITICAL PHILOSOPHY
p2286
sg9
VRoth, Amanda
p2287
sg11
V2012
p2288
sg13
VArticle
p2289
sa(dp2290
g3
VWOS:000282873900002
p2291
sg5
VIs Transparency the Best Disinfectant?
p2292
sg7
VJOURNAL OF POLITICAL PHILOSOPHY
p2293
sg9
VEtzioni, Amitai
p2294
sg11
V2010
p2295
sg13
VArticle
p2296
sa(dp2297
g3
VWOS:000282873900006
p2298
sg5
VKant's Sovereignty Dilemma: A Contemporary Analysis
p2299
sg7
VJOURNAL OF POLITICAL PHILOSOPHY
p2300
sg9
VFlikschuh, Katrin
p2301
sg11
V2010
p2302
sg13
VArticle
p2303
sa(dp2304
g3
VWOS:000174158100004
p2305
sg5
VDebate: Luck, responsibility, and the 'natural lottery'
p2306
sg7
VJOURNAL OF POLITICAL PHILOSOPHY
p2307
sg9
VHurley, SL
p2308
sg11
V2002
p2309
sg13
VArticle
p2310
sa(dp2311
g3
VWOS:000267754300001
p2312
sg5
VLiberalism, Deliberative Democracy, and "Reasons that All Can Accept"
p2313
sg7
VJOURNAL OF POLITICAL PHILOSOPHY
p2314
sg9
VBohman, James
p2315
sg11
V2009
p2316
sg13
VArticle
p2317
sa(dp2318
g3
VWOS:000083983200004
p2319
sg5
VHow Hegel reconciles private freedom with citizenship
p2320
sg7
VJOURNAL OF POLITICAL PHILOSOPHY
p2321
sg9
VWallace, RM
p2322
sg11
V1999
p2323
sg13
VArticle
p2324
sa(dp2325
g3
VWOS:000075666900004
p2326
sg5
VGroup identity and women's rights in family law: The perils of multicultural accommodation
p2327
sg7
VJOURNAL OF POLITICAL PHILOSOPHY
p2328
sg9
VShachar, A
p2329
sg11
V1998
p2330
sg13
VArticle
p2331
sa(dp2332
g3
VWOS:000075666900003
p2333
sg5
VConstitutionalising social rights
p2334
sg7
VJOURNAL OF POLITICAL PHILOSOPHY
p2335
sg9
VFabre, C
p2336
sg11
V1998
p2337
sg13
VArticle
p2338
sa(dp2339
g3
VWOS:000246685700001
p2340
sg5
VHow to include the severely disabled in a contractarian theory of justice
p2341
sg7
VJOURNAL OF POLITICAL PHILOSOPHY
p2342
sg9
VStark, Cynthia A.
p2343
sg11
V2007
p2344
sg13
VArticle
p2345
sa(dp2346
g3
VWOS:000230816700006
p2347
sg5
VDebate: Capabilities versus opportunities for well-being
p2348
sg7
VJOURNAL OF POLITICAL PHILOSOPHY
p2349
sg9
VVallentyne, P
p2350
sg11
V2005
p2351
sg13
VEditorial Material
p2352
sa(dp2353
g3
VWOS:000340526800006
p2354
sg5
VDebate: Pragmatist Epistemology and Democratic Theory: A Reply to Eric MacGilvray
p2355
sg7
VJOURNAL OF POLITICAL PHILOSOPHY
p2356
sg9
VMisak, Cheryl
p2357
sg11
V2014
p2358
sg13
VEditorial Material
p2359
sa(dp2360
g3
VWOS:000322722200005
p2361
sg5
VActions, Attitudes, and the Obligation to Obey the Law
p2362
sg7
VJOURNAL OF POLITICAL PHILOSOPHY
p2363
sg9
VGur, Noam
p2364
sg11
V2013
p2365
sg13
VArticle
p2366
sa(dp2367
g3
VWOS:000300006300006
p2368
sg5
VDebate: Taking Human Rights Seriously
p2369
sg7
VJOURNAL OF POLITICAL PHILOSOPHY
p2370
sg9
VWellman, Christopher Heath
p2371
sg11
V2012
p2372
sg13
VArticle
p2373
sa(dp2374
g3
VWOS:000085674400002
p2375
sg5
VPornographies
p2376
sg7
VJOURNAL OF POLITICAL PHILOSOPHY
p2377
sg9
VGreen, L
p2378
sg11
V2000
p2379
sg13
VArticle
p2380
sa(dp2381
g3
VWOS:000183024400004
p2382
sg5
VSecurity and liberty: The image of balance
p2383
sg7
VJOURNAL OF POLITICAL PHILOSOPHY
p2384
sg9
VWaldron, J
p2385
sg11
V2003
p2386
sg13
VArticle
p2387
sa(dp2388
g3
VWOS:000306893600002
p2389
sg5
VThe Justice of Peace Treaties
p2390
sg7
VJOURNAL OF POLITICAL PHILOSOPHY
p2391
sg9
VSchwartz, Daniel
p2392
sg11
V2012
p2393
sg13
VArticle
p2394
sa(dp2395
g3
VWOS:000286618700001
p2396
sg5
VGroup Communication and the Transformation of Judgments: An Impossibility Result
p2397
sg7
VJOURNAL OF POLITICAL PHILOSOPHY
p2398
sg9
VList, Christian
p2399
sg11
V2011
p2400
sg13
VArticle
p2401
sa(dp2402
g3
VWOS:000181307500001
p2403
sg5
VIs multiculturalism bad for animals?
p2404
sg7
VJOURNAL OF POLITICAL PHILOSOPHY
p2405
sg9
VCasal, P
p2406
sg11
V2003
p2407
sg13
VArticle
p2408
sa(dp2409
g3
VWOS:000177949700005
p2410
sg5
VInformation rights: Citizenship in the information society
p2411
sg7
VJOURNAL OF POLITICAL PHILOSOPHY
p2412
sg9
VBovens, M
p2413
sg11
V2002
p2414
sg13
VArticle
p2415
sa(dp2416
g3
VWOS:000276793500005
p2417
sg5
VDebate: Legitimate Authority, Following Orders, and Wars of Questionable Justice
p2418
sg7
VJOURNAL OF POLITICAL PHILOSOPHY
p2419
sg9
VLefkowitz, David
p2420
sg11
V2010
p2421
sg13
VArticle
p2422
sa(dp2423
g3
VWOS:000273460400004
p2424
sg5
VThe Place of Self-Interest and the Role of Power in Deliberative Democracy
p2425
sg7
VJOURNAL OF POLITICAL PHILOSOPHY
p2426
sg9
VMansbridge, Jane
p2427
sg11
V2010
p2428
sg13
VReview
p2429
sa(dp2430
g3
VWOS:000267754300002
p2431
sg5
VCitizenship Goes Public: The Institutional Design of Anational Citizenship
p2432
sg7
VJOURNAL OF POLITICAL PHILOSOPHY
p2433
sg9
VKostakopoulou, Theodora
p2434
sg11
V2009
p2435
sg13
VArticle
p2436
sa(dp2437
g3
VWOS:000175957800002
p2438
sg5
VDeliberation Day
p2439
sg7
VJOURNAL OF POLITICAL PHILOSOPHY
p2440
sg9
VAckerman, B
p2441
sg11
V2002
p2442
sg13
VArticle
p2443
sa(dp2444
g3
VWOS:000077438100003
p2445
sg5
VAnti-essentialism, multiculturalism and the 'recognition' of religious groups
p2446
sg7
VJOURNAL OF POLITICAL PHILOSOPHY
p2447
sg9
VModood, T
p2448
sg11
V1998
p2449
sg13
VArticle
p2450
sa(dp2451
g3
VWOS:000080711100001
p2452
sg5
VDemocratic theory and global society
p2453
sg7
VJOURNAL OF POLITICAL PHILOSOPHY
p2454
sg9
VThompson, DF
p2455
sg11
V1999
p2456
sg13
VArticle
p2457
sa(dp2458
g3
VWOS:000087629700001
p2459
sg5
VThe good mercenary?
p2460
sg7
VJOURNAL OF POLITICAL PHILOSOPHY
p2461
sg9
VLynch, T
p2462
sg11
V2000
p2463
sg13
VArticle
p2464
sa(dp2465
g3
VWOS:000250984800005
p2466
sg5
VNorms, motives and radical democracy: Habermas and the problem of motivation
p2467
sg7
VJOURNAL OF POLITICAL PHILOSOPHY
p2468
sg9
VMunro, Daniel
p2469
sg11
V2007
p2470
sg13
VArticle
p2471
sa(dp2472
g3
VWOS:000442493900002
p2473
sg5
VMicroaggressions, Equality, and Social Practices
p2474
sg7
VJOURNAL OF POLITICAL PHILOSOPHY
p2475
sg9
VMcTernan, Emily
p2476
sg11
V2018
p2477
sg13
VArticle
p2478
sa(dp2479
g3
VWOS:000442493900001
p2480
sg5
VRacial Profiling and a Reasonable Sense of Inferior Political Status
p2481
sg7
VJOURNAL OF POLITICAL PHILOSOPHY
p2482
sg9
VHosein, Adam Omar
p2483
sg11
V2018
p2484
sg13
VArticle
p2485
sa(dp2486
g3
VWOS:000442493900006
p2487
sg5
VMorally Bankrupt: International Financial Governance and the Ethics of Sovereign Default
p2488
sg7
VJOURNAL OF POLITICAL PHILOSOPHY
p2489
sg9
VWollner, Gabriel
p2490
sg11
V2018
p2491
sg13
VArticle
p2492
sa(dp2493
g3
VWOS:000431658000001
p2494
sg5
VThe Aptness of Anger
p2495
sg7
VJOURNAL OF POLITICAL PHILOSOPHY
p2496
sg9
VSrinivasan, Amia
p2497
sg11
V2018
p2498
sg13
VArticle
p2499
sa(dp2500
g3
VWOS:000424158300004
p2501
sg5
VPaternalism and Right
p2502
sg7
VJOURNAL OF POLITICAL PHILOSOPHY
p2503
sg9
VSchofield, Paul
p2504
sg11
V2018
p2505
sg13
VArticle
p2506
sa(dp2507
g3
VWOS:000221354900003
p2508
sg5
VDemocratic theory and political campaigns
p2509
sg7
VJOURNAL OF POLITICAL PHILOSOPHY
p2510
sg9
VLipsitz, K
p2511
sg11
V2004
p2512
sg13
VArticle
p2513
sa(dp2514
g3
VWOS:000368823900005
p2515
sg5
VSurvey Article: Four Models of a Global Order with Cosmopolitan Intent: An Empirical Assessment
p2516
sg7
VJOURNAL OF POLITICAL PHILOSOPHY
p2517
sg9
VZuern, Michael
p2518
sg11
V2016
p2519
sg13
VArticle
p2520
sa(dp2521
g3
VWOS:000359295000006
p2522
sg5
VDo Animals Need Rights?
p2523
sg7
VJOURNAL OF POLITICAL PHILOSOPHY
p2524
sg9
VEdmundson, William A.
p2525
sg11
V2015
p2526
sg13
VArticle
p2527
sa(dp2528
g3
VWOS:000354293000004
p2529
sg5
VInclusive Constitution-Making: The Icelandic Experiment
p2530
sg7
VJOURNAL OF POLITICAL PHILOSOPHY
p2531
sg9
VLandemore, Helene
p2532
sg11
V2015
p2533
sg13
VArticle
p2534
sa(dp2535
g3
VWOS:000331082300001
p2536
sg5
VThe Idea of Philosophical Fieldwork: Global Justice, Moral Ignorance, and Intellectual Attitudes
p2537
sg7
VJOURNAL OF POLITICAL PHILOSOPHY
p2538
sg9
VFlikschuh, Katrin
p2539
sg11
V2014
p2540
sg13
VArticle
p2541
sa(dp2542
g3
VWOS:000315051800002
p2543
sg5
VPerfecting Imperfect Duties: The Institutionalisation of a Universal Right to Asylum*
p2544
sg7
VJOURNAL OF POLITICAL PHILOSOPHY
p2545
sg9
VKuosmanen, Jaakko
p2546
sg11
V2013
p2547
sg13
VArticle
p2548
sa(dp2549
g3
VWOS:000297027300004
p2550
sg5
VLiberal Lustration
p2551
sg7
VJOURNAL OF POLITICAL PHILOSOPHY
p2552
sg9
VChiu, Yvonne
p2553
sg11
V2011
p2554
sg13
VArticle
p2555
sa(dp2556
g3
VWOS:000175957800005
p2557
sg5
VOptimal deliberation?
p2558
sg7
VJOURNAL OF POLITICAL PHILOSOPHY
p2559
sg9
VShapiro, I
p2560
sg11
V2002
p2561
sg13
VArticle
p2562
sa(dp2563
g3
VWOS:000179604300004
p2564
sg5
VDebts to society
p2565
sg7
VJOURNAL OF POLITICAL PHILOSOPHY
p2566
sg9
VMcDermott, D
p2567
sg11
V2002
p2568
sg13
VArticle
p2569
sa(dp2570
g3
VWOS:000276793500002
p2571
sg5
VDesert and Aggregation
p2572
sg7
VJOURNAL OF POLITICAL PHILOSOPHY
p2573
sg9
VAlm, David
p2574
sg11
V2010
p2575
sg13
VArticle
p2576
sa(dp2577
g3
VWOS:000273460400005
p2578
sg5
VDiscourse and Coordination: Modes of Interaction and their Roles in Political Decision-Making
p2579
sg7
VJOURNAL OF POLITICAL PHILOSOPHY
p2580
sg9
VLandwehr, Claudia
p2581
sg11
V2010
p2582
sg13
VArticle
p2583
sa(dp2584
g3
VWOS:000174158100001
p2585
sg5
VPolitical philosophy: The view from Cambridge
p2586
sg7
VJOURNAL OF POLITICAL PHILOSOPHY
p2587
sg9
VSkinner, Q
p2588
sg11
V2002
p2589
sg13
VArticle
p2590
sa(dp2591
g3
VWOS:000270664800005
p2592
sg5
VAre Liberal Peoples Peaceful?
p2593
sg7
VJOURNAL OF POLITICAL PHILOSOPHY
p2594
sg9
VWenar, Leif
p2595
sg11
V2009
p2596
sg13
VArticle
p2597
sa(dp2598
g3
VWOS:000170632800006
p2599
sg5
VSurvey article: On social and moral revival
p2600
sg7
VJOURNAL OF POLITICAL PHILOSOPHY
p2601
sg9
VEtzioni, A
p2602
sg11
V2001
p2603
sg13
VArticle
p2604
sa(dp2605
g3
VWOS:000249180400002
p2606
sg5
VWhy lotteries are just
p2607
sg7
VJOURNAL OF POLITICAL PHILOSOPHY
p2608
sg9
VStone, Peter
p2609
sg11
V2007
p2610
sg13
VArticle
p2611
sa(dp2612
g3
VWOS:000246685700003
p2613
sg5
VAct and circumstance in the crime of aggression
p2614
sg7
VJOURNAL OF POLITICAL PHILOSOPHY
p2615
sg9
VMay, Larry
p2616
sg11
V2007
p2617
sg13
VArticle
p2618
sa(dp2619
g3
VWOS:000088862000003
p2620
sg5
VIn defence of pure pluralism: Two readings of Walzer's spheres of justice
p2621
sg7
VJOURNAL OF POLITICAL PHILOSOPHY
p2622
sg9
VTrappenburg, M
p2623
sg11
V2000
p2624
sg13
VArticle
p2625
sa(dp2626
g3
VWOS:000243870200006
p2627
sg5
VDebate: Agonism as deliberation - On Mouffe's theory of democracy
p2628
sg7
VJOURNAL OF POLITICAL PHILOSOPHY
p2629
sg9
VKnops, Andrew
p2630
sg11
V2007
p2631
sg13
VArticle
p2632
sa(dp2633
g3
VWOS:000236738400002
p2634
sg5
VPolitical agency in liberal democracy
p2635
sg7
VJOURNAL OF POLITICAL PHILOSOPHY
p2636
sg9
VCi, JW
p2637
sg11
V2006
p2638
sg13
VArticle
p2639
sa(dp2640
g3
VWOS:000227380900005
p2641
sg5
VSurvey article: Critical legal theory (without modifiers) in the United States
p2642
sg7
VJOURNAL OF POLITICAL PHILOSOPHY
p2643
sg9
VTushnet, M
p2644
sg11
V2005
p2645
sg13
VArticle
p2646
sa(dp2647
g3
VWOS:000407040000004
p2648
sg5
VRights Forfeiture and Liability to Harm
p2649
sg7
VJOURNAL OF POLITICAL PHILOSOPHY
p2650
sg9
VRenzo, Massimo
p2651
sg11
V2017
p2652
sg13
VArticle
p2653
sa(dp2654
g3
VWOS:000373931500006
p2655
sg5
VDebate: Why Does the Excellent Citizen Vote?
p2656
sg7
VJOURNAL OF POLITICAL PHILOSOPHY
p2657
sg9
VMaring, Luke
p2658
sg11
V2016
p2659
sg13
VArticle
p2660
sa(dp2661
g3
VWOS:000348448500002
p2662
sg5
VWeapons, Security, and Oppression: A Normative Study of International Arms Transfers
p2663
sg7
VJOURNAL OF POLITICAL PHILOSOPHY
p2664
sg9
VChristensen, James
p2665
sg11
V2015
p2666
sg13
VArticle
p2667
sa(dp2668
g3
VWOS:000075477200005
p2669
sg5
VStates are not "like units": Types of state and forms of anarchy in the present international system
p2670
sg7
VJOURNAL OF POLITICAL PHILOSOPHY
p2671
sg9
VSorensen, G
p2672
sg11
V1998
p2673
sg13
VArticle
p2674
sa(dp2675
g3
VWOS:000329288300006
p2676
sg5
VRawlzickian Global Politics
p2677
sg7
VJOURNAL OF POLITICAL PHILOSOPHY
p2678
sg9
VNili, Shmuel
p2679
sg11
V2013
p2680
sg13
VArticle
p2681
sa(dp2682
g3
VWOS:000188987500003
p2683
sg5
VArguing for majority rule
p2684
sg7
VJOURNAL OF POLITICAL PHILOSOPHY
p2685
sg9
VRisse, M
p2686
sg11
V2004
p2687
sg13
VArticle
p2688
sa(dp2689
g3
VWOS:000315051800006
p2690
sg5
VEducating Children to Comply with Laws*
p2691
sg7
VJOURNAL OF POLITICAL PHILOSOPHY
p2692
sg9
VMacMullen, Ian
p2693
sg11
V2013
p2694
sg13
VArticle
p2695
sa(dp2696
g3
VWOS:000293093700003
p2697
sg5
VJustice in the Diffusion of Innovation
p2698
sg7
VJOURNAL OF POLITICAL PHILOSOPHY
p2699
sg9
VBuchanan, Allen
p2700
sg11
V2011
p2701
sg13
VArticle
p2702
sa(dp2703
g3
VWOS:000289472300002
p2704
sg5
VCivil Disobedience and the Public Sphere
p2705
sg7
VJOURNAL OF POLITICAL PHILOSOPHY
p2706
sg9
VSmith, William
p2707
sg11
V2011
p2708
sg13
VArticle
p2709
sa(dp2710
g3
VWOS:000261065400003
p2711
sg5
VLive-in Domestics, Seasonal Workers, and Others Hard to Locate on the Map of Democracy
p2712
sg7
VJOURNAL OF POLITICAL PHILOSOPHY
p2713
sg9
VCarens, Joseph H.
p2714
sg11
V2008
p2715
sg13
VArticle
p2716
sa(dp2717
g3
VWOS:000265146600002
p2718
sg5
VCollective Agents and Group Moral Rights
p2719
sg7
VJOURNAL OF POLITICAL PHILOSOPHY
p2720
sg9
VMoltchanova, Anna
p2721
sg11
V2009
p2722
sg13
VArticle
p2723
sa(dp2724
g3
VWOS:000172315100006
p2725
sg5
VSurvey article: The worth of nations
p2726
sg7
VJOURNAL OF POLITICAL PHILOSOPHY
p2727
sg9
VFrost, CM
p2728
sg11
V2001
p2729
sg13
VArticle
p2730
sa(dp2731
g3
VWOS:000172315100002
p2732
sg5
VThe value of ownership
p2733
sg7
VJOURNAL OF POLITICAL PHILOSOPHY
p2734
sg9
VDan-Cohen, M
p2735
sg11
V2001
p2736
sg13
VArticle
p2737
sa(dp2738
g3
VWOS:000087629700003
p2739
sg5
VDuties of justice, duties of material aid: Cicero's problematic legacy
p2740
sg7
VJOURNAL OF POLITICAL PHILOSOPHY
p2741
sg9
VNussbaum, MC
p2742
sg11
V2000
p2743
sg13
VArticle
p2744
sa(dp2745
g3
VWOS:000253257300002
p2746
sg5
VSei Shonagon and the politics of form
p2747
sg7
VJOURNAL OF POLITICAL PHILOSOPHY
p2748
sg9
VWeiss, Penny
p2749
sg11
V2008
p2750
sg13
VArticle
p2751
sa(dp2752
g3
VWOS:000087629700005
p2753
sg5
VWhat is Cosmopolitan?
p2754
sg7
VJOURNAL OF POLITICAL PHILOSOPHY
p2755
sg9
VWaldron, J
p2756
sg11
V2000
p2757
sg13
VArticle
p2758
sa(dp2759
g3
VWOS:000239622800003
p2760
sg5
VCapabilities and freedom
p2761
sg7
VJOURNAL OF POLITICAL PHILOSOPHY
p2762
sg9
VKaufman, Alexander
p2763
sg11
V2006
p2764
sg13
VArticle
p2765
sa(dp2766
g3
VWOS:000236738400003
p2767
sg5
VA third way in the race debate
p2768
sg7
VJOURNAL OF POLITICAL PHILOSOPHY
p2769
sg9
VGlasgow, J
p2770
sg11
V2006
p2771
sg13
VArticle
p2772
sa(dp2773
g3
VWOS:000233286900003
p2774
sg5
VShould we value population?
p2775
sg7
VJOURNAL OF POLITICAL PHILOSOPHY
p2776
sg9
VBroome, J
p2777
sg11
V2005
p2778
sg13
VArticle
p2779
sa(dp2780
g3
VWOS:000450033000005
p2781
sg5
VSurvey Article: Pluralist Neutrality
p2782
sg7
VJOURNAL OF POLITICAL PHILOSOPHY
p2783
sg9
VTahzib, Collis
p2784
sg11
V2018
p2785
sg13
VArticle
p2786
sa(dp2787
g3
VWOS:000416419900010
p2788
sg5
VSurvey Article: On the Nature of the Political Concept of Privilege
p2789
sg7
VJOURNAL OF POLITICAL PHILOSOPHY
p2790
sg9
VMcKinnon, Rachel
p2791
sg11
V2017
p2792
sg13
VArticle
p2793
sa(dp2794
g3
VWOS:000400994800001
p2795
sg5
VThe Normative Logic of Religious Liberty
p2796
sg7
VJOURNAL OF POLITICAL PHILOSOPHY
p2797
sg9
VPatten, Alan
p2798
sg11
V2017
p2799
sg13
VArticle
p2800
sa(dp2801
g3
VWOS:000224804100002
p2802
sg5
VBehind closed doors: Publicity, secrecy, and the quality of deliberation
p2803
sg7
VJOURNAL OF POLITICAL PHILOSOPHY
p2804
sg9
VChambers, S
p2805
sg11
V2004
p2806
sg13
VArticle
p2807
sa(dp2808
g3
VWOS:000348448500001
p2809
sg5
VPrioritarianism and the Measure of Utility
p2810
sg7
VJOURNAL OF POLITICAL PHILOSOPHY
p2811
sg9
VOtsuka, Michael
p2812
sg11
V2015
p2813
sg13
VArticle
p2814
sa(dp2815
g3
VWOS:000334883000001
p2816
sg5
VTwo Kinds of Climate Justice: Avoiding Harm and Sharing Burdens
p2817
sg7
VJOURNAL OF POLITICAL PHILOSOPHY
p2818
sg9
VCaney, Simon
p2819
sg11
V2014
p2820
sg13
VArticle
p2821
sa(dp2822
g3
VWOS:000306893600001
p2823
sg5
VLiberal Neutrality: A Reinterpretation and Defense
p2824
sg7
VJOURNAL OF POLITICAL PHILOSOPHY
p2825
sg9
VPatten, Alan
p2826
sg11
V2012
p2827
sg13
VArticle
p2828
sa(dp2829
g3
VWOS:000289472300004
p2830
sg5
VCollective Responsibility and the State
p2831
sg7
VJOURNAL OF POLITICAL PHILOSOPHY
p2832
sg9
VStilz, Anna
p2833
sg11
V2011
p2834
sg13
VArticle
p2835
sa(dp2836
g3
VWOS:000303857600001
p2837
sg5
VThe Institutional Division of Labor and the Egalitarian Obligations of Nonprofits
p2838
sg7
VJOURNAL OF POLITICAL PHILOSOPHY
p2839
sg9
VCordelli, Chiara
p2840
sg11
V2012
p2841
sg13
VArticle
p2842
sa(dp2843
g3
VWOS:000286618700004
p2844
sg5
VLeft-Libertarianism: Rawlsian Not Luck Egalitarian
p2845
sg7
VJOURNAL OF POLITICAL PHILOSOPHY
p2846
sg9
VQuong, Jonathan
p2847
sg11
V2011
p2848
sg13
VArticle
p2849
sa(dp2850
g3
VWOS:000183024400005
p2851
sg5
VFanaticism, toleration and philosophy
p2852
sg7
VJOURNAL OF POLITICAL PHILOSOPHY
p2853
sg9
VPassmore, J
p2854
sg11
V2003
p2855
sg13
VArticle
p2856
sa(dp2857
g3
VWOS:000177949700006
p2858
sg5
VSurvey article: The Nascent political philosophy of the European polity
p2859
sg7
VJOURNAL OF POLITICAL PHILOSOPHY
p2860
sg9
VFriese, H
p2861
sg11
V2002
p2862
sg13
VArticle
p2863
sa(dp2864
g3
VWOS:000179604300005
p2865
sg5
VDebate: Reproducing the Contractarian state
p2866
sg7
VJOURNAL OF POLITICAL PHILOSOPHY
p2867
sg9
VMulgan, T
p2868
sg11
V2002
p2869
sg13
VArticle
p2870
sa(dp2871
g3
VWOS:000083983200007
p2872
sg5
VArneson on equality of opportunity for welfare
p2873
sg7
VJOURNAL OF POLITICAL PHILOSOPHY
p2874
sg9
VLippert-Rasmussen, K
p2875
sg11
V1999
p2876
sg13
VArticle
p2877
sa(dp2878
g3
VWOS:000075477200003
p2879
sg5
VThere's no such thing as heresy (and it's a good thing, too): William of Ockham on freedom of speech
p2880
sg7
VJOURNAL OF POLITICAL PHILOSOPHY
p2881
sg9
VKaye, S
p2882
sg11
V1998
p2883
sg13
VArticle
p2884
sa(dp2885
g3
VWOS:000255212700001
p2886
sg5
VJus ex bello
p2887
sg7
VJOURNAL OF POLITICAL PHILOSOPHY
p2888
sg9
VMollendorf, Darrel
p2889
sg11
V2008
p2890
sg13
VArticle
p2891
sa(dp2892
g3
VWOS:000255212700004
p2893
sg5
VScanlon on substantive responsibility
p2894
sg7
VJOURNAL OF POLITICAL PHILOSOPHY
p2895
sg9
VVoorhoeve, Alex
p2896
sg11
V2008
p2897
sg13
VArticle
p2898
sa(dp2899
g3
VWOS:000249180400003
p2900
sg5
VDistribution and emergency
p2901
sg7
VJOURNAL OF POLITICAL PHILOSOPHY
p2902
sg9
VRubenstein, Jennifer
p2903
sg11
V2007
p2904
sg13
VArticle
p2905
sa(dp2906
g3
VWOS:000243870200004
p2907
sg5
VThe secular state and religious conflict: Liberal neutrality and the Indian case of pluralism
p2908
sg7
VJOURNAL OF POLITICAL PHILOSOPHY
p2909
sg9
VBalagangadhara, S. N.
p2910
sg11
V2007
p2911
sg13
VArticle
p2912
sa(dp2913
g3
VWOS:000241773000002
p2914
sg5
VCommons-based peer production and virtue
p2915
sg7
VJOURNAL OF POLITICAL PHILOSOPHY
p2916
sg9
VBenkler, Yochai
p2917
sg11
V2006
p2918
sg13
VArticle
p2919
sa(dp2920
g3
VWOS:000236738400001
p2921
sg5
VToleration, recognition and identity
p2922
sg7
VJOURNAL OF POLITICAL PHILOSOPHY
p2923
sg9
VJones, P
p2924
sg11
V2006
p2925
sg13
VArticle
p2926
sa(dp2927
g3
VWOS:000424158300003
p2928
sg5
VPublic Reason-Honesty, Not Sincerity
p2929
sg7
VJOURNAL OF POLITICAL PHILOSOPHY
p2930
sg9
VCarey, Brian
p2931
sg11
V2018
p2932
sg13
VArticle
p2933
sa(dp2934
g3
VWOS:000416419900006
p2935
sg5
VThe Social Ontology of Deliberating Bodies
p2936
sg7
VJOURNAL OF POLITICAL PHILOSOPHY
p2937
sg9
VUrfalino, Philippe
p2938
sg11
V2017
p2939
sg13
VArticle
p2940
sa(dp2941
g3
VWOS:000363873000002
p2942
sg5
VTowards a Shared Redress: Achieving Historical Justice Through Democratic Deliberation
p2943
sg7
VJOURNAL OF POLITICAL PHILOSOPHY
p2944
sg9
VAmighetti, Sara
p2945
sg11
V2015
p2946
sg13
VArticle
p2947
sa(dp2948
g3
VWOS:000340526800005
p2949
sg5
VOn Traditional African Consensual Rationality
p2950
sg7
VJOURNAL OF POLITICAL PHILOSOPHY
p2951
sg9
VAni, Emmanuel Ifeanyi
p2952
sg11
V2014
p2953
sg13
VArticle
p2954
sa(dp2955
g3
VWOS:000179604300001
p2956
sg5
VSocial unity and the identity of persons
p2957
sg7
VJOURNAL OF POLITICAL PHILOSOPHY
p2958
sg9
VCopp, D
p2959
sg11
V2002
p2960
sg13
VArticle
p2961
sa(dp2962
g3
VWOS:000280124600001
p2963
sg5
VThe Better Angels of Our Nature: Patriotism and Dirty Hands
p2964
sg7
VJOURNAL OF POLITICAL PHILOSOPHY
p2965
sg9
VCallan, Eamonn
p2966
sg11
V2010
p2967
sg13
VArticle
p2968
sa(dp2969
g3
VWOS:000177949700001
p2970
sg5
VWhat is crime against humanity?
p2971
sg7
VJOURNAL OF POLITICAL PHILOSOPHY
p2972
sg9
VVernon, R
p2973
sg11
V2002
p2974
sg13
VArticle
p2975
sa(dp2976
g3
VWOS:000265146600004
p2977
sg5
VConsent to Sex: The Liberal Paradigm Reformulated
p2978
sg7
VJOURNAL OF POLITICAL PHILOSOPHY
p2979
sg9
VStinchcombe, Arthur L.
p2980
sg11
V2009
p2981
sg13
VArticle
p2982
sa(dp2983
g3
VWOS:000265146600001
p2984
sg5
VAuthorisation and Authenticity: Representation and the Unelected
p2985
sg7
VJOURNAL OF POLITICAL PHILOSOPHY
p2986
sg9
VSaward, Michael
p2987
sg11
V2009
p2988
sg13
VArticle
p2989
sa(dp2990
g3
VWOS:000265146500005
p2991
sg5
VConspiracy Theories: Causes and Cures
p2992
sg7
VJOURNAL OF POLITICAL PHILOSOPHY
p2993
sg9
VSunstein, Cass R.
p2994
sg11
V2009
p2995
sg13
VArticle
p2996
sa(dp2997
g3
VWOS:000265146500001
p2998
sg5
VSpecial Responsibility and the Appeal to Cost
p2999
sg7
VJOURNAL OF POLITICAL PHILOSOPHY
p3000
sg9
VHaydar, Bashshar
p3001
sg11
V2009
p3002
sg13
VArticle
p3003
sa(dp3004
g3
VWOS:000170632800005
p3005
sg5
VDebate: Should constitutions protect the right to secede? A reply to Weinstock
p3006
sg7
VJOURNAL OF POLITICAL PHILOSOPHY
p3007
sg9
VSunstein, CR
p3008
sg11
V2001
p3009
sg13
VArticle
p3010
sa(dp3011
g3
VWOS:000169072100003
p3012
sg5
VIs it a crime to belong to a reference class?
p3013
sg7
VJOURNAL OF POLITICAL PHILOSOPHY
p3014
sg9
VColyvan, M
p3015
sg11
V2001
p3016
sg13
VArticle
p3017
sa(dp3018
g3
VWOS:000165756600002
p3019
sg5
V'Not empire, but equality': Mary Wollstonecraft, the marriage state and the sexual contract'
p3020
sg7
VJOURNAL OF POLITICAL PHILOSOPHY
p3021
sg9
VBrace, L
p3022
sg11
V2000
p3023
sg13
VArticle
p3024
sa(dp3025
g3
VWOS:000258581800003
p3026
sg5
VDerrida on free decision: Between Habermas' discursivism and Schmitt's decisionism
p3027
sg7
VJOURNAL OF POLITICAL PHILOSOPHY
p3028
sg9
VUngureanu, Camil
p3029
sg11
V2008
p3030
sg13
VArticle
p3031
sa(dp3032
g3
VWOS:000258581800005
p3033
sg5
VDebate: Universal self-ownership and the fruits of one's labour: A reply to Curchin
p3034
sg7
VJOURNAL OF POLITICAL PHILOSOPHY
p3035
sg9
VSteiner, Hillel
p3036
sg11
V2008
p3037
sg13
VArticle
p3038
sa(dp3039
g3
VWOS:000253257300006
p3040
sg5
VDebate: The concept of voluntariness - A reply
p3041
sg7
VJOURNAL OF POLITICAL PHILOSOPHY
p3042
sg9
VOslaretti, Serena
p3043
sg11
V2008
p3044
sg13
VEditorial Material
p3045
sa(dp3046
g3
VWOS:000249180400001
p3047
sg5
VPredator and prey: Seizing and killing suspected terrorists abroad
p3048
sg7
VJOURNAL OF POLITICAL PHILOSOPHY
p3049
sg9
VRatner, Steven R.
p3050
sg11
V2007
p3051
sg13
VArticle
p3052
sa(dp3053
g3
VWOS:000239622800004
p3054
sg5
VReasoning about well-being: Nussbaum's methods of justifying the capabilities
p3055
sg7
VJOURNAL OF POLITICAL PHILOSOPHY
p3056
sg9
VJaggar, Alison M.
p3057
sg11
V2006
p3058
sg13
VArticle
p3059
sa(dp3060
g3
VWOS:000416419900005
p3061
sg5
VSurvey Article: Relational Equality and Distribution
p3062
sg7
VJOURNAL OF POLITICAL PHILOSOPHY
p3063
sg9
VElford, Gideon
p3064
sg11
V2017
p3065
sg13
VArticle
p3066
sa(dp3067
g3
VWOS:000407040000003
p3068
sg5
VWhat is a Nation in Nationalism?
p3069
sg7
VJOURNAL OF POLITICAL PHILOSOPHY
p3070
sg9
VPodoksik, Efraim
p3071
sg11
V2017
p3072
sg13
VArticle
p3073
sa(dp3074
g3
VWOS:000363873000007
p3075
sg5
VDebate: Liberal Virtues and Civic Education
p3076
sg7
VJOURNAL OF POLITICAL PHILOSOPHY
p3077
sg9
VCallan, Eamonn K.
p3078
sg11
V2015
p3079
sg13
VEditorial Material
p3080
sa(dp3081
g3
VWOS:000223155900005
p3082
sg5
VRepublican cosmopolitanism
p3083
sg7
VJOURNAL OF POLITICAL PHILOSOPHY
p3084
sg9
VBohman, J
p3085
sg11
V2004
p3086
sg13
VArticle
p3087
sa(dp3088
g3
VWOS:000334883000005
p3089
sg5
VOn Citizenship, States, and Markets
p3090
sg7
VJOURNAL OF POLITICAL PHILOSOPHY
p3091
sg9
VShachar, Ayelet
p3092
sg11
V2014
p3093
sg13
VArticle
p3094
sa(dp3095
g3
VWOS:000186897300001
p3096
sg5
VA liberalism of conscience
p3097
sg7
VJOURNAL OF POLITICAL PHILOSOPHY
p3098
sg9
VSwaine, L
p3099
sg11
V2003
p3100
sg13
VArticle
p3101
sa(dp3102
g3
VWOS:000310800500001
p3103
sg5
VDynamics of Solidarity
p3104
sg7
VJOURNAL OF POLITICAL PHILOSOPHY
p3105
sg9
VKolers, Avery H.
p3106
sg11
V2012
p3107
sg13
VArticle
p3108
sa(dp3109
g3
VWOS:000286618700002
p3110
sg5
VTheocrats Living under Secular Law: An External Engagement with Islamic Legal Theory
p3111
sg7
VJOURNAL OF POLITICAL PHILOSOPHY
p3112
sg9
VMarch, Andrew F.
p3113
sg11
V2011
p3114
sg13
VArticle
p3115
sa(dp3116
g3
VWOS:000082232800006
p3117
sg5
VMulticultural democracy
p3118
sg7
VJOURNAL OF POLITICAL PHILOSOPHY
p3119
sg9
VJaggar, AM
p3120
sg11
V1999
p3121
sg13
VArticle
p3122
sa(dp3123
g3
VWOS:000181307500006
p3124
sg5
VDemocracy as a non-instrumentally just procedure
p3125
sg7
VJOURNAL OF POLITICAL PHILOSOPHY
p3126
sg9
VGriffin, CG
p3127
sg11
V2003
p3128
sg13
VArticle
p3129
sa(dp3130
g3
VWOS:000280124600004
p3131
sg5
VNational Self-Determination, Global Equality and Moral Arbitrariness
p3132
sg7
VJOURNAL OF POLITICAL PHILOSOPHY
p3133
sg9
VArmstrong, Chris
p3134
sg11
V2010
p3135
sg13
VArticle
p3136
sa(dp3137
g3
VWOS:000276793500003
p3138
sg5
VSufficiency: Restated and Defended
p3139
sg7
VJOURNAL OF POLITICAL PHILOSOPHY
p3140
sg9
VHuseby, Robert
p3141
sg11
V2010
p3142
sg13
VArticle
p3143
sa(dp3144
g3
VWOS:000261065400004
p3145
sg5
VOn Future Generations' Future Rights
p3146
sg7
VJOURNAL OF POLITICAL PHILOSOPHY
p3147
sg9
VGosseries, Axel
p3148
sg11
V2008
p3149
sg13
VArticle
p3150
sa(dp3151
g3
VWOS:000261065400002
p3152
sg5
VJustice in Migration: A Closed Borders Utopia?
p3153
sg7
VJOURNAL OF POLITICAL PHILOSOPHY
p3154
sg9
VYpi, Lea
p3155
sg11
V2008
p3156
sg13
VArticle
p3157
sa(dp3158
g3
VWOS:000170632800003
p3159
sg5
VLooking forward to justice: Rawlsian civil disobedience and its non-Rawlsian lessons
p3160
sg7
VJOURNAL OF POLITICAL PHILOSOPHY
p3161
sg9
VSabl, A
p3162
sg11
V2001
p3163
sg13
VArticle
p3164
sa(dp3165
g3
VWOS:000169072100004
p3166
sg5
VConstitutionalizing the right to secede
p3167
sg7
VJOURNAL OF POLITICAL PHILOSOPHY
p3168
sg9
VWeinstock, D
p3169
sg11
V2001
p3170
sg13
VArticle
p3171
sa(dp3172
g3
VWOS:000082232800003
p3173
sg5
VLiberty and union: A Madisonian view
p3174
sg7
VJOURNAL OF POLITICAL PHILOSOPHY
p3175
sg9
VKersh, R
p3176
sg11
V1999
p3177
sg13
VArticle
p3178
sa(dp3179
g3
VWOS:000080711100002
p3180
sg5
VRationality, democracy and leaky boundaries: Vertical vs. horizontal modularity
p3181
sg7
VJOURNAL OF POLITICAL PHILOSOPHY
p3182
sg9
VHurley, SL
p3183
sg11
V1999
p3184
sg13
VArticle
p3185
sa(dp3186
g3
VWOS:000078778900005
p3187
sg5
VThe good society
p3188
sg7
VJOURNAL OF POLITICAL PHILOSOPHY
p3189
sg9
VEtzioni, A
p3190
sg11
V1999
p3191
sg13
VArticle
p3192
sa(dp3193
g3
VWOS:000233286900006
p3194
sg5
VGenerations at war or sustainable social policy in ageing societies?
p3195
sg7
VJOURNAL OF POLITICAL PHILOSOPHY
p3196
sg9
VLindh, T
p3197
sg11
V2005
p3198
sg13
VArticle
p3199
sa(dp3200
g3
VWOS:000442493900008
p3201
sg5
VEurozone Justice
p3202
sg7
VJOURNAL OF POLITICAL PHILOSOPHY
p3203
sg9
VViehoff, Juri
p3204
sg11
V2018
p3205
sg13
VArticle
p3206
sa(dp3207
g3
VWOS:000431658000002
p3208
sg5
VUnder Pressure: Political Liberalism, the Rise of Unreasonableness, and the Complexity of Containment
p3209
sg7
VJOURNAL OF POLITICAL PHILOSOPHY
p3210
sg9
VBadano, Gabriele
p3211
sg11
V2018
p3212
sg13
VArticle
p3213
sa(dp3214
g3
VWOS:000227380900003
p3215
sg5
VFichte and the idea of liberal socialism
p3216
sg7
VJOURNAL OF POLITICAL PHILOSOPHY
p3217
sg9
VNomer, N
p3218
sg11
V2005
p3219
sg13
VArticle
p3220
sa(dp3221
g3
VWOS:000407040000005
p3222
sg5
VSurvey Article: Philosophy and Public Policy after Piketty
p3223
sg7
VJOURNAL OF POLITICAL PHILOSOPHY
p3224
sg9
VO'Neill, Martin
p3225
sg11
V2017
p3226
sg13
VReview
p3227
sa(dp3228
g3
VWOS:000387346000001
p3229
sg5
VFreedom of Association and the Temporal Coordination Problem
p3230
sg7
VJOURNAL OF POLITICAL PHILOSOPHY
p3231
sg9
VRose, Julie L.
p3232
sg11
V2016
p3233
sg13
VArticle
p3234
sa(dp3235
g3
VWOS:000387346500001
p3236
sg5
VThe Ethics of Electioneering
p3237
sg7
VJOURNAL OF POLITICAL PHILOSOPHY
p3238
sg9
VBeerbohm, Eric
p3239
sg11
V2016
p3240
sg13
VArticle
p3241
sa(dp3242
g3
VWOS:000363873000005
p3243
sg5
VResistance to Unjust Immigration Restrictions
p3244
sg7
VJOURNAL OF POLITICAL PHILOSOPHY
p3245
sg9
VHidalgo, Javier
p3246
sg11
V2015
p3247
sg13
VArticle
p3248
sa(dp3249
g3
VWOS:000354293000003
p3250
sg5
VThe Toss-Up Between a Profiting, Innocent Threat and His Victim
p3251
sg7
VJOURNAL OF POLITICAL PHILOSOPHY
p3252
sg9
VBurri, Susanne
p3253
sg11
V2015
p3254
sg13
VArticle
p3255
sa(dp3256
g3
VWOS:000345223800006
p3257
sg5
VDebate: Brandom and Political Philosophy
p3258
sg7
VJOURNAL OF POLITICAL PHILOSOPHY
p3259
sg9
VErman, Eva
p3260
sg11
V2014
p3261
sg13
VArticle
p3262
sa(dp3263
g3
VWOS:000340526800002
p3264
sg5
VDemocratic Consensus as an Essential Byproduct
p3265
sg7
VJOURNAL OF POLITICAL PHILOSOPHY
p3266
sg9
VFuerstein, Michael
p3267
sg11
V2014
p3268
sg13
VArticle
p3269
sa(dp3270
g3
VWOS:000340526800001
p3271
sg5
VCultural Code-Switching: Straddling the Achievement Gap
p3272
sg7
VJOURNAL OF POLITICAL PHILOSOPHY
p3273
sg9
VMorton, Jennifer M.
p3274
sg11
V2014
p3275
sg13
VArticle
p3276
sa(dp3277
g3
VWOS:000318878500001
p3278
sg5
VAgency and Other Stakes of Poverty*
p3279
sg7
VJOURNAL OF POLITICAL PHILOSOPHY
p3280
sg9
VCi, Jiwei
p3281
sg11
V2013
p3282
sg13
VArticle
p3283
sa(dp3284
g3
VWOS:000188987500005
p3285
sg5
VCan justice be based on consent?
p3286
sg7
VJOURNAL OF POLITICAL PHILOSOPHY
p3287
sg9
VLovett, F
p3288
sg11
V2004
p3289
sg13
VArticle
p3290
sa(dp3291
g3
VWOS:000177949700004
p3292
sg5
VThe publicity of law and the regulatory state
p3293
sg7
VJOURNAL OF POLITICAL PHILOSOPHY
p3294
sg9
VLuban, D
p3295
sg11
V2002
p3296
sg13
VArticle
p3297
sa(dp3298
g3
VWOS:000174158100002
p3299
sg5
VSelf-ownership and property in the person: Democratization and a tale of two concepts
p3300
sg7
VJOURNAL OF POLITICAL PHILOSOPHY
p3301
sg9
VPateman, C
p3302
sg11
V2002
p3303
sg13
VArticle
p3304
sa(dp3305
g3
VWOS:000265146600006
p3306
sg5
VSurvey Article: The Justification of Minority Language Rights
p3307
sg7
VJOURNAL OF POLITICAL PHILOSOPHY
p3308
sg9
VPatten, Alan
p3309
sg11
V2009
p3310
sg13
VArticle
p3311
sa(dp3312
g3
VWOS:000167195500003
p3313
sg5
VOn tolerating the unreasonable
p3314
sg7
VJOURNAL OF POLITICAL PHILOSOPHY
p3315
sg9
VKelly, E
p3316
sg11
V2001
p3317
sg13
VArticle
p3318
sa(dp3319
g3
VWOS:000172315100001
p3320
sg5
VThe emergence and demise of nascent constitutional rights: Comparing ancient China and early modern Europe
p3321
sg7
VJOURNAL OF POLITICAL PHILOSOPHY
p3322
sg9
VHui, VTB
p3323
sg11
V2001
p3324
sg13
VArticle
p3325
sa(dp3326
g3
VWOS:000167195500002
p3327
sg5
VThe social construction of talent: A defence of justice as reciprocity
p3328
sg7
VJOURNAL OF POLITICAL PHILOSOPHY
p3329
sg9
VSmith, SR
p3330
sg11
V2001
p3331
sg13
VArticle
p3332
sa(dp3333
g3
VWOS:000077438100002
p3334
sg5
VStorytelling, sympathy and moral judgment in American abolitionism
p3335
sg7
VJOURNAL OF POLITICAL PHILOSOPHY
p3336
sg9
VSmith, KK
p3337
sg11
V1998
p3338
sg13
VArticle
p3339
sa(dp3340
g3
VWOS:000087629700002
p3341
sg5
VRights to life? On nature, property and biotechnology
p3342
sg7
VJOURNAL OF POLITICAL PHILOSOPHY
p3343
sg9
VMeyer, JM
p3344
sg11
V2000
p3345
sg13
VArticle
p3346
sa(dp3347
g3
VWOS:000258581800002
p3348
sg5
VPower: A pragmatist, deliberative (and Radical) View
p3349
sg7
VJOURNAL OF POLITICAL PHILOSOPHY
p3350
sg9
VRon, Amit
p3351
sg11
V2008
p3352
sg13
VArticle
p3353
sa(dp3354
g3
VWOS:000253257300005
p3355
sg5
VDebate: The concept of voluntariness
p3356
sg7
VJOURNAL OF POLITICAL PHILOSOPHY
p3357
sg9
VColburn, Ben
p3358
sg11
V2008
p3359
sg13
VArticle
p3360
sa(dp3361
g3
VWOS:000250984800007
p3362
sg5
VDebate: Evading the paradox of universal self-ownership
p3363
sg7
VJOURNAL OF POLITICAL PHILOSOPHY
p3364
sg9
VCurchin, Katherine
p3365
sg11
V2007
p3366
sg13
VArticle
p3367
sa(dp3368
g3
VWOS:000241773000006
p3369
sg5
VDebate: Is everything really up for grabs? The relationship between democratic values and a democratic process
p3370
sg7
VJOURNAL OF POLITICAL PHILOSOPHY
p3371
sg9
VKassner, Joshua
p3372
sg11
V2006
p3373
sg13
VArticle
p3374
sa(dp3375
g3
VWOS:000239622800007
p3376
sg5
VThe capability approach in practice
p3377
sg7
VJOURNAL OF POLITICAL PHILOSOPHY
p3378
sg9
VRobeyns, Ingrid
p3379
sg11
V2006
p3380
sg13
VArticle
p3381
sa(dp3382
g3
VWOS:000235332800001
p3383
sg5
VIs terrorism morally distinctive?
p3384
sg7
VJOURNAL OF POLITICAL PHILOSOPHY
p3385
sg9
VScheffler, S
p3386
sg11
V2006
p3387
sg13
VArticle
p3388
sa(dp3389
g3
VWOS:000431658000003
p3390
sg5
VAnonymity, Pseudonymity, and Deliberation: Why Not Everything Should Be Connected
p3391
sg7
VJOURNAL OF POLITICAL PHILOSOPHY
p3392
sg9
VMoore, Alfred
p3393
sg11
V2018
p3394
sg13
VArticle
p3395
sa(dp3396
g3
VWOS:000424158300005
p3397
sg5
VInstitutional Legitimacy
p3398
sg7
VJOURNAL OF POLITICAL PHILOSOPHY
p3399
sg9
VAdams, N. P.
p3400
sg11
V2018
p3401
sg13
VArticle
p3402
sa(dp3403
g3
VWOS:000227380900002
p3404
sg5
VResolving interpretive conflicts in international human rights law
p3405
sg7
VJOURNAL OF POLITICAL PHILOSOPHY
p3406
sg9
VHessler, K
p3407
sg11
V2005
p3408
sg13
VArticle
p3409
sa(dp3410
g3
VWOS:000407040000002
p3411
sg5
VA Defense of Individualism in the Age of Corporate Rights
p3412
sg7
VJOURNAL OF POLITICAL PHILOSOPHY
p3413
sg9
VRafanelli, Lucia M.
p3414
sg11
V2017
p3415
sg13
VArticle
p3416
sa(dp3417
g3
VWOS:000394909000006
p3418
sg5
VWhat to Do with Corporate Wealth
p3419
sg7
VJOURNAL OF POLITICAL PHILOSOPHY
p3420
sg9
VStrudler, Alan
p3421
sg11
V2017
p3422
sg13
VArticle
p3423
sa(dp3424
g3
VWOS:000394909000002
p3425
sg5
VGovernment Speech and Public Opinion: Democracy by the Bootstraps
p3426
sg7
VJOURNAL OF POLITICAL PHILOSOPHY
p3427
sg9
VRowbottom, Jacob
p3428
sg11
V2017
p3429
sg13
VArticle
p3430
sa(dp3431
g3
VWOS:000394909000004
p3432
sg5
VAffirmative Action, Historical Injustice, and the Concept of Beneficiaries
p3433
sg7
VJOURNAL OF POLITICAL PHILOSOPHY
p3434
sg9
VLippert-Rasmussen, Kasper
p3435
sg11
V2017
p3436
sg13
VArticle
p3437
sa(dp3438
g3
VWOS:000387346000006
p3439
sg5
VDebate: Immigrants and Newcomers by Birth-Do Statist Arguments Imply a Right to Exclude Both?
p3440
sg7
VJOURNAL OF POLITICAL PHILOSOPHY
p3441
sg9
VBrezger, Jan
p3442
sg11
V2016
p3443
sg13
VArticle
p3444
sa(dp3445
g3
VWOS:000373931500004
p3446
sg5
VConceptualizing Adaptive Preferences Respectfully: An Indirectly Substantive Account
p3447
sg7
VJOURNAL OF POLITICAL PHILOSOPHY
p3448
sg9
VTerlazzo, Rosa
p3449
sg11
V2016
p3450
sg13
VArticle
p3451
sa(dp3452
g3
VWOS:000363873000004
p3453
sg5
VRecent Theories of Civil Disobedience: An Anti-Legal Turn ?
p3454
sg7
VJOURNAL OF POLITICAL PHILOSOPHY
p3455
sg9
VScheuerman, William E.
p3456
sg11
V2015
p3457
sg13
VArticle
p3458
sa(dp3459
g3
VWOS:000310800500005
p3460
sg5
VFuzzy Citizenship in Global Society
p3461
sg7
VJOURNAL OF POLITICAL PHILOSOPHY
p3462
sg9
VKoenig-Archibugi, Mathias
p3463
sg11
V2012
p3464
sg13
VArticle
p3465
sa(dp3466
g3
VWOS:000300006300001
p3467
sg5
VOn Compromise and Being Compromised
p3468
sg7
VJOURNAL OF POLITICAL PHILOSOPHY
p3469
sg9
VLepora, Chiara
p3470
sg11
V2012
p3471
sg13
VArticle
p3472
sa(dp3473
g3
VWOS:000297027300006
p3474
sg5
VDebate: The Myth of 'Merely Formal Freedom'
p3475
sg7
VJOURNAL OF POLITICAL PHILOSOPHY
p3476
sg9
VCarter, Ian
p3477
sg11
V2011
p3478
sg13
VArticle
p3479
sa(dp3480
g3
VWOS:000293093700004
p3481
sg5
VFrom Migration in Geographic Space to Migration in Biographic Time: Views From Europe
p3482
sg7
VJOURNAL OF POLITICAL PHILOSOPHY
p3483
sg9
VOffe, Claus
p3484
sg11
V2011
p3485
sg13
VArticle
p3486
sa(dp3487
g3
VWOS:000186897300003
p3488
sg5
VThe preconditions of world capitalism: Weber updated
p3489
sg7
VJOURNAL OF POLITICAL PHILOSOPHY
p3490
sg9
VStinchcombe, AL
p3491
sg11
V2003
p3492
sg13
VArticle
p3493
sa(dp3494
g3
VWOS:000280124600006
p3495
sg5
VDebate: Ideal Theory-A Reply to Valentini
p3496
sg7
VJOURNAL OF POLITICAL PHILOSOPHY
p3497
sg9
VLawford-Smith, Holly
p3498
sg11
V2010
p3499
sg13
VArticle
p3500
sa(dp3501
g3
VWOS:000265146500003
p3502
sg5
VThe Limits of Practical Possibility
p3503
sg7
VJOURNAL OF POLITICAL PHILOSOPHY
p3504
sg9
VJensen, Mark
p3505
sg11
V2009
p3506
sg13
VArticle
p3507
sa(dp3508
g3
VWOS:000083983200008
p3509
sg5
VEquality of opportunity for welfare defended and recanted
p3510
sg7
VJOURNAL OF POLITICAL PHILOSOPHY
p3511
sg9
VArneson, RJ
p3512
sg11
V1999
p3513
sg13
VArticle
p3514
sa.